

Microchip MPLAB XC8 Assembler V2.10 build 88905656 
                                                                                               Fri Mar 13 22:35:43 2020

Microchip MPLAB XC8 C Compiler v2.10 (Free license) build 20190730164152 Og1 
     1                           	processor	16F873A
     2                           	opt	pw 120
     3                           	opt	flic
     4                           	psect	idataBANK0,global,class=CODE,delta=2
     5                           	psect	idataBANK1,global,class=CODE,delta=2
     6                           	psect	strings,global,class=STRING,delta=2
     7                           	psect	cinit,global,class=CODE,merge=1,delta=2
     8                           	psect	bssBANK0,global,class=BANK0,space=1,delta=1
     9                           	psect	dataBANK0,global,class=BANK0,space=1,delta=1
    10                           	psect	bssBANK1,global,class=BANK1,space=1,delta=1
    11                           	psect	dataBANK1,global,class=BANK1,space=1,delta=1
    12                           	psect	inittext,global,class=CODE,delta=2
    13                           	psect	cstackBANK1,global,class=BANK1,space=1,delta=1
    14                           	psect	cstackCOMMON,global,class=COMMON,space=1,delta=1
    15                           	psect	cstackBANK0,global,class=BANK0,space=1,delta=1
    16                           	psect	maintext,global,class=CODE,split=1,delta=2
    17                           	psect	text1,local,class=CODE,merge=1,delta=2
    18                           	psect	text2,local,class=CODE,merge=1,delta=2
    19                           	psect	text3,local,class=CODE,merge=1,delta=2
    20                           	psect	text4,local,class=CODE,merge=1,delta=2,group=2
    21                           	psect	text5,local,class=CODE,merge=1,delta=2
    22                           	psect	text6,local,class=CODE,merge=1,delta=2
    23                           	psect	text7,local,class=CODE,merge=1,delta=2,group=1
    24                           	psect	text8,local,class=CODE,merge=1,delta=2,group=1
    25                           	psect	text9,local,class=CODE,merge=1,delta=2
    26                           	psect	text10,local,class=CODE,merge=1,delta=2
    27                           	psect	text11,local,class=CODE,merge=1,delta=2
    28                           	psect	text12,local,class=CODE,merge=1,delta=2
    29                           	psect	text13,local,class=CODE,merge=1,delta=2
    30                           	psect	text14,local,class=CODE,merge=1,delta=2,group=1
    31                           	psect	text15,local,class=CODE,merge=1,delta=2,group=1
    32                           	psect	text16,local,class=CODE,merge=1,delta=2,group=1
    33                           	psect	text17,local,class=CODE,merge=1,delta=2,group=1
    34                           	psect	text18,local,class=CODE,merge=1,delta=2
    35                           	psect	text19,local,class=CODE,merge=1,delta=2
    36                           	psect	text20,local,class=CODE,merge=1,delta=2
    37                           	psect	text21,local,class=CODE,merge=1,delta=2
    38                           	psect	text22,local,class=CODE,merge=1,delta=2
    39                           	psect	text23,local,class=CODE,merge=1,delta=2,group=2
    40                           	psect	text24,local,class=CODE,merge=1,delta=2
    41                           	psect	text25,local,class=CODE,merge=1,delta=2
    42                           	psect	text26,local,class=CODE,merge=1,delta=2
    43                           	psect	text27,local,class=CODE,merge=1,delta=2
    44                           	psect	text28,local,class=CODE,merge=1,delta=2
    45                           	psect	text29,local,class=CODE,merge=1,delta=2
    46                           	psect	text30,local,class=CODE,merge=1,delta=2
    47                           	psect	text31,local,class=CODE,merge=1,delta=2
    48                           	psect	text32,local,class=CODE,merge=1,delta=2
    49                           	psect	intentry,global,class=CODE,delta=2
    50                           	psect	text33,local,class=CODE,merge=1,delta=2
    51                           	psect	text34,local,class=CODE,merge=1,delta=2
    52                           	psect	text35,local,class=CODE,merge=1,delta=2,group=2
    53                           	psect	text36,local,class=CODE,merge=1,delta=2
    54                           	psect	text37,local,class=CODE,merge=1,delta=2
    55                           	psect	text38,local,class=CODE,merge=1,delta=2,group=2
    56                           	psect	text39,local,class=CODE,merge=1,delta=2,group=2
    57                           	psect	text40,local,class=CODE,merge=1,delta=2,group=1
    58                           	psect	text41,local,class=CODE,merge=1,delta=2
    59                           	psect	text42,local,class=CODE,merge=1,delta=2
    60                           	psect	text43,local,class=CODE,merge=1,delta=2
    61                           	psect	text44,local,class=CODE,merge=1,delta=2
    62                           	psect	text45,local,class=CODE,merge=1,delta=2
    63                           	dabs	1,0x7E,2
    64  0000                     
    65                           ; Version 2.10
    66                           ; Generated 31/07/2019 GMT
    67                           ; 
    68                           ; Copyright © 2019, Microchip Technology Inc. and its subsidiaries ("Microchip")
    69                           ; All rights reserved.
    70                           ; 
    71                           ; This software is developed by Microchip Technology Inc. and its subsidiaries ("Microch
      +                          ip").
    72                           ; 
    73                           ; Redistribution and use in source and binary forms, with or without modification, are
    74                           ; permitted provided that the following conditions are met:
    75                           ; 
    76                           ;     1. Redistributions of source code must retain the above copyright notice, this lis
      +                          t of
    77                           ;        conditions and the following disclaimer.
    78                           ; 
    79                           ;     2. Redistributions in binary form must reproduce the above copyright notice, this 
      +                          list
    80                           ;        of conditions and the following disclaimer in the documentation and/or other
    81                           ;        materials provided with the distribution.
    82                           ; 
    83                           ;     3. Microchip's name may not be used to endorse or promote products derived from th
      +                          is
    84                           ;        software without specific prior written permission.
    85                           ; 
    86                           ; THIS SOFTWARE IS PROVIDED BY MICROCHIP "AS IS" AND ANY EXPRESS OR IMPLIED WARRANTIES,
    87                           ; INCLUDING, BUT NOT LIMITED TO, THE IMPLIED WARRANTIES OF MERCHANTABILITY AND FITNESS F
      +                          OR
    88                           ; PURPOSE ARE DISCLAIMED.  IN NO EVENT SHALL MICROCHIP BE LIABLE FOR ANY DIRECT, INDIREC
      +                          T,
    89                           ; INCIDENTAL, SPECIAL, EXEMPLARY, OR CONSEQUENTIAL DAMAGES (INCLUDING BUT NOT LIMITED TO
    90                           ; PROCUREMENT OF SUBSTITUTE GOODS OR SERVICES; LOSS OF USE, DATA OR PROFITS; OR BUSINESS
    91                           ; INTERRUPTION) HOWSOEVER CAUSED AND ON ANY THEORY OF LIABILITY, WHETHER IN CONTRACT, ST
      +                          RICT
    92                           ; LIABILITY, OR TORT (INCLUDING NEGLIGENCE OR OTHERWISE) ARISING IN ANY WAY OUT OF THE U
      +                          SE OF
    93                           ; THIS SOFTWARE, EVEN IF ADVISED OF THE POSSIBILITY OF SUCH DAMAGE.
    94                           ; 
    95                           ; 
    96                           ; Code-generator required, PIC16F873A Definitions
    97                           ; 
    98                           ; SFR Addresses
    99  0000                     	;# 
   100  0001                     	;# 
   101  0002                     	;# 
   102  0003                     	;# 
   103  0004                     	;# 
   104  0005                     	;# 
   105  0006                     	;# 
   106  0007                     	;# 
   107  000A                     	;# 
   108  000B                     	;# 
   109  000C                     	;# 
   110  000D                     	;# 
   111  000E                     	;# 
   112  000E                     	;# 
   113  000F                     	;# 
   114  0010                     	;# 
   115  0011                     	;# 
   116  0012                     	;# 
   117  0013                     	;# 
   118  0014                     	;# 
   119  0015                     	;# 
   120  0015                     	;# 
   121  0016                     	;# 
   122  0017                     	;# 
   123  0018                     	;# 
   124  0019                     	;# 
   125  001A                     	;# 
   126  001B                     	;# 
   127  001B                     	;# 
   128  001C                     	;# 
   129  001D                     	;# 
   130  001E                     	;# 
   131  001F                     	;# 
   132  0081                     	;# 
   133  0085                     	;# 
   134  0086                     	;# 
   135  0087                     	;# 
   136  008C                     	;# 
   137  008D                     	;# 
   138  008E                     	;# 
   139  0091                     	;# 
   140  0092                     	;# 
   141  0093                     	;# 
   142  0094                     	;# 
   143  0098                     	;# 
   144  0099                     	;# 
   145  009C                     	;# 
   146  009D                     	;# 
   147  009E                     	;# 
   148  009F                     	;# 
   149  010C                     	;# 
   150  010D                     	;# 
   151  010E                     	;# 
   152  010F                     	;# 
   153  018C                     	;# 
   154  018D                     	;# 
   155  0000                     	;# 
   156  0001                     	;# 
   157  0002                     	;# 
   158  0003                     	;# 
   159  0004                     	;# 
   160  0005                     	;# 
   161  0006                     	;# 
   162  0007                     	;# 
   163  000A                     	;# 
   164  000B                     	;# 
   165  000C                     	;# 
   166  000D                     	;# 
   167  000E                     	;# 
   168  000E                     	;# 
   169  000F                     	;# 
   170  0010                     	;# 
   171  0011                     	;# 
   172  0012                     	;# 
   173  0013                     	;# 
   174  0014                     	;# 
   175  0015                     	;# 
   176  0015                     	;# 
   177  0016                     	;# 
   178  0017                     	;# 
   179  0018                     	;# 
   180  0019                     	;# 
   181  001A                     	;# 
   182  001B                     	;# 
   183  001B                     	;# 
   184  001C                     	;# 
   185  001D                     	;# 
   186  001E                     	;# 
   187  001F                     	;# 
   188  0081                     	;# 
   189  0085                     	;# 
   190  0086                     	;# 
   191  0087                     	;# 
   192  008C                     	;# 
   193  008D                     	;# 
   194  008E                     	;# 
   195  0091                     	;# 
   196  0092                     	;# 
   197  0093                     	;# 
   198  0094                     	;# 
   199  0098                     	;# 
   200  0099                     	;# 
   201  009C                     	;# 
   202  009D                     	;# 
   203  009E                     	;# 
   204  009F                     	;# 
   205  010C                     	;# 
   206  010D                     	;# 
   207  010E                     	;# 
   208  010F                     	;# 
   209  018C                     	;# 
   210  018D                     	;# 
   211                           
   212                           	psect	idataBANK0
   213  087B                     __pidataBANK0:	
   214                           
   215                           ;initializer for send@F1086
   216  087B  3450               	retlw	80
   217  087C  3445               	retlw	69
   218  087D  344C               	retlw	76
   219  087E  3449               	retlw	73
   220  087F  3447               	retlw	71
   221  0880  3452               	retlw	82
   222  0881  344F               	retlw	79
   223  0882  3420               	retlw	32
   224                           
   225                           ;initializer for _clear
   226  0883  3401               	retlw	1
   227  0884  3400               	retlw	0
   228                           
   229                           ;initializer for _waiting
   230  0885  3401               	retlw	1
   231  0886  3400               	retlw	0
   232                           
   233                           	psect	idataBANK1
   234  086D                     __pidataBANK1:	
   235                           
   236                           ;initializer for _onConfTempMode
   237  086D  3401               	retlw	1
   238  086E  3400               	retlw	0
   239                           
   240                           ;initializer for _maxTemp
   241  086F  3496               	retlw	150
   242  0870  3400               	retlw	0
   243                           
   244                           	psect	strings
   245  0800                     __pstrings:	
   246  0800                     stringtab:	
   247  0800                     __stringtab:	
   248                           
   249                           ;	String table - string pointers are 1 byte each
   250  0800  1BFF               	btfsc	btemp+1,7
   251  0801  280A               	ljmp	stringcode
   252  0802  1383               	bcf	3,7
   253  0803  187F               	btfsc	btemp+1,0
   254  0804  1783               	bsf	3,7
   255  0805  0800               	movf	0,w
   256  0806  0A84               	incf	4,f
   257  0807  1903               	skipnz
   258  0808  0AFF               	incf	btemp+1,f
   259  0809  0008               	return
   260  080A                     stringcode:	
   261  080A                     stringdir:	
   262  080A  3008               	movlw	high stringdir
   263  080B  008A               	movwf	10
   264  080C  0804               	movf	4,w
   265  080D  0A84               	incf	4,f
   266  080E  0782               	addwf	2,f
   267  080F                     __stringbase:	
   268  080F  3400               	retlw	0
   269  0810                     __end_of__stringtab:	
   270  0810                     _dpowers:	
   271  0810  3401               	retlw	1
   272  0811  3400               	retlw	0
   273  0812  340A               	retlw	10
   274  0813  3400               	retlw	0
   275  0814  3464               	retlw	100
   276  0815  3400               	retlw	0
   277  0816  34E8               	retlw	232
   278  0817  3403               	retlw	3
   279  0818  3410               	retlw	16
   280  0819  3427               	retlw	39
   281  081A                     __end_of_dpowers:	
   282  0019                     _TXREG	set	25
   283  000B                     _INTCONbits	set	11
   284  0006                     _PORTB	set	6
   285  001E                     _ADRESH	set	30
   286  001F                     _ADCON0	set	31
   287  0007                     _PORTC	set	7
   288  0064                     _TXIF	set	100
   289  00FB                     _CHS0	set	251
   290  00FA                     _GO	set	250
   291  00C4                     _CREN	set	196
   292  00C7                     _SPEN	set	199
   293  0058                     _RBIF	set	88
   294  005F                     _GIE	set	95
   295  005B                     _RBIE	set	91
   296  00FE                     _ADCS0	set	254
   297  0038                     _RC0	set	56
   298  0039                     _RC1	set	57
   299  009E                     _ADRESL	set	158
   300  0099                     _SPBRG	set	153
   301  0086                     _TRISB	set	134
   302  0081                     _OPTION_REG	set	129
   303  009F                     _ADCON1	set	159
   304  0085                     _TRISA	set	133
   305  0087                     _TRISC	set	135
   306  0465                     _RCIE	set	1125
   307  0464                     _TXIE	set	1124
   308  04C2                     _BRGH	set	1218
   309  04C4                     _SYNC	set	1220
   310  04C5                     _TXEN	set	1221
   311  081A                     STR_3:	
   312  081A  3449               	retlw	73	;'I'
   313  081B  346E               	retlw	110	;'n'
   314  081C  3467               	retlw	103	;'g'
   315  081D  3472               	retlw	114	;'r'
   316  081E  3465               	retlw	101	;'e'
   317  081F  3473               	retlw	115	;'s'
   318  0820  3465               	retlw	101	;'e'
   319  0821  3420               	retlw	32	;' '
   320  0822  3474               	retlw	116	;'t'
   321  0823  3465               	retlw	101	;'e'
   322  0824  346D               	retlw	109	;'m'
   323  0825  3470               	retlw	112	;'p'
   324  0826  3420               	retlw	32	;' '
   325  0827  344D               	retlw	77	;'M'
   326  0828  3441               	retlw	65	;'A'
   327  0829  3458               	retlw	88	;'X'
   328  082A  3449               	retlw	73	;'I'
   329  082B  344D               	retlw	77	;'M'
   330  082C  3441               	retlw	65	;'A'
   331  082D  3400               	retlw	0
   332  082E                     STR_5:	
   333  082E  3425               	retlw	37	;'%'
   334  082F  3464               	retlw	100	;'d'
   335  0830  3427               	retlw	39	;'''
   336  0831  3443               	retlw	67	;'C'
   337  0832  3400               	retlw	0
   338  0833                     STR_1:	
   339  0833  3425               	retlw	37	;'%'
   340  0834  3464               	retlw	100	;'d'
   341  0835  3400               	retlw	0
   342  081A                     
   343                           	psect	cinit
   344  0011                     start_initialization:	
   345                           ; #config settings
   346                           
   347  0011                     __initialization:	
   348                           
   349                           ; Initialize objects allocated to BANK1
   350  0011  1383               	bcf	3,7	;select IRP bank0
   351  0012  30E8               	movlw	low (__pdataBANK1+4)
   352  0013  00FD               	movwf	btemp+-1
   353  0014  3008               	movlw	high __pidataBANK1
   354  0015  00FE               	movwf	btemp
   355  0016  306D               	movlw	low __pidataBANK1
   356  0017  00FF               	movwf	btemp+1
   357  0018  30E4               	movlw	low __pdataBANK1
   358  0019  0084               	movwf	4
   359  001A  158A  2120  118A   	fcall	init_ram0
   360                           
   361                           ; Initialize objects allocated to BANK0
   362  001D  305D               	movlw	low (__pdataBANK0+12)
   363  001E  00FD               	movwf	btemp+-1
   364  001F  3008               	movlw	high __pidataBANK0
   365  0020  00FE               	movwf	btemp
   366  0021  307B               	movlw	low __pidataBANK0
   367  0022  00FF               	movwf	btemp+1
   368  0023  3051               	movlw	low __pdataBANK0
   369  0024  0084               	movwf	4
   370  0025  158A  2120  118A   	fcall	init_ram0
   371                           
   372                           ; Clear objects allocated to BANK1
   373  0028  1683               	bsf	3,5	;RP0=1, select bank1
   374  0029  1303               	bcf	3,6	;RP1=0, select bank1
   375  002A  01E0               	clrf	__pbssBANK1& (0+127)
   376  002B  01E1               	clrf	(__pbssBANK1+1)& (0+127)
   377  002C  01E2               	clrf	(__pbssBANK1+2)& (0+127)
   378  002D  01E3               	clrf	(__pbssBANK1+3)& (0+127)
   379                           
   380                           ; Clear objects allocated to BANK0
   381  002E  1283               	bcf	3,5	;RP0=0, select bank0
   382  002F  1303               	bcf	3,6	;RP1=0, select bank0
   383  0030  01DD               	clrf	__pbssBANK0& (0+127)
   384  0031  01DE               	clrf	(__pbssBANK0+1)& (0+127)
   385  0032  01DF               	clrf	(__pbssBANK0+2)& (0+127)
   386  0033  01E0               	clrf	(__pbssBANK0+3)& (0+127)
   387  0034  01E1               	clrf	(__pbssBANK0+4)& (0+127)
   388  0035  01E2               	clrf	(__pbssBANK0+5)& (0+127)
   389  0036  01E3               	clrf	(__pbssBANK0+6)& (0+127)
   390  0037                     end_of_initialization:	
   391                           ;End of C runtime variable initialization code
   392                           
   393  0037                     __end_of__initialization:	
   394  0037  0183               	clrf	3
   395  0038  118A  2F96         	ljmp	_main	;jump to C main() function
   396                           
   397                           	psect	bssBANK0
   398  005D                     __pbssBANK0:	
   399  005D                     _cont:	
   400  005D                     	ds	2
   401  005F                     _maxTempString:	
   402  005F                     	ds	5
   403                           
   404                           	psect	dataBANK0
   405  0051                     __pdataBANK0:	
   406  0051                     send@F1086:	
   407  0051                     	ds	8
   408  0059                     _clear:	
   409  0059                     	ds	2
   410  005B                     _waiting:	
   411  005B                     	ds	2
   412                           
   413                           	psect	bssBANK1
   414  00E0                     __pbssBANK1:	
   415  00E0                     _readTem:	
   416  00E0                     	ds	2
   417  00E2                     _showDiferenceTemp:	
   418  00E2                     	ds	2
   419                           
   420                           	psect	dataBANK1
   421  00E4                     __pdataBANK1:	
   422  00E4                     _onConfTempMode:	
   423  00E4                     	ds	2
   424  00E6                     _maxTemp:	
   425  00E6                     	ds	2
   426                           
   427                           	psect	inittext
   428  091C                     init_fetch0:	
   429                           ;	Called with low address in FSR and high address in W
   430                           
   431  091C  087E               	movf	btemp,w
   432  091D  008A               	movwf	10
   433  091E  087F               	movf	btemp+1,w
   434  091F  0082               	movwf	2
   435  0920                     init_ram0:	
   436                           ;Called with:
   437                           ;	high address of idata address in btemp 
   438                           ;	low address of idata address in btemp+1 
   439                           ;	low address of data in FSR
   440                           ;	high address + 1 of data in btemp-1
   441                           
   442  0920  158A  211C  158A   	fcall	init_fetch0
   443  0923  0080               	movwf	0
   444  0924  0A84               	incf	4,f
   445  0925  0804               	movf	4,w
   446  0926  067D               	xorwf	btemp+-1,w
   447  0927  1903               	btfsc	3,2
   448  0928  3400               	retlw	0
   449  0929  0AFF               	incf	btemp+1,f
   450  092A  1903               	btfsc	3,2
   451  092B  0AFE               	incf	btemp,f
   452  092C  2920               	goto	init_ram0
   453                           
   454                           	psect	cstackBANK1
   455  00A0                     __pcstackBANK1:	
   456  00A0                     ?___flmul:	
   457  00A0                     sprintf@ap:	
   458                           ; 4 bytes @ 0x0
   459                           
   460  00A0                     ___flmul@b:	
   461                           ; 1 bytes @ 0x0
   462                           
   463                           
   464                           ; 4 bytes @ 0x0
   465  00A0                     	ds	1
   466  00A1                     sprintf@flag:	
   467                           
   468                           ; 1 bytes @ 0x1
   469  00A1                     	ds	1
   470  00A2                     sprintf@prec:	
   471                           
   472                           ; 1 bytes @ 0x2
   473  00A2                     	ds	1
   474  00A3                     sprintf@val:	
   475                           
   476                           ; 2 bytes @ 0x3
   477  00A3                     	ds	1
   478  00A4                     ___flmul@a:	
   479                           
   480                           ; 4 bytes @ 0x4
   481  00A4                     	ds	1
   482  00A5                     sprintf@sp:	
   483                           
   484                           ; 1 bytes @ 0x5
   485  00A5                     	ds	1
   486  00A6                     sprintf@c:	
   487                           
   488                           ; 1 bytes @ 0x6
   489  00A6                     	ds	2
   490  00A8                     ___flmul@sign:	
   491                           
   492                           ; 1 bytes @ 0x8
   493  00A8                     	ds	1
   494  00A9                     ___flmul@aexp:	
   495                           
   496                           ; 1 bytes @ 0x9
   497  00A9                     	ds	1
   498  00AA                     ___flmul@grs:	
   499                           
   500                           ; 4 bytes @ 0xA
   501  00AA                     	ds	4
   502  00AE                     ___flmul@bexp:	
   503                           
   504                           ; 1 bytes @ 0xE
   505  00AE                     	ds	1
   506  00AF                     ___flmul@prod:	
   507                           
   508                           ; 4 bytes @ 0xF
   509  00AF                     	ds	4
   510  00B3                     ___flmul@temp:	
   511                           
   512                           ; 2 bytes @ 0x13
   513  00B3                     	ds	2
   514  00B5                     ?___fltol:	
   515  00B5                     ___fltol@f1:	
   516                           ; 4 bytes @ 0x15
   517                           
   518                           
   519                           ; 4 bytes @ 0x15
   520  00B5                     	ds	4
   521  00B9                     ??___fltol:	
   522                           
   523                           ; 1 bytes @ 0x19
   524  00B9                     	ds	5
   525  00BE                     ??_getTemperatureString:	
   526  00BE                     ?_getTemperatureInt:	
   527                           ; 1 bytes @ 0x1E
   528                           
   529                           
   530                           ; 2 bytes @ 0x1E
   531  00BE                     	ds	1
   532  00BF                     getTemperatureString@str:	
   533                           
   534                           ; 12 bytes @ 0x1F
   535  00BF                     	ds	1
   536  00C0                     getTemperatureInt@temp:	
   537                           
   538                           ; 2 bytes @ 0x20
   539  00C0                     	ds	11
   540  00CB                     getTemperatureString@temp:	
   541                           
   542                           ; 2 bytes @ 0x2B
   543  00CB                     	ds	2
   544  00CD                     ?_writeOnLCD:	
   545  00CD                     writeOnLCD@word:	
   546                           ; 1 bytes @ 0x2D
   547                           
   548                           
   549                           ; 2 bytes @ 0x2D
   550  00CD                     	ds	2
   551  00CF                     ??_showDifferenceTemp:	
   552  00CF                     ??_showTemp:	
   553                           ; 1 bytes @ 0x2F
   554                           
   555                           
   556                           ; 1 bytes @ 0x2F
   557  00CF                     	ds	2
   558  00D1                     showTemp@temp:	
   559  00D1                     showDifferenceTemp@tempDifference:	
   560                           ; 2 bytes @ 0x31
   561                           
   562                           
   563                           ; 5 bytes @ 0x31
   564  00D1                     	ds	5
   565  00D6                     showDifferenceTemp@temp1:	
   566                           
   567                           ; 2 bytes @ 0x36
   568  00D6                     	ds	2
   569  00D8                     showDifferenceTemp@temp2:	
   570                           
   571                           ; 2 bytes @ 0x38
   572  00D8                     	ds	2
   573  00DA                     showDifferenceTemp@tempDif:	
   574                           
   575                           ; 2 bytes @ 0x3A
   576  00DA                     	ds	2
   577  00DC                     ??_main:	
   578                           
   579                           ; 1 bytes @ 0x3C
   580  00DC                     	ds	2
   581  00DE                     main@running:	
   582                           
   583                           ; 2 bytes @ 0x3E
   584  00DE                     	ds	2
   585                           
   586                           	psect	cstackCOMMON
   587  0000                     __pcstackCOMMON:	
   588  0000                     ??_strlen:	
   589  0000                     ??_isdigit:	
   590                           ; 1 bytes @ 0x0
   591                           
   592  0000                     ??_wait:	
   593                           ; 1 bytes @ 0x0
   594                           
   595  0000                     ??_turnOnLCD:	
   596                           ; 1 bytes @ 0x0
   597                           
   598  0000                     ??_writeWord:	
   599                           ; 1 bytes @ 0x0
   600                           
   601  0000                     ??_writeOnLCD:	
   602                           ; 1 bytes @ 0x0
   603                           
   604  0000                     ??_clearLCD:	
   605                           ; 1 bytes @ 0x0
   606                           
   607  0000                     ??_configThermo:	
   608                           ; 1 bytes @ 0x0
   609                           
   610  0000                     ??_configKeyboard:	
   611                           ; 1 bytes @ 0x0
   612                           
   613  0000                     ??_configSerialPort:	
   614                           ; 1 bytes @ 0x0
   615                           
   616  0000                     ??_getVoltaje:	
   617                           ; 1 bytes @ 0x0
   618                           
   619  0000                     ??_getTemperatureInt:	
   620                           ; 1 bytes @ 0x0
   621                           
   622  0000                     ??_ZeroSequenceKeyboard:	
   623                           ; 1 bytes @ 0x0
   624                           
   625  0000                     ??_clearIfFirst:	
   626                           ; 1 bytes @ 0x0
   627                           
   628  0000                     ??_changeThermometerChannel:	
   629                           ; 1 bytes @ 0x0
   630                           
   631  0000                     ??_configTempMode:	
   632                           ; 1 bytes @ 0x0
   633                           
   634  0000                     ??___wmul:	
   635                           ; 1 bytes @ 0x0
   636                           
   637  0000                     ??i1_turnOnLCD:	
   638                           ; 1 bytes @ 0x0
   639                           
   640  0000                     ??i1_clearLCD:	
   641                           ; 1 bytes @ 0x0
   642                           
   643  0000                     ??i1_changeThermometerChannel:	
   644                           ; 1 bytes @ 0x0
   645                           
   646                           
   647                           	psect	cstackBANK0
   648  0020                     __pcstackBANK0:	
   649                           ; 1 bytes @ 0x0
   650                           
   651  0020                     ?_isdigit:	
   652  0020                     ?_memset:	
   653                           ; 1 bit 
   654                           
   655  0020                     ?_wait:	
   656                           ; 1 bytes @ 0x0
   657                           
   658  0020                     ?_flank:	
   659                           ; 1 bytes @ 0x0
   660                           
   661  0020                     ?_turnOnLCD:	
   662                           ; 1 bytes @ 0x0
   663                           
   664  0020                     ?_clearLCD:	
   665                           ; 1 bytes @ 0x0
   666                           
   667  0020                     ?_configThermo:	
   668                           ; 1 bytes @ 0x0
   669                           
   670  0020                     ?_configKeyboard:	
   671                           ; 1 bytes @ 0x0
   672                           
   673  0020                     ?_configSerialPort:	
   674                           ; 1 bytes @ 0x0
   675                           
   676  0020                     ?_getTemperatureString:	
   677                           ; 1 bytes @ 0x0
   678                           
   679  0020                     ?_ZeroSequenceKeyboard:	
   680                           ; 1 bytes @ 0x0
   681                           
   682  0020                     ?_clearIfFirst:	
   683                           ; 1 bytes @ 0x0
   684                           
   685  0020                     ?_addCharToMaxTemp:	
   686                           ; 1 bytes @ 0x0
   687                           
   688  0020                     ?_keyboard:	
   689                           ; 1 bytes @ 0x0
   690                           
   691  0020                     ?_globalInterruption:	
   692                           ; 1 bytes @ 0x0
   693                           
   694  0020                     ?_configTempMode:	
   695                           ; 1 bytes @ 0x0
   696                           
   697  0020                     ?_turnOnSerialAlarm:	
   698                           ; 1 bytes @ 0x0
   699                           
   700  0020                     ?_send:	
   701                           ; 1 bytes @ 0x0
   702                           
   703  0020                     ?_showDifferenceTemp:	
   704                           ; 1 bytes @ 0x0
   705                           
   706  0020                     ?_showTemp:	
   707                           ; 1 bytes @ 0x0
   708                           
   709  0020                     ?_main:	
   710                           ; 1 bytes @ 0x0
   711                           
   712  0020                     ?i1_flank:	
   713                           ; 1 bytes @ 0x0
   714                           
   715  0020                     ??i1_flank:	
   716                           ; 1 bytes @ 0x0
   717                           
   718  0020                     ?i1_turnOnLCD:	
   719                           ; 1 bytes @ 0x0
   720                           
   721  0020                     ?i1_clearLCD:	
   722                           ; 1 bytes @ 0x0
   723                           
   724  0020                     ?i1_changeThermometerChannel:	
   725                           ; 1 bytes @ 0x0
   726                           
   727  0020                     ?___wmul:	
   728                           ; 1 bytes @ 0x0
   729                           
   730  0020                     _isdigit$679:	
   731                           ; 2 bytes @ 0x0
   732                           
   733  0020                     ___wmul@multiplier:	
   734                           ; 1 bytes @ 0x0
   735                           
   736  0020                     memset@c:	
   737                           ; 2 bytes @ 0x0
   738                           
   739  0020                     i1changeThermometerChannel@channel:	
   740                           ; 2 bytes @ 0x0
   741                           
   742                           
   743                           ; 2 bytes @ 0x0
   744  0020                     	ds	1
   745  0021                     ?i1_sendNibble:	
   746  0021                     isdigit@c:	
   747                           ; 1 bytes @ 0x1
   748                           
   749  0021                     i1sendNibble@n:	
   750                           ; 1 bytes @ 0x1
   751                           
   752  0021                     i1turnOnLCD@d1:	
   753                           ; 2 bytes @ 0x1
   754                           
   755                           
   756                           ; 2 bytes @ 0x1
   757  0021                     	ds	1
   758  0022                     ___wmul@multiplicand:	
   759  0022                     memset@n:	
   760                           ; 2 bytes @ 0x2
   761                           
   762                           
   763                           ; 2 bytes @ 0x2
   764  0022                     	ds	1
   765  0023                     i1sendNibble@rs:	
   766                           
   767                           ; 2 bytes @ 0x3
   768  0023                     	ds	1
   769  0024                     ??_memset:	
   770  0024                     ___wmul@product:	
   771                           ; 1 bytes @ 0x4
   772                           
   773                           
   774                           ; 2 bytes @ 0x4
   775  0024                     	ds	1
   776  0025                     ??i1_sendNibble:	
   777  0025                     memset@p1:	
   778                           ; 1 bytes @ 0x5
   779                           
   780                           
   781                           ; 1 bytes @ 0x5
   782  0025                     	ds	1
   783  0026                     ?_atoi:	
   784  0026                     memset@p:	
   785                           ; 2 bytes @ 0x6
   786                           
   787                           
   788                           ; 1 bytes @ 0x6
   789  0026                     	ds	1
   790  0027                     i1sendNibble@d1:	
   791                           
   792                           ; 2 bytes @ 0x7
   793  0027                     	ds	1
   794  0028                     ??_atoi:	
   795                           
   796                           ; 1 bytes @ 0x8
   797  0028                     	ds	1
   798  0029                     i1sendNibble@d2:	
   799                           
   800                           ; 2 bytes @ 0x9
   801  0029                     	ds	1
   802  002A                     atoi@sign:	
   803                           
   804                           ; 1 bytes @ 0xA
   805  002A                     	ds	1
   806  002B                     ?i1_putCharacter:	
   807  002B                     atoi@a:	
   808                           ; 1 bytes @ 0xB
   809                           
   810  002B                     i1putCharacter@position:	
   811                           ; 2 bytes @ 0xB
   812                           
   813                           
   814                           ; 2 bytes @ 0xB
   815  002B                     	ds	2
   816  002D                     ??i1_putCharacter:	
   817  002D                     atoi@s:	
   818                           ; 1 bytes @ 0xD
   819                           
   820                           
   821                           ; 1 bytes @ 0xD
   822  002D                     	ds	2
   823  002F                     i1putCharacter@character:	
   824                           
   825                           ; 1 bytes @ 0xF
   826  002F                     	ds	1
   827  0030                     ??_addCharToMaxTemp:	
   828                           
   829                           ; 1 bytes @ 0x10
   830  0030                     	ds	1
   831  0031                     addCharToMaxTemp@character:	
   832                           
   833                           ; 1 bytes @ 0x11
   834  0031                     	ds	1
   835  0032                     ??_keyboard:	
   836                           
   837                           ; 1 bytes @ 0x12
   838  0032                     	ds	2
   839  0034                     ??_globalInterruption:	
   840                           
   841                           ; 1 bytes @ 0x14
   842  0034                     	ds	6
   843  003A                     ?_strcat:	
   844  003A                     ??_flank:	
   845                           ; 1 bytes @ 0x1A
   846                           
   847  003A                     ?_changeThermometerChannel:	
   848                           ; 1 bytes @ 0x1A
   849                           
   850  003A                     ?_strlen:	
   851                           ; 1 bytes @ 0x1A
   852                           
   853  003A                     ?__Umul8_16:	
   854                           ; 2 bytes @ 0x1A
   855                           
   856  003A                     ?_getVoltaje:	
   857                           ; 2 bytes @ 0x1A
   858                           
   859  003A                     ?_isItHot:	
   860                           ; 2 bytes @ 0x1A
   861                           
   862  003A                     ?___lwdiv:	
   863                           ; 2 bytes @ 0x1A
   864                           
   865  003A                     strcat@from:	
   866                           ; 2 bytes @ 0x1A
   867                           
   868  003A                     __Umul8_16@multiplicand:	
   869                           ; 1 bytes @ 0x1A
   870                           
   871  003A                     changeThermometerChannel@channel:	
   872                           ; 1 bytes @ 0x1A
   873                           
   874  003A                     isItHot@temp:	
   875                           ; 2 bytes @ 0x1A
   876                           
   877  003A                     ___lwdiv@divisor:	
   878                           ; 2 bytes @ 0x1A
   879                           
   880  003A                     strlen@s:	
   881                           ; 2 bytes @ 0x1A
   882                           
   883                           
   884                           ; 2 bytes @ 0x1A
   885  003A                     	ds	1
   886  003B                     ??_strcat:	
   887  003B                     ?_sendNibble:	
   888                           ; 1 bytes @ 0x1B
   889                           
   890  003B                     sendNibble@n:	
   891                           ; 1 bytes @ 0x1B
   892                           
   893  003B                     turnOnLCD@d1:	
   894                           ; 2 bytes @ 0x1B
   895                           
   896                           
   897                           ; 2 bytes @ 0x1B
   898  003B                     	ds	1
   899  003C                     ??__Umul8_16:	
   900  003C                     ??_isItHot:	
   901                           ; 1 bytes @ 0x1C
   902                           
   903  003C                     ?___xxtofl:	
   904                           ; 1 bytes @ 0x1C
   905                           
   906  003C                     strcat@to:	
   907                           ; 4 bytes @ 0x1C
   908                           
   909  003C                     ___lwdiv@dividend:	
   910                           ; 1 bytes @ 0x1C
   911                           
   912  003C                     strlen@cp:	
   913                           ; 2 bytes @ 0x1C
   914                           
   915  003C                     ___xxtofl@val:	
   916                           ; 2 bytes @ 0x1C
   917                           
   918                           
   919                           ; 4 bytes @ 0x1C
   920  003C                     	ds	1
   921  003D                     strcat@cp:	
   922  003D                     sendNibble@rs:	
   923                           ; 1 bytes @ 0x1D
   924                           
   925                           
   926                           ; 2 bytes @ 0x1D
   927  003D                     	ds	1
   928  003E                     ??_turnOnSerialAlarm:	
   929  003E                     ??___lwdiv:	
   930                           ; 1 bytes @ 0x1E
   931                           
   932  003E                     __Umul8_16@product:	
   933                           ; 1 bytes @ 0x1E
   934                           
   935                           
   936                           ; 2 bytes @ 0x1E
   937  003E                     	ds	1
   938  003F                     ??_sendNibble:	
   939  003F                     ___lwdiv@counter:	
   940                           ; 1 bytes @ 0x1F
   941                           
   942  003F                     turnOnSerialAlarm@i:	
   943                           ; 1 bytes @ 0x1F
   944                           
   945                           
   946                           ; 2 bytes @ 0x1F
   947  003F                     	ds	1
   948  0040                     ??___xxtofl:	
   949  0040                     ___lwdiv@quotient:	
   950                           ; 1 bytes @ 0x20
   951                           
   952  0040                     __Umul8_16@word_mpld:	
   953                           ; 2 bytes @ 0x20
   954                           
   955                           
   956                           ; 2 bytes @ 0x20
   957  0040                     	ds	1
   958  0041                     turnOnSerialAlarm@message:	
   959  0041                     sendNibble@d1:	
   960                           ; 1 bytes @ 0x21
   961                           
   962                           
   963                           ; 2 bytes @ 0x21
   964  0041                     	ds	1
   965  0042                     ??_send:	
   966  0042                     ?___lwmod:	
   967                           ; 1 bytes @ 0x22
   968                           
   969  0042                     __Umul8_16@multiplier:	
   970                           ; 2 bytes @ 0x22
   971                           
   972  0042                     ___lwmod@divisor:	
   973                           ; 1 bytes @ 0x22
   974                           
   975                           
   976                           ; 2 bytes @ 0x22
   977  0042                     	ds	1
   978  0043                     sendNibble@d2:	
   979                           
   980                           ; 2 bytes @ 0x23
   981  0043                     	ds	1
   982  0044                     ___xxtofl@sign:	
   983  0044                     ___lwmod@dividend:	
   984                           ; 1 bytes @ 0x24
   985                           
   986                           
   987                           ; 2 bytes @ 0x24
   988  0044                     	ds	1
   989  0045                     ?_putCharacter:	
   990  0045                     ___xxtofl@exp:	
   991                           ; 1 bytes @ 0x25
   992                           
   993  0045                     putCharacter@position:	
   994                           ; 1 bytes @ 0x25
   995                           
   996                           
   997                           ; 2 bytes @ 0x25
   998  0045                     	ds	1
   999  0046                     ??___lwmod:	
  1000  0046                     ___xxtofl@arg:	
  1001                           ; 1 bytes @ 0x26
  1002                           
  1003  0046                     send@msg:	
  1004                           ; 4 bytes @ 0x26
  1005                           
  1006                           
  1007                           ; 8 bytes @ 0x26
  1008  0046                     	ds	1
  1009  0047                     ??_putCharacter:	
  1010  0047                     ___lwmod@counter:	
  1011                           ; 1 bytes @ 0x27
  1012                           
  1013                           
  1014                           ; 1 bytes @ 0x27
  1015  0047                     	ds	1
  1016  0048                     ?_sprintf:	
  1017  0048                     sprintf@f:	
  1018                           ; 2 bytes @ 0x28
  1019                           
  1020                           
  1021                           ; 1 bytes @ 0x28
  1022  0048                     	ds	1
  1023  0049                     putCharacter@character:	
  1024                           
  1025                           ; 1 bytes @ 0x29
  1026  0049                     	ds	1
  1027  004A                     ?_writeWord:	
  1028  004A                     ??___flmul:	
  1029                           ; 1 bytes @ 0x2A
  1030                           
  1031  004A                     writeWord@word:	
  1032                           ; 1 bytes @ 0x2A
  1033                           
  1034                           
  1035                           ; 2 bytes @ 0x2A
  1036  004A                     	ds	1
  1037  004B                     ??_sprintf:	
  1038                           
  1039                           ; 1 bytes @ 0x2B
  1040  004B                     	ds	1
  1041  004C                     writeWord@i:	
  1042                           
  1043                           ; 2 bytes @ 0x2C
  1044  004C                     	ds	3
  1045  004F                     ___fltol@sign1:	
  1046                           
  1047                           ; 1 bytes @ 0x2F
  1048  004F                     	ds	1
  1049  0050                     ___fltol@exp1:	
  1050                           
  1051                           ; 1 bytes @ 0x30
  1052  0050                     	ds	1
  1053                           
  1054                           	psect	maintext
  1055  0796                     __pmaintext:	
  1056 ;;
  1057 ;;Main: autosize = 0, tempsize = 2, incstack = 0, save=0
  1058 ;;
  1059 ;; *************** function _main *****************
  1060 ;; Defined at:
  1061 ;;		line 416 in file "termometroDiferencial.c"
  1062 ;; Parameters:    Size  Location     Type
  1063 ;;		None
  1064 ;; Auto vars:     Size  Location     Type
  1065 ;;  running         2   62[BANK1 ] int 
  1066 ;; Return value:  Size  Location     Type
  1067 ;;                  1    wreg      void 
  1068 ;; Registers used:
  1069 ;;		wreg, fsr0l, fsr0h, status,2, status,0, btemp+1, pclath, cstack
  1070 ;; Tracked objects:
  1071 ;;		On entry : B00/0
  1072 ;;		On exit  : 0/0
  1073 ;;		Unchanged: 0/0
  1074 ;; Data sizes:     COMMON   BANK0   BANK1
  1075 ;;      Params:         0       0       0
  1076 ;;      Locals:         0       0       2
  1077 ;;      Temps:          0       0       2
  1078 ;;      Totals:         0       0       4
  1079 ;;Total ram usage:        4 bytes
  1080 ;; Hardware stack levels required when called:   12
  1081 ;; This function calls:
  1082 ;;		_clearLCD
  1083 ;;		_configKeyboard
  1084 ;;		_configSerialPort
  1085 ;;		_configTempMode
  1086 ;;		_configThermo
  1087 ;;		_showDifferenceTemp
  1088 ;;		_showTemp
  1089 ;;		_wait
  1090 ;; This function is called by:
  1091 ;;		Startup code after reset
  1092 ;; This function uses a non-reentrant model
  1093 ;;
  1094                           
  1095                           
  1096                           ;psect for function _main
  1097  0796                     _main:	
  1098  0796                     l2870:	
  1099                           ;incstack = 0
  1100 ;; hardware stack exceeded
  1101                           ; Regs used in _main: [wreg-fsr0h+status,2+status,0+btemp+1+pclath+cstack]
  1102                           
  1103                           
  1104                           ;termometroDiferencial.c: 418:     configThermo();
  1105  0796  158A  216B  118A   	fcall	_configThermo
  1106                           
  1107                           ;termometroDiferencial.c: 419:     configKeyboard();
  1108  0799  158A  2071  118A   	fcall	_configKeyboard
  1109                           
  1110                           ;termometroDiferencial.c: 420:     configSerialPort();
  1111  079C  158A  210B  118A   	fcall	_configSerialPort
  1112  079F                     l2872:	
  1113                           
  1114                           ;termometroDiferencial.c: 422:     int running = 1;
  1115  079F  3001               	movlw	1
  1116  07A0  1683               	bsf	3,5	;RP0=1, select bank1
  1117  07A1  1303               	bcf	3,6	;RP1=0, select bank1
  1118  07A2  00DE               	movwf	main@running^(0+128)
  1119  07A3  3000               	movlw	0
  1120  07A4  00DF               	movwf	(main@running^(0+128)+1)
  1121                           
  1122                           ;termometroDiferencial.c: 425:     while (running) {
  1123  07A5  2FE8               	goto	l2898
  1124  07A6                     l2874:	
  1125                           
  1126                           ;termometroDiferencial.c: 426:         if (onConfTempMode) {
  1127  07A6  0864               	movf	_onConfTempMode^(0+128),w
  1128  07A7  0465               	iorwf	(_onConfTempMode+1)^(0+128),w
  1129  07A8  1903               	btfsc	3,2
  1130  07A9  2FAB               	goto	u3341
  1131  07AA  2FAC               	goto	u3340
  1132  07AB                     u3341:	
  1133  07AB  2FB8               	goto	l2882
  1134  07AC                     u3340:	
  1135  07AC                     l2876:	
  1136                           
  1137                           ;termometroDiferencial.c: 427:             configTempMode();
  1138  07AC  158A  2340  118A   	fcall	_configTempMode
  1139  07AF                     l2878:	
  1140                           
  1141                           ;termometroDiferencial.c: 428:             onConfTempMode = 0;
  1142  07AF  1683               	bsf	3,5	;RP0=1, select bank1
  1143  07B0  1303               	bcf	3,6	;RP1=0, select bank1
  1144  07B1  01E4               	clrf	_onConfTempMode^(0+128)
  1145  07B2  01E5               	clrf	(_onConfTempMode+1)^(0+128)
  1146  07B3                     l2880:	
  1147                           
  1148                           ;termometroDiferencial.c: 429:             readTem = 1;
  1149  07B3  3001               	movlw	1
  1150  07B4  00E0               	movwf	_readTem^(0+128)
  1151  07B5  3000               	movlw	0
  1152  07B6  00E1               	movwf	(_readTem^(0+128)+1)
  1153                           
  1154                           ;termometroDiferencial.c: 430:         } else if (readTem) {
  1155  07B7  2FE8               	goto	l2898
  1156  07B8                     l2882:	
  1157  07B8  0860               	movf	_readTem^(0+128),w
  1158  07B9  0461               	iorwf	(_readTem+1)^(0+128),w
  1159  07BA  1903               	btfsc	3,2
  1160  07BB  2FBD               	goto	u3351
  1161  07BC  2FBE               	goto	u3350
  1162  07BD                     u3351:	
  1163  07BD  2FD0               	goto	l2890
  1164  07BE                     u3350:	
  1165  07BE                     l2884:	
  1166                           
  1167                           ;termometroDiferencial.c: 431:             _delay((unsigned long)((150)*(4000000/4000.0)
      +                          ));
  1168  07BE  30C3               	movlw	195
  1169  07BF  1683               	bsf	3,5	;RP0=1, select bank1
  1170  07C0  1303               	bcf	3,6	;RP1=0, select bank1
  1171  07C1  00DD               	movwf	(??_main^(0+128)+1)
  1172  07C2  30CC               	movlw	204
  1173  07C3  00DC               	movwf	??_main^(0+128)
  1174  07C4                     u3387:	
  1175  07C4  0BDC               	decfsz	??_main^(0+128),f
  1176  07C5  2FC4               	goto	u3387
  1177  07C6  0BDD               	decfsz	(??_main^(0+128)+1),f
  1178  07C7  2FC4               	goto	u3387
  1179  07C8  2FC9               	nop2
  1180  07C9                     l2886:	
  1181                           
  1182                           ;termometroDiferencial.c: 432:             clearLCD();
  1183  07C9  158A  20A1  118A   	fcall	_clearLCD
  1184  07CC                     l2888:	
  1185                           
  1186                           ;termometroDiferencial.c: 433:             showTemp();
  1187  07CC  158A  23A1  118A   	fcall	_showTemp
  1188                           
  1189                           ;termometroDiferencial.c: 434:         } else if (showDiferenceTemp) {
  1190  07CF  2FE8               	goto	l2898
  1191  07D0                     l2890:	
  1192  07D0  0862               	movf	_showDiferenceTemp^(0+128),w
  1193  07D1  0463               	iorwf	(_showDiferenceTemp+1)^(0+128),w
  1194  07D2  1903               	btfsc	3,2
  1195  07D3  2FD5               	goto	u3361
  1196  07D4  2FD6               	goto	u3360
  1197  07D5                     u3361:	
  1198  07D5  2FE8               	goto	l222
  1199  07D6                     u3360:	
  1200  07D6                     l2892:	
  1201                           
  1202                           ;termometroDiferencial.c: 435:             _delay((unsigned long)((150)*(4000000/4000.0)
      +                          ));
  1203  07D6  30C3               	movlw	195
  1204  07D7  1683               	bsf	3,5	;RP0=1, select bank1
  1205  07D8  1303               	bcf	3,6	;RP1=0, select bank1
  1206  07D9  00DD               	movwf	(??_main^(0+128)+1)
  1207  07DA  30CC               	movlw	204
  1208  07DB  00DC               	movwf	??_main^(0+128)
  1209  07DC                     u3397:	
  1210  07DC  0BDC               	decfsz	??_main^(0+128),f
  1211  07DD  2FDC               	goto	u3397
  1212  07DE  0BDD               	decfsz	(??_main^(0+128)+1),f
  1213  07DF  2FDC               	goto	u3397
  1214  07E0  2FE1               	nop2
  1215  07E1                     l2894:	
  1216                           
  1217                           ;termometroDiferencial.c: 436:             clearLCD();
  1218  07E1  158A  20A1  118A   	fcall	_clearLCD
  1219  07E4                     l2896:	
  1220                           
  1221                           ;termometroDiferencial.c: 437:             showDifferenceTemp();
  1222  07E4  158A  269E  118A   	fcall	_showDifferenceTemp
  1223  07E7  2FE8               	goto	l2898
  1224  07E8                     l222:	
  1225  07E8                     l2898:	
  1226                           
  1227                           ;termometroDiferencial.c: 425:     while (running) {
  1228  07E8  1683               	bsf	3,5	;RP0=1, select bank1
  1229  07E9  1303               	bcf	3,6	;RP1=0, select bank1
  1230  07EA  085E               	movf	main@running^(0+128),w
  1231  07EB  045F               	iorwf	(main@running+1)^(0+128),w
  1232  07EC  1D03               	btfss	3,2
  1233  07ED  2FEF               	goto	u3371
  1234  07EE  2FF0               	goto	u3370
  1235  07EF                     u3371:	
  1236  07EF  2FA6               	goto	l2874
  1237  07F0                     u3370:	
  1238  07F0                     l2900:	
  1239                           
  1240                           ;termometroDiferencial.c: 440:     wait();
  1241  07F0  118A  2002  118A   	fcall	_wait
  1242  07F3                     l227:	
  1243  07F3  118A  280F         	ljmp	start
  1244  07F5                     __end_of_main:	
  1245                           
  1246                           	psect	text1
  1247  0002                     __ptext1:	
  1248 ;; *************** function _wait *****************
  1249 ;; Defined at:
  1250 ;;		line 29 in file "termometroDiferencial.c"
  1251 ;; Parameters:    Size  Location     Type
  1252 ;;		None
  1253 ;; Auto vars:     Size  Location     Type
  1254 ;;		None
  1255 ;; Return value:  Size  Location     Type
  1256 ;;                  1    wreg      void 
  1257 ;; Registers used:
  1258 ;;		None
  1259 ;; Tracked objects:
  1260 ;;		On entry : 0/0
  1261 ;;		On exit  : 0/0
  1262 ;;		Unchanged: 0/0
  1263 ;; Data sizes:     COMMON   BANK0   BANK1
  1264 ;;      Params:         0       0       0
  1265 ;;      Locals:         0       0       0
  1266 ;;      Temps:          0       0       0
  1267 ;;      Totals:         0       0       0
  1268 ;;Total ram usage:        0 bytes
  1269 ;; Hardware stack levels used:    1
  1270 ;; Hardware stack levels required when called:    6
  1271 ;; This function calls:
  1272 ;;		Nothing
  1273 ;; This function is called by:
  1274 ;;		_main
  1275 ;; This function uses a non-reentrant model
  1276 ;;
  1277                           
  1278                           
  1279                           ;psect for function _wait
  1280  0002                     _wait:	
  1281  0002                     l89:	
  1282                           ;incstack = 0
  1283                           ; Regs used in _wait: []
  1284                           ;termometroDiferencial.c: 30:     while (1);
  1285                           
  1286  0002                     l90:	
  1287  0002  2802               	goto	l89
  1288  0003  0008               	return
  1289  0004                     __end_of_wait:	
  1290                           
  1291                           	psect	text2
  1292  0BA1                     __ptext2:	
  1293 ;; *************** function _showTemp *****************
  1294 ;; Defined at:
  1295 ;;		line 405 in file "termometroDiferencial.c"
  1296 ;; Parameters:    Size  Location     Type
  1297 ;;		None
  1298 ;; Auto vars:     Size  Location     Type
  1299 ;;  temp            2   49[BANK1 ] int 
  1300 ;; Return value:  Size  Location     Type
  1301 ;;                  1    wreg      void 
  1302 ;; Registers used:
  1303 ;;		wreg, fsr0l, fsr0h, status,2, status,0, btemp+1, pclath, cstack
  1304 ;; Tracked objects:
  1305 ;;		On entry : 0/0
  1306 ;;		On exit  : 0/0
  1307 ;;		Unchanged: 0/0
  1308 ;; Data sizes:     COMMON   BANK0   BANK1
  1309 ;;      Params:         0       0       0
  1310 ;;      Locals:         0       0       2
  1311 ;;      Temps:          0       0       2
  1312 ;;      Totals:         0       0       4
  1313 ;;Total ram usage:        4 bytes
  1314 ;; Hardware stack levels used:    1
  1315 ;; Hardware stack levels required when called:   11
  1316 ;; This function calls:
  1317 ;;		_ZeroSequenceKeyboard
  1318 ;;		_getTemperatureInt
  1319 ;;		_getTemperatureString
  1320 ;;		_isItHot
  1321 ;;		_send
  1322 ;;		_writeOnLCD
  1323 ;; This function is called by:
  1324 ;;		_main
  1325 ;; This function uses a non-reentrant model
  1326 ;;
  1327                           
  1328                           
  1329                           ;psect for function _showTemp
  1330  0BA1                     _showTemp:	
  1331  0BA1                     l2862:	
  1332                           ;incstack = 0
  1333 ;; hardware stack exceeded
  1334                           ; Regs used in _showTemp: [wreg-fsr0h+status,2+status,0+btemp+1+pclath+cstack]
  1335                           
  1336                           
  1337                           ;termometroDiferencial.c: 407:     int temp = getTemperatureInt();
  1338  0BA1  158A  24D4  158A   	fcall	_getTemperatureInt
  1339  0BA4  1683               	bsf	3,5	;RP0=1, select bank1
  1340  0BA5  1303               	bcf	3,6	;RP1=0, select bank1
  1341  0BA6  083F               	movf	(?_getTemperatureInt+1)^(0+128),w
  1342  0BA7  00D2               	movwf	(showTemp@temp+1)^(0+128)
  1343  0BA8  083E               	movf	?_getTemperatureInt^(0+128),w
  1344  0BA9  00D1               	movwf	showTemp@temp^(0+128)
  1345  0BAA                     l2864:	
  1346                           
  1347                           ;termometroDiferencial.c: 409:     if (isItHot(temp)) {
  1348  0BAA  0852               	movf	(showTemp@temp+1)^(0+128),w
  1349  0BAB  1283               	bcf	3,5	;RP0=0, select bank0
  1350  0BAC  1303               	bcf	3,6	;RP1=0, select bank0
  1351  0BAD  00BB               	movwf	isItHot@temp+1
  1352  0BAE  1683               	bsf	3,5	;RP0=1, select bank1
  1353  0BAF  1303               	bcf	3,6	;RP1=0, select bank1
  1354  0BB0  0851               	movf	showTemp@temp^(0+128),w
  1355  0BB1  1283               	bcf	3,5	;RP0=0, select bank0
  1356  0BB2  1303               	bcf	3,6	;RP1=0, select bank0
  1357  0BB3  00BA               	movwf	isItHot@temp
  1358  0BB4  158A  219F  158A   	fcall	_isItHot
  1359  0BB7  1283               	bcf	3,5	;RP0=0, select bank0
  1360  0BB8  1303               	bcf	3,6	;RP1=0, select bank0
  1361  0BB9  083A               	movf	?_isItHot,w
  1362  0BBA  043B               	iorwf	?_isItHot+1,w
  1363  0BBB  1903               	btfsc	3,2
  1364  0BBC  2BBE               	goto	u3331
  1365  0BBD  2BBF               	goto	u3330
  1366  0BBE                     u3331:	
  1367  0BBE  2BC2               	goto	l213
  1368  0BBF                     u3330:	
  1369  0BBF                     l2866:	
  1370                           
  1371                           ;termometroDiferencial.c: 410:         send();
  1372  0BBF  158A  2183  158A   	fcall	_send
  1373  0BC2                     l213:	
  1374                           ;termometroDiferencial.c: 411:     }
  1375                           
  1376                           
  1377                           ;termometroDiferencial.c: 412:     writeOnLCD(getTemperatureString());
  1378  0BC2  158A  2521  158A   	fcall	_getTemperatureString
  1379  0BC5  1683               	bsf	3,5	;RP0=1, select bank1
  1380  0BC6  1303               	bcf	3,6	;RP1=0, select bank1
  1381  0BC7  00CF               	movwf	??_showTemp^(0+128)
  1382  0BC8  01D0               	clrf	(??_showTemp^(0+128)+1)
  1383  0BC9  084F               	movf	??_showTemp^(0+128),w
  1384  0BCA  00CD               	movwf	writeOnLCD@word^(0+128)
  1385  0BCB  0850               	movf	(??_showTemp^(0+128)+1),w
  1386  0BCC  00CE               	movwf	(writeOnLCD@word+1)^(0+128)
  1387  0BCD  158A  20EB  158A   	fcall	_writeOnLCD
  1388  0BD0                     l2868:	
  1389                           
  1390                           ;termometroDiferencial.c: 413:     ZeroSequenceKeyboard();
  1391  0BD0  118A  27F5  158A   	fcall	_ZeroSequenceKeyboard
  1392  0BD3                     l214:	
  1393  0BD3  0008               	return
  1394  0BD4                     __end_of_showTemp:	
  1395                           
  1396                           	psect	text3
  1397  0D21                     __ptext3:	
  1398 ;; *************** function _getTemperatureString *****************
  1399 ;; Defined at:
  1400 ;;		line 183 in file "termometroDiferencial.c"
  1401 ;; Parameters:    Size  Location     Type
  1402 ;;		None
  1403 ;; Auto vars:     Size  Location     Type
  1404 ;;  str            12   31[BANK1 ] unsigned char [12]
  1405 ;;  temp            2   43[BANK1 ] unsigned int 
  1406 ;; Return value:  Size  Location     Type
  1407 ;;                  1    wreg      unsigned char 
  1408 ;; Registers used:
  1409 ;;		wreg, fsr0l, fsr0h, status,2, status,0, btemp+1, pclath, cstack
  1410 ;; Tracked objects:
  1411 ;;		On entry : 0/0
  1412 ;;		On exit  : 0/0
  1413 ;;		Unchanged: 0/0
  1414 ;; Data sizes:     COMMON   BANK0   BANK1
  1415 ;;      Params:         0       0       0
  1416 ;;      Locals:         0       0      14
  1417 ;;      Temps:          0       0       1
  1418 ;;      Totals:         0       0      15
  1419 ;;Total ram usage:       15 bytes
  1420 ;; Hardware stack levels used:    1
  1421 ;; Hardware stack levels required when called:    8
  1422 ;; This function calls:
  1423 ;;		___flmul
  1424 ;;		___fltol
  1425 ;;		___xxtofl
  1426 ;;		_getVoltaje
  1427 ;;		_sprintf
  1428 ;;		_strcat
  1429 ;; This function is called by:
  1430 ;;		_showTemp
  1431 ;; This function uses a non-reentrant model
  1432 ;;
  1433                           
  1434                           
  1435                           ;psect for function _getTemperatureString
  1436  0D21                     _getTemperatureString:	
  1437  0D21                     l2826:	
  1438                           ;incstack = 0
  1439 ;; hardware stack exceeded
  1440                           ; Regs used in _getTemperatureString: [wreg-fsr0h+status,2+status,0+btemp+1+pclath+cstac
      +                          k]
  1441                           
  1442                           
  1443                           ;termometroDiferencial.c: 184:     unsigned int temp;;termometroDiferencial.c: 185:     
      +                          temp = getVoltaje()*0.4887585532746823;
  1444  0D21  158A  20FB  158A   	fcall	_getVoltaje
  1445  0D24  1283               	bcf	3,5	;RP0=0, select bank0
  1446  0D25  1303               	bcf	3,6	;RP1=0, select bank0
  1447  0D26  083A               	movf	?_getVoltaje,w
  1448  0D27  00BC               	movwf	___xxtofl@val
  1449  0D28  083B               	movf	?_getVoltaje+1,w
  1450  0D29  00BD               	movwf	___xxtofl@val+1
  1451  0D2A  3000               	movlw	0
  1452  0D2B  1BBD               	btfsc	___xxtofl@val+1,7
  1453  0D2C  30FF               	movlw	255
  1454  0D2D  00BE               	movwf	___xxtofl@val+2
  1455  0D2E  00BF               	movwf	___xxtofl@val+3
  1456  0D2F  3001               	movlw	1
  1457  0D30  158A  2744  158A   	fcall	___xxtofl
  1458  0D33  1283               	bcf	3,5	;RP0=0, select bank0
  1459  0D34  1303               	bcf	3,6	;RP1=0, select bank0
  1460  0D35  083F               	movf	?___xxtofl+3,w
  1461  0D36  1683               	bsf	3,5	;RP0=1, select bank1
  1462  0D37  1303               	bcf	3,6	;RP1=0, select bank1
  1463  0D38  00A7               	movwf	(___flmul@a+3)^(0+128)
  1464  0D39  1283               	bcf	3,5	;RP0=0, select bank0
  1465  0D3A  1303               	bcf	3,6	;RP1=0, select bank0
  1466  0D3B  083E               	movf	?___xxtofl+2,w
  1467  0D3C  1683               	bsf	3,5	;RP0=1, select bank1
  1468  0D3D  1303               	bcf	3,6	;RP1=0, select bank1
  1469  0D3E  00A6               	movwf	(___flmul@a+2)^(0+128)
  1470  0D3F  1283               	bcf	3,5	;RP0=0, select bank0
  1471  0D40  1303               	bcf	3,6	;RP1=0, select bank0
  1472  0D41  083D               	movf	?___xxtofl+1,w
  1473  0D42  1683               	bsf	3,5	;RP0=1, select bank1
  1474  0D43  1303               	bcf	3,6	;RP1=0, select bank1
  1475  0D44  00A5               	movwf	(___flmul@a+1)^(0+128)
  1476  0D45  1283               	bcf	3,5	;RP0=0, select bank0
  1477  0D46  1303               	bcf	3,6	;RP1=0, select bank0
  1478  0D47  083C               	movf	?___xxtofl,w
  1479  0D48  1683               	bsf	3,5	;RP0=1, select bank1
  1480  0D49  1303               	bcf	3,6	;RP1=0, select bank1
  1481  0D4A  00A4               	movwf	___flmul@a^(0+128)
  1482  0D4B  303E               	movlw	62
  1483  0D4C  00A3               	movwf	(___flmul@b+3)^(0+128)
  1484  0D4D  30FA               	movlw	250
  1485  0D4E  00A2               	movwf	(___flmul@b+2)^(0+128)
  1486  0D4F  303E               	movlw	62
  1487  0D50  00A1               	movwf	(___flmul@b+1)^(0+128)
  1488  0D51  3090               	movlw	144
  1489  0D52  00A0               	movwf	___flmul@b^(0+128)
  1490  0D53  118A  203A  158A   	fcall	___flmul
  1491  0D56  1683               	bsf	3,5	;RP0=1, select bank1
  1492  0D57  1303               	bcf	3,6	;RP1=0, select bank1
  1493  0D58  0823               	movf	(?___flmul+3)^(0+128),w
  1494  0D59  00B8               	movwf	(___fltol@f1+3)^(0+128)
  1495  0D5A  0822               	movf	(?___flmul+2)^(0+128),w
  1496  0D5B  00B7               	movwf	(___fltol@f1+2)^(0+128)
  1497  0D5C  0821               	movf	(?___flmul+1)^(0+128),w
  1498  0D5D  00B6               	movwf	(___fltol@f1+1)^(0+128)
  1499  0D5E  0820               	movf	?___flmul^(0+128),w
  1500  0D5F  00B5               	movwf	___fltol@f1^(0+128)
  1501  0D60  158A  260C  158A   	fcall	___fltol
  1502  0D63  1683               	bsf	3,5	;RP0=1, select bank1
  1503  0D64  1303               	bcf	3,6	;RP1=0, select bank1
  1504  0D65  0836               	movf	(?___fltol+1)^(0+128),w
  1505  0D66  00CC               	movwf	(getTemperatureString@temp+1)^(0+128)
  1506  0D67  0835               	movf	?___fltol^(0+128),w
  1507  0D68  00CB               	movwf	getTemperatureString@temp^(0+128)
  1508  0D69                     l2828:	
  1509                           
  1510                           ;termometroDiferencial.c: 186:     char str[12];;termometroDiferencial.c: 187:     sprin
      +                          tf(str, "%d", temp);
  1511  0D69  3024               	movlw	(low ((STR_1-__stringbase)| (0+32768)))& (0+255)
  1512  0D6A  00BE               	movwf	??_getTemperatureString^(0+128)
  1513  0D6B  083E               	movf	??_getTemperatureString^(0+128),w
  1514  0D6C  1283               	bcf	3,5	;RP0=0, select bank0
  1515  0D6D  1303               	bcf	3,6	;RP1=0, select bank0
  1516  0D6E  00C8               	movwf	sprintf@f
  1517  0D6F  1683               	bsf	3,5	;RP0=1, select bank1
  1518  0D70  1303               	bcf	3,6	;RP1=0, select bank1
  1519  0D71  084C               	movf	(getTemperatureString@temp+1)^(0+128),w
  1520  0D72  1283               	bcf	3,5	;RP0=0, select bank0
  1521  0D73  1303               	bcf	3,6	;RP1=0, select bank0
  1522  0D74  00CA               	movwf	?_sprintf+2
  1523  0D75  1683               	bsf	3,5	;RP0=1, select bank1
  1524  0D76  1303               	bcf	3,6	;RP1=0, select bank1
  1525  0D77  084B               	movf	getTemperatureString@temp^(0+128),w
  1526  0D78  1283               	bcf	3,5	;RP0=0, select bank0
  1527  0D79  1303               	bcf	3,6	;RP1=0, select bank0
  1528  0D7A  00C9               	movwf	?_sprintf+1
  1529  0D7B  30BF               	movlw	(low (getTemperatureString@str| 0))& (0+255)
  1530  0D7C  118A  257D  158A   	fcall	_sprintf
  1531  0D7F                     l2830:	
  1532                           
  1533                           ;termometroDiferencial.c: 188:     strcat(str, "'C");
  1534  0D7F  3021               	movlw	(low (((STR_5+2)-__stringbase)| (0+32768)))& (0+255)
  1535  0D80  1683               	bsf	3,5	;RP0=1, select bank1
  1536  0D81  1303               	bcf	3,6	;RP1=0, select bank1
  1537  0D82  00BE               	movwf	??_getTemperatureString^(0+128)
  1538  0D83  083E               	movf	??_getTemperatureString^(0+128),w
  1539  0D84  1283               	bcf	3,5	;RP0=0, select bank0
  1540  0D85  1303               	bcf	3,6	;RP1=0, select bank0
  1541  0D86  00BA               	movwf	strcat@from
  1542  0D87  30BF               	movlw	(low (getTemperatureString@str| 0))& (0+255)
  1543  0D88  158A  2313  158A   	fcall	_strcat
  1544  0D8B                     l2832:	
  1545                           
  1546                           ;termometroDiferencial.c: 190:     return str;
  1547  0D8B  30BF               	movlw	(low getTemperatureString@str)& (0+255)
  1548  0D8C                     l137:	
  1549  0D8C  0008               	return
  1550  0D8D                     __end_of_getTemperatureString:	
  1551                           
  1552                           	psect	text4
  1553  0B13                     __ptext4:	
  1554 ;; *************** function _strcat *****************
  1555 ;; Defined at:
  1556 ;;		line 8 in file "C:\Program Files (x86)\Microchip\xc8\v2.10\pic\sources\c90\common\strcat.c"
  1557 ;; Parameters:    Size  Location     Type
  1558 ;;  to              1    wreg     PTR unsigned char 
  1559 ;;		 -> getTemperatureString@str(12), 
  1560 ;;  from            1   26[BANK0 ] PTR const unsigned char 
  1561 ;;		 -> STR_2(3), 
  1562 ;; Auto vars:     Size  Location     Type
  1563 ;;  to              1   28[BANK0 ] PTR unsigned char 
  1564 ;;		 -> getTemperatureString@str(12), 
  1565 ;;  cp              1   29[BANK0 ] PTR unsigned char 
  1566 ;;		 -> getTemperatureString@str(12), 
  1567 ;; Return value:  Size  Location     Type
  1568 ;;                  1    wreg      PTR unsigned char 
  1569 ;; Registers used:
  1570 ;;		wreg, fsr0l, fsr0h, status,2, status,0, pclath
  1571 ;; Tracked objects:
  1572 ;;		On entry : 0/0
  1573 ;;		On exit  : 0/0
  1574 ;;		Unchanged: 0/0
  1575 ;; Data sizes:     COMMON   BANK0   BANK1
  1576 ;;      Params:         0       1       0
  1577 ;;      Locals:         0       2       0
  1578 ;;      Temps:          0       1       0
  1579 ;;      Totals:         0       4       0
  1580 ;;Total ram usage:        4 bytes
  1581 ;; Hardware stack levels used:    1
  1582 ;; Hardware stack levels required when called:    6
  1583 ;; This function calls:
  1584 ;;		Nothing
  1585 ;; This function is called by:
  1586 ;;		_getTemperatureString
  1587 ;; This function uses a non-reentrant model
  1588 ;;
  1589                           
  1590                           
  1591                           ;psect for function _strcat
  1592  0B13                     _strcat:	
  1593                           
  1594                           ;incstack = 0
  1595 ;; hardware stack exceeded
  1596                           ; Regs used in _strcat: [wreg-fsr0h+status,2+status,0+pclath]
  1597                           ;strcat@to stored from wreg
  1598  0B13  1283               	bcf	3,5	;RP0=0, select bank0
  1599  0B14  1303               	bcf	3,6	;RP1=0, select bank0
  1600  0B15  00BC               	movwf	strcat@to
  1601  0B16                     l1922:	
  1602  0B16  083C               	movf	strcat@to,w
  1603  0B17  00BB               	movwf	??_strcat
  1604  0B18  083B               	movf	??_strcat,w
  1605  0B19  00BD               	movwf	strcat@cp
  1606  0B1A  2B1F               	goto	l1926
  1607  0B1B                     l1924:	
  1608  0B1B  3001               	movlw	1
  1609  0B1C  00BB               	movwf	??_strcat
  1610  0B1D  083B               	movf	??_strcat,w
  1611  0B1E  07BD               	addwf	strcat@cp,f
  1612  0B1F                     l1926:	
  1613  0B1F  083D               	movf	strcat@cp,w
  1614  0B20  0084               	movwf	4
  1615  0B21  1383               	bcf	3,7	;select IRP bank0
  1616  0B22  0800               	movf	0,w
  1617  0B23  1D03               	btfss	3,2
  1618  0B24  2B26               	goto	u1651
  1619  0B25  2B27               	goto	u1650
  1620  0B26                     u1651:	
  1621  0B26  2B1B               	goto	l1924
  1622  0B27                     u1650:	
  1623  0B27  2B30               	goto	l1930
  1624  0B28                     l1928:	
  1625  0B28  3001               	movlw	1
  1626  0B29  00BB               	movwf	??_strcat
  1627  0B2A  083B               	movf	??_strcat,w
  1628  0B2B  07BD               	addwf	strcat@cp,f
  1629  0B2C  3001               	movlw	1
  1630  0B2D  00BB               	movwf	??_strcat
  1631  0B2E  083B               	movf	??_strcat,w
  1632  0B2F  07BA               	addwf	strcat@from,f
  1633  0B30                     l1930:	
  1634  0B30  083A               	movf	strcat@from,w
  1635  0B31  0084               	movwf	4
  1636  0B32  158A  200A  158A   	fcall	stringdir
  1637  0B35  00BB               	movwf	??_strcat
  1638  0B36  083D               	movf	strcat@cp,w
  1639  0B37  0084               	movwf	4
  1640  0B38  083B               	movf	??_strcat,w
  1641  0B39  0080               	movwf	0
  1642  0B3A  0800               	movf	0,w
  1643  0B3B  1D03               	btfss	3,2
  1644  0B3C  2B3E               	goto	u1661
  1645  0B3D  2B3F               	goto	u1660
  1646  0B3E                     u1661:	
  1647  0B3E  2B28               	goto	l1928
  1648  0B3F                     u1660:	
  1649  0B3F                     l818:	
  1650  0B3F  0008               	return
  1651  0B40                     __end_of_strcat:	
  1652                           
  1653                           	psect	text5
  1654  0E9E                     __ptext5:	
  1655 ;; *************** function _showDifferenceTemp *****************
  1656 ;; Defined at:
  1657 ;;		line 374 in file "termometroDiferencial.c"
  1658 ;; Parameters:    Size  Location     Type
  1659 ;;		None
  1660 ;; Auto vars:     Size  Location     Type
  1661 ;;  tempDifferen    5   49[BANK1 ] unsigned char [5]
  1662 ;;  tempDif         2   58[BANK1 ] unsigned int 
  1663 ;;  temp2           2   56[BANK1 ] unsigned int 
  1664 ;;  temp1           2   54[BANK1 ] unsigned int 
  1665 ;; Return value:  Size  Location     Type
  1666 ;;                  1    wreg      void 
  1667 ;; Registers used:
  1668 ;;		wreg, fsr0l, fsr0h, status,2, status,0, btemp+1, pclath, cstack
  1669 ;; Tracked objects:
  1670 ;;		On entry : 0/0
  1671 ;;		On exit  : 0/0
  1672 ;;		Unchanged: 0/0
  1673 ;; Data sizes:     COMMON   BANK0   BANK1
  1674 ;;      Params:         0       0       0
  1675 ;;      Locals:         0       0      11
  1676 ;;      Temps:          0       0       2
  1677 ;;      Totals:         0       0      13
  1678 ;;Total ram usage:       13 bytes
  1679 ;; Hardware stack levels used:    1
  1680 ;; Hardware stack levels required when called:   11
  1681 ;; This function calls:
  1682 ;;		_ZeroSequenceKeyboard
  1683 ;;		_changeThermometerChannel
  1684 ;;		_getTemperatureInt
  1685 ;;		_isItHot
  1686 ;;		_send
  1687 ;;		_sprintf
  1688 ;;		_writeOnLCD
  1689 ;; This function is called by:
  1690 ;;		_main
  1691 ;; This function uses a non-reentrant model
  1692 ;;
  1693                           
  1694                           
  1695                           ;psect for function _showDifferenceTemp
  1696  0E9E                     _showDifferenceTemp:	
  1697  0E9E                     l2836:	
  1698                           ;incstack = 0
  1699 ;; hardware stack exceeded
  1700                           ; Regs used in _showDifferenceTemp: [wreg-fsr0h+status,2+status,0+btemp+1+pclath+cstack]
  1701                           
  1702                           
  1703                           ;termometroDiferencial.c: 376:     char tempDifference[5];;termometroDiferencial.c: 377:
      +                               unsigned int tempDif;;termometroDiferencial.c: 378:     changeThermometerChannel(1)
      +                          ;
  1704  0E9E  3001               	movlw	1
  1705  0E9F  1283               	bcf	3,5	;RP0=0, select bank0
  1706  0EA0  1303               	bcf	3,6	;RP1=0, select bank0
  1707  0EA1  00BA               	movwf	changeThermometerChannel@channel
  1708  0EA2  3000               	movlw	0
  1709  0EA3  00BB               	movwf	changeThermometerChannel@channel+1
  1710  0EA4  158A  20AE  158A   	fcall	_changeThermometerChannel
  1711  0EA7                     l2838:	
  1712                           
  1713                           ;termometroDiferencial.c: 379:     _delay((unsigned long)((50)*(4000000/4000.0)));
  1714  0EA7  3041               	movlw	65
  1715  0EA8  1683               	bsf	3,5	;RP0=1, select bank1
  1716  0EA9  1303               	bcf	3,6	;RP1=0, select bank1
  1717  0EAA  00D0               	movwf	(??_showDifferenceTemp^(0+128)+1)
  1718  0EAB  30EE               	movlw	238
  1719  0EAC  00CF               	movwf	??_showDifferenceTemp^(0+128)
  1720  0EAD                     u3407:	
  1721  0EAD  0BCF               	decfsz	??_showDifferenceTemp^(0+128),f
  1722  0EAE  2EAD               	goto	u3407
  1723  0EAF  0BD0               	decfsz	(??_showDifferenceTemp^(0+128)+1),f
  1724  0EB0  2EAD               	goto	u3407
  1725  0EB1                     l2840:	
  1726                           
  1727                           ;termometroDiferencial.c: 380:     unsigned int temp1 = getTemperatureInt();
  1728  0EB1  158A  24D4  158A   	fcall	_getTemperatureInt
  1729  0EB4  1683               	bsf	3,5	;RP0=1, select bank1
  1730  0EB5  1303               	bcf	3,6	;RP1=0, select bank1
  1731  0EB6  083F               	movf	(?_getTemperatureInt+1)^(0+128),w
  1732  0EB7  00D7               	movwf	(showDifferenceTemp@temp1+1)^(0+128)
  1733  0EB8  083E               	movf	?_getTemperatureInt^(0+128),w
  1734  0EB9  00D6               	movwf	showDifferenceTemp@temp1^(0+128)
  1735  0EBA                     l2842:	
  1736                           
  1737                           ;termometroDiferencial.c: 382:     changeThermometerChannel(2);
  1738  0EBA  3002               	movlw	2
  1739  0EBB  1283               	bcf	3,5	;RP0=0, select bank0
  1740  0EBC  1303               	bcf	3,6	;RP1=0, select bank0
  1741  0EBD  00BA               	movwf	changeThermometerChannel@channel
  1742  0EBE  3000               	movlw	0
  1743  0EBF  00BB               	movwf	changeThermometerChannel@channel+1
  1744  0EC0  158A  20AE  158A   	fcall	_changeThermometerChannel
  1745  0EC3                     l2844:	
  1746                           
  1747                           ;termometroDiferencial.c: 383:     _delay((unsigned long)((50)*(4000000/4000.0)));
  1748  0EC3  3041               	movlw	65
  1749  0EC4  1683               	bsf	3,5	;RP0=1, select bank1
  1750  0EC5  1303               	bcf	3,6	;RP1=0, select bank1
  1751  0EC6  00D0               	movwf	(??_showDifferenceTemp^(0+128)+1)
  1752  0EC7  30EE               	movlw	238
  1753  0EC8  00CF               	movwf	??_showDifferenceTemp^(0+128)
  1754  0EC9                     u3417:	
  1755  0EC9  0BCF               	decfsz	??_showDifferenceTemp^(0+128),f
  1756  0ECA  2EC9               	goto	u3417
  1757  0ECB  0BD0               	decfsz	(??_showDifferenceTemp^(0+128)+1),f
  1758  0ECC  2EC9               	goto	u3417
  1759                           
  1760                           ;termometroDiferencial.c: 384:     unsigned int temp2 = getTemperatureInt();
  1761  0ECD  158A  24D4  158A   	fcall	_getTemperatureInt
  1762  0ED0  1683               	bsf	3,5	;RP0=1, select bank1
  1763  0ED1  1303               	bcf	3,6	;RP1=0, select bank1
  1764  0ED2  083F               	movf	(?_getTemperatureInt+1)^(0+128),w
  1765  0ED3  00D9               	movwf	(showDifferenceTemp@temp2+1)^(0+128)
  1766  0ED4  083E               	movf	?_getTemperatureInt^(0+128),w
  1767  0ED5  00D8               	movwf	showDifferenceTemp@temp2^(0+128)
  1768  0ED6                     l2846:	
  1769                           
  1770                           ;termometroDiferencial.c: 386:     if (temp1 > temp2) {
  1771  0ED6  0857               	movf	(showDifferenceTemp@temp1+1)^(0+128),w
  1772  0ED7  0259               	subwf	(showDifferenceTemp@temp2+1)^(0+128),w
  1773  0ED8  1D03               	skipz
  1774  0ED9  2EDC               	goto	u3315
  1775  0EDA  0856               	movf	showDifferenceTemp@temp1^(0+128),w
  1776  0EDB  0258               	subwf	showDifferenceTemp@temp2^(0+128),w
  1777  0EDC                     u3315:	
  1778  0EDC  1803               	skipnc
  1779  0EDD  2EDF               	goto	u3311
  1780  0EDE  2EE0               	goto	u3310
  1781  0EDF                     u3311:	
  1782  0EDF  2EFF               	goto	l2852
  1783  0EE0                     u3310:	
  1784  0EE0                     l2848:	
  1785                           
  1786                           ;termometroDiferencial.c: 387:         tempDif = temp1 - temp2;
  1787  0EE0  0858               	movf	showDifferenceTemp@temp2^(0+128),w
  1788  0EE1  0256               	subwf	showDifferenceTemp@temp1^(0+128),w
  1789  0EE2  00DA               	movwf	showDifferenceTemp@tempDif^(0+128)
  1790  0EE3  0859               	movf	(showDifferenceTemp@temp2+1)^(0+128),w
  1791  0EE4  1C03               	skipc
  1792  0EE5  0A59               	incf	(showDifferenceTemp@temp2+1)^(0+128),w
  1793  0EE6  0257               	subwf	(showDifferenceTemp@temp1+1)^(0+128),w
  1794  0EE7  00DB               	movwf	(showDifferenceTemp@tempDif+1)^(0+128)
  1795  0EE8                     l2850:	
  1796                           
  1797                           ;termometroDiferencial.c: 388:         sprintf(tempDifference, "%d'C", (tempDif));
  1798  0EE8  301F               	movlw	(low ((STR_5-__stringbase)| (0+32768)))& (0+255)
  1799  0EE9  00CF               	movwf	??_showDifferenceTemp^(0+128)
  1800  0EEA  084F               	movf	??_showDifferenceTemp^(0+128),w
  1801  0EEB  1283               	bcf	3,5	;RP0=0, select bank0
  1802  0EEC  1303               	bcf	3,6	;RP1=0, select bank0
  1803  0EED  00C8               	movwf	sprintf@f
  1804  0EEE  1683               	bsf	3,5	;RP0=1, select bank1
  1805  0EEF  1303               	bcf	3,6	;RP1=0, select bank1
  1806  0EF0  085B               	movf	(showDifferenceTemp@tempDif+1)^(0+128),w
  1807  0EF1  1283               	bcf	3,5	;RP0=0, select bank0
  1808  0EF2  1303               	bcf	3,6	;RP1=0, select bank0
  1809  0EF3  00CA               	movwf	?_sprintf+2
  1810  0EF4  1683               	bsf	3,5	;RP0=1, select bank1
  1811  0EF5  1303               	bcf	3,6	;RP1=0, select bank1
  1812  0EF6  085A               	movf	showDifferenceTemp@tempDif^(0+128),w
  1813  0EF7  1283               	bcf	3,5	;RP0=0, select bank0
  1814  0EF8  1303               	bcf	3,6	;RP1=0, select bank0
  1815  0EF9  00C9               	movwf	?_sprintf+1
  1816  0EFA  30D1               	movlw	(low (showDifferenceTemp@tempDifference| 0))& (0+255)
  1817  0EFB  118A  257D  158A   	fcall	_sprintf
  1818                           
  1819                           ;termometroDiferencial.c: 389:     } else {
  1820  0EFE  2F1D               	goto	l2856
  1821  0EFF                     l2852:	
  1822                           
  1823                           ;termometroDiferencial.c: 390:         tempDif = temp2 - temp1;
  1824  0EFF  0856               	movf	showDifferenceTemp@temp1^(0+128),w
  1825  0F00  0258               	subwf	showDifferenceTemp@temp2^(0+128),w
  1826  0F01  00DA               	movwf	showDifferenceTemp@tempDif^(0+128)
  1827  0F02  0857               	movf	(showDifferenceTemp@temp1+1)^(0+128),w
  1828  0F03  1C03               	skipc
  1829  0F04  0A57               	incf	(showDifferenceTemp@temp1+1)^(0+128),w
  1830  0F05  0259               	subwf	(showDifferenceTemp@temp2+1)^(0+128),w
  1831  0F06  00DB               	movwf	(showDifferenceTemp@tempDif+1)^(0+128)
  1832  0F07                     l2854:	
  1833                           
  1834                           ;termometroDiferencial.c: 391:         sprintf(tempDifference, "%d'C", (tempDif));
  1835  0F07  301F               	movlw	(low ((STR_5-__stringbase)| (0+32768)))& (0+255)
  1836  0F08  00CF               	movwf	??_showDifferenceTemp^(0+128)
  1837  0F09  084F               	movf	??_showDifferenceTemp^(0+128),w
  1838  0F0A  1283               	bcf	3,5	;RP0=0, select bank0
  1839  0F0B  1303               	bcf	3,6	;RP1=0, select bank0
  1840  0F0C  00C8               	movwf	sprintf@f
  1841  0F0D  1683               	bsf	3,5	;RP0=1, select bank1
  1842  0F0E  1303               	bcf	3,6	;RP1=0, select bank1
  1843  0F0F  085B               	movf	(showDifferenceTemp@tempDif+1)^(0+128),w
  1844  0F10  1283               	bcf	3,5	;RP0=0, select bank0
  1845  0F11  1303               	bcf	3,6	;RP1=0, select bank0
  1846  0F12  00CA               	movwf	?_sprintf+2
  1847  0F13  1683               	bsf	3,5	;RP0=1, select bank1
  1848  0F14  1303               	bcf	3,6	;RP1=0, select bank1
  1849  0F15  085A               	movf	showDifferenceTemp@tempDif^(0+128),w
  1850  0F16  1283               	bcf	3,5	;RP0=0, select bank0
  1851  0F17  1303               	bcf	3,6	;RP1=0, select bank0
  1852  0F18  00C9               	movwf	?_sprintf+1
  1853  0F19  30D1               	movlw	(low (showDifferenceTemp@tempDifference| 0))& (0+255)
  1854  0F1A  118A  257D  158A   	fcall	_sprintf
  1855  0F1D                     l2856:	
  1856                           
  1857                           ;termometroDiferencial.c: 394:     if (isItHot(tempDif)) {
  1858  0F1D  1683               	bsf	3,5	;RP0=1, select bank1
  1859  0F1E  1303               	bcf	3,6	;RP1=0, select bank1
  1860  0F1F  085B               	movf	(showDifferenceTemp@tempDif+1)^(0+128),w
  1861  0F20  1283               	bcf	3,5	;RP0=0, select bank0
  1862  0F21  1303               	bcf	3,6	;RP1=0, select bank0
  1863  0F22  00BB               	movwf	isItHot@temp+1
  1864  0F23  1683               	bsf	3,5	;RP0=1, select bank1
  1865  0F24  1303               	bcf	3,6	;RP1=0, select bank1
  1866  0F25  085A               	movf	showDifferenceTemp@tempDif^(0+128),w
  1867  0F26  1283               	bcf	3,5	;RP0=0, select bank0
  1868  0F27  1303               	bcf	3,6	;RP1=0, select bank0
  1869  0F28  00BA               	movwf	isItHot@temp
  1870  0F29  158A  219F  158A   	fcall	_isItHot
  1871  0F2C  1283               	bcf	3,5	;RP0=0, select bank0
  1872  0F2D  1303               	bcf	3,6	;RP1=0, select bank0
  1873  0F2E  083A               	movf	?_isItHot,w
  1874  0F2F  043B               	iorwf	?_isItHot+1,w
  1875  0F30  1903               	btfsc	3,2
  1876  0F31  2F33               	goto	u3321
  1877  0F32  2F34               	goto	u3320
  1878  0F33                     u3321:	
  1879  0F33  2F37               	goto	l209
  1880  0F34                     u3320:	
  1881  0F34                     l2858:	
  1882                           
  1883                           ;termometroDiferencial.c: 395:         send();
  1884  0F34  158A  2183  158A   	fcall	_send
  1885  0F37                     l209:	
  1886                           ;termometroDiferencial.c: 396:     }
  1887                           
  1888                           
  1889                           ;termometroDiferencial.c: 398:     writeOnLCD(tempDifference);
  1890  0F37  30D1               	movlw	(low (showDifferenceTemp@tempDifference| 0))& (0+255)
  1891  0F38  1683               	bsf	3,5	;RP0=1, select bank1
  1892  0F39  1303               	bcf	3,6	;RP1=0, select bank1
  1893  0F3A  00CD               	movwf	writeOnLCD@word^(0+128)
  1894  0F3B  3000               	movlw	0
  1895  0F3C  00CE               	movwf	(writeOnLCD@word+1)^(0+128)
  1896  0F3D  158A  20EB  158A   	fcall	_writeOnLCD
  1897  0F40                     l2860:	
  1898                           
  1899                           ;termometroDiferencial.c: 399:     ZeroSequenceKeyboard();
  1900  0F40  118A  27F5  158A   	fcall	_ZeroSequenceKeyboard
  1901  0F43                     l210:	
  1902  0F43  0008               	return
  1903  0F44                     __end_of_showDifferenceTemp:	
  1904                           
  1905                           	psect	text6
  1906  057D                     __ptext6:	
  1907 ;; *************** function _sprintf *****************
  1908 ;; Defined at:
  1909 ;;		line 505 in file "C:\Program Files (x86)\Microchip\xc8\v2.10\pic\sources\c90\common\doprnt.c"
  1910 ;; Parameters:    Size  Location     Type
  1911 ;;  sp              1    wreg     PTR unsigned char 
  1912 ;;		 -> showDifferenceTemp@tempDifference(5), getTemperatureString@str(12), 
  1913 ;;  f               1   40[BANK0 ] PTR const unsigned char 
  1914 ;;		 -> STR_6(5), STR_5(5), STR_1(3), 
  1915 ;; Auto vars:     Size  Location     Type
  1916 ;;  sp              1    5[BANK1 ] PTR unsigned char 
  1917 ;;		 -> showDifferenceTemp@tempDifference(5), getTemperatureString@str(12), 
  1918 ;;  tmpval          4    0        struct .
  1919 ;;  val             2    3[BANK1 ] unsigned int 
  1920 ;;  cp              2    0        PTR const unsigned char 
  1921 ;;  len             2    0        unsigned int 
  1922 ;;  c               1    6[BANK1 ] unsigned char 
  1923 ;;  prec            1    2[BANK1 ] char 
  1924 ;;  flag            1    1[BANK1 ] unsigned char 
  1925 ;;  ap              1    0[BANK1 ] PTR void [1]
  1926 ;;		 -> ?_sprintf(2), 
  1927 ;; Return value:  Size  Location     Type
  1928 ;;                  2   40[BANK0 ] int 
  1929 ;; Registers used:
  1930 ;;		wreg, fsr0l, fsr0h, status,2, status,0, btemp+1, pclath, cstack
  1931 ;; Tracked objects:
  1932 ;;		On entry : 0/0
  1933 ;;		On exit  : 0/0
  1934 ;;		Unchanged: 0/0
  1935 ;; Data sizes:     COMMON   BANK0   BANK1
  1936 ;;      Params:         0       3       0
  1937 ;;      Locals:         0       0       7
  1938 ;;      Temps:          0       3       0
  1939 ;;      Totals:         0       6       7
  1940 ;;Total ram usage:       13 bytes
  1941 ;; Hardware stack levels used:    1
  1942 ;; Hardware stack levels required when called:    7
  1943 ;; This function calls:
  1944 ;;		___lwdiv
  1945 ;;		___lwmod
  1946 ;; This function is called by:
  1947 ;;		_getTemperatureString
  1948 ;;		_showDifferenceTemp
  1949 ;; This function uses a non-reentrant model
  1950 ;;
  1951                           
  1952                           
  1953                           ;psect for function _sprintf
  1954  057D                     _sprintf:	
  1955                           
  1956                           ;incstack = 0
  1957 ;; hardware stack exceeded
  1958                           ; Regs used in _sprintf: [wreg-fsr0h+status,2+status,0+btemp+1+pclath+cstack]
  1959                           ;sprintf@sp stored from wreg
  1960  057D  1683               	bsf	3,5	;RP0=1, select bank1
  1961  057E  1303               	bcf	3,6	;RP1=0, select bank1
  1962  057F  00A5               	movwf	sprintf@sp^(0+128)
  1963  0580                     l2582:	
  1964                           
  1965                           ;C:\Program Files (x86)\Microchip\xc8\v2.10\pic\sources\c90\common\doprnt.c: 505: sprint
      +                          f(char * sp, const char * f, ...);C:\Program Files (x86)\Microchip\xc8\v2.10\pic\sources
      +                          \c90\common\doprnt.c: 506: {;C:\Program Files (x86)\Microchip\xc8\v2.10\pic\sources\c90\
      +                          common\doprnt.c: 507:  va_list ap;;C:\Program Files (x86)\Microchip\xc8\v2.10\pic\source
      +                          s\c90\common\doprnt.c: 512:  char c;;C:\Program Files (x86)\Microchip\xc8\v2.10\pic\sour
      +                          ces\c90\common\doprnt.c: 521:  signed char prec;;C:\Program Files (x86)\Microchip\xc8\v2
      +                          .10\pic\sources\c90\common\doprnt.c: 525:  unsigned char flag;
  1966  0580  3049               	movlw	(low ((?_sprintf| 0+1)))& (0+255)
  1967  0581  1283               	bcf	3,5	;RP0=0, select bank0
  1968  0582  1303               	bcf	3,6	;RP1=0, select bank0
  1969  0583  00CB               	movwf	??_sprintf
  1970  0584  084B               	movf	??_sprintf,w
  1971  0585  1683               	bsf	3,5	;RP0=1, select bank1
  1972  0586  1303               	bcf	3,6	;RP1=0, select bank1
  1973  0587  00A0               	movwf	sprintf@ap^(0+128)
  1974                           
  1975                           ;C:\Program Files (x86)\Microchip\xc8\v2.10\pic\sources\c90\common\doprnt.c: 553:  while
      +                          ((c = *f++)) {
  1976  0588  2E92               	goto	l2634
  1977  0589                     l2584:	
  1978                           
  1979                           ;C:\Program Files (x86)\Microchip\xc8\v2.10\pic\sources\c90\common\doprnt.c: 555:   if(c
      +                           != '%')
  1980  0589  3025               	movlw	37
  1981  058A  0626               	xorwf	sprintf@c^(0+128),w
  1982  058B  1903               	btfsc	3,2
  1983  058C  2D8E               	goto	u2771
  1984  058D  2D8F               	goto	u2770
  1985  058E                     u2771:	
  1986  058E  2DA3               	goto	l2590
  1987  058F                     u2770:	
  1988  058F                     l2586:	
  1989                           
  1990                           ;C:\Program Files (x86)\Microchip\xc8\v2.10\pic\sources\c90\common\doprnt.c: 557:   {;C:
      +                          \Program Files (x86)\Microchip\xc8\v2.10\pic\sources\c90\common\doprnt.c: 558:    ((*sp+
      +                          + = (c)));
  1991  058F  0826               	movf	sprintf@c^(0+128),w
  1992  0590  1283               	bcf	3,5	;RP0=0, select bank0
  1993  0591  1303               	bcf	3,6	;RP1=0, select bank0
  1994  0592  00CB               	movwf	??_sprintf
  1995  0593  1683               	bsf	3,5	;RP0=1, select bank1
  1996  0594  1303               	bcf	3,6	;RP1=0, select bank1
  1997  0595  0825               	movf	sprintf@sp^(0+128),w
  1998  0596  0084               	movwf	4
  1999  0597  1283               	bcf	3,5	;RP0=0, select bank0
  2000  0598  1303               	bcf	3,6	;RP1=0, select bank0
  2001  0599  084B               	movf	??_sprintf,w
  2002  059A  1383               	bcf	3,7	;select IRP bank0
  2003  059B  0080               	movwf	0
  2004  059C                     l2588:	
  2005  059C  3001               	movlw	1
  2006  059D  00CB               	movwf	??_sprintf
  2007  059E  084B               	movf	??_sprintf,w
  2008  059F  1683               	bsf	3,5	;RP0=1, select bank1
  2009  05A0  1303               	bcf	3,6	;RP1=0, select bank1
  2010  05A1  07A5               	addwf	sprintf@sp^(0+128),f
  2011                           
  2012                           ;C:\Program Files (x86)\Microchip\xc8\v2.10\pic\sources\c90\common\doprnt.c: 559:    con
      +                          tinue;
  2013  05A2  2E92               	goto	l2634
  2014  05A3                     l2590:	
  2015                           
  2016                           ;C:\Program Files (x86)\Microchip\xc8\v2.10\pic\sources\c90\common\doprnt.c: 565:   flag
      +                           = 0;
  2017  05A3  01A1               	clrf	sprintf@flag^(0+128)
  2018  05A4                     l2594:	
  2019                           ;C:\Program Files (x86)\Microchip\xc8\v2.10\pic\sources\c90\common\doprnt.c: 661:   swit
      +                          ch(c = *f++) {
  2020                           
  2021  05A4  3001               	movlw	1
  2022  05A5  1283               	bcf	3,5	;RP0=0, select bank0
  2023  05A6  1303               	bcf	3,6	;RP1=0, select bank0
  2024  05A7  07C8               	addwf	sprintf@f,f
  2025  05A8  30FF               	movlw	-1
  2026  05A9  0748               	addwf	sprintf@f,w
  2027  05AA  0084               	movwf	4
  2028  05AB  158A  200A  118A   	fcall	stringdir
  2029  05AE  1683               	bsf	3,5	;RP0=1, select bank1
  2030  05AF  1303               	bcf	3,6	;RP1=0, select bank1
  2031  05B0  00A6               	movwf	sprintf@c^(0+128)
  2032  05B1  1283               	bcf	3,5	;RP0=0, select bank0
  2033  05B2  1303               	bcf	3,6	;RP1=0, select bank0
  2034  05B3  00CB               	movwf	??_sprintf
  2035  05B4  01CC               	clrf	??_sprintf+1
  2036                           
  2037                           ; Switch on 2 bytes has been partitioned into a top level switch of size 1, and 1 sub-sw
      +                          itches
  2038                           ; Switch size 1, requested type "simple"
  2039                           ; Number of cases is 1, Range of values is 0 to 0
  2040                           ; switch strategies available:
  2041                           ; Name         Instructions Cycles
  2042                           ; simple_byte            4     3 (average)
  2043                           ; direct_byte            9     7 (fixed)
  2044                           ; jumptable            260     6 (fixed)
  2045                           ;	Chosen strategy is simple_byte
  2046  05B5  084C               	movf	??_sprintf+1,w
  2047  05B6  3A00               	xorlw	0	; case 0
  2048  05B7  1903               	skipnz
  2049  05B8  2DBA               	goto	l2944
  2050  05B9  2E92               	goto	l2634
  2051  05BA                     l2944:	
  2052                           
  2053                           ; Switch size 1, requested type "simple"
  2054                           ; Number of cases is 3, Range of values is 0 to 105
  2055                           ; switch strategies available:
  2056                           ; Name         Instructions Cycles
  2057                           ; simple_byte           10     6 (average)
  2058                           ; direct_byte          219     7 (fixed)
  2059                           ; jumptable            260     6 (fixed)
  2060                           ;	Chosen strategy is simple_byte
  2061  05BA  084B               	movf	??_sprintf,w
  2062  05BB  3A00               	xorlw	0	; case 0
  2063  05BC  1903               	skipnz
  2064  05BD  2EA5               	goto	l2636
  2065  05BE  3A64               	xorlw	100	; case 100
  2066  05BF  1903               	skipnz
  2067  05C0  2DC5               	goto	l2596
  2068  05C1  3A0D               	xorlw	13	; case 105
  2069  05C2  1903               	skipnz
  2070  05C3  2DC5               	goto	l2596
  2071  05C4  2E92               	goto	l2634
  2072  05C5                     l2596:	
  2073                           
  2074                           ;C:\Program Files (x86)\Microchip\xc8\v2.10\pic\sources\c90\common\doprnt.c: 1279:   {;C
      +                          :\Program Files (x86)\Microchip\xc8\v2.10\pic\sources\c90\common\doprnt.c: 1285:     val
      +                           = (unsigned int)(*(int *)__va_arg((*(int **)ap), (int)0));
  2075  05C5  1683               	bsf	3,5	;RP0=1, select bank1
  2076  05C6  1303               	bcf	3,6	;RP1=0, select bank1
  2077  05C7  0820               	movf	sprintf@ap^(0+128),w
  2078  05C8  0084               	movwf	4
  2079  05C9  1383               	bcf	3,7	;select IRP bank0
  2080  05CA  0800               	movf	0,w
  2081  05CB  00A3               	movwf	sprintf@val^(0+128)
  2082  05CC  0A84               	incf	4,f
  2083  05CD  0800               	movf	0,w
  2084  05CE  00A4               	movwf	(sprintf@val+1)^(0+128)
  2085  05CF                     l2598:	
  2086  05CF  3002               	movlw	2
  2087  05D0  1283               	bcf	3,5	;RP0=0, select bank0
  2088  05D1  1303               	bcf	3,6	;RP1=0, select bank0
  2089  05D2  00CB               	movwf	??_sprintf
  2090  05D3  084B               	movf	??_sprintf,w
  2091  05D4  1683               	bsf	3,5	;RP0=1, select bank1
  2092  05D5  1303               	bcf	3,6	;RP1=0, select bank1
  2093  05D6  07A0               	addwf	sprintf@ap^(0+128),f
  2094  05D7                     l2600:	
  2095                           
  2096                           ;C:\Program Files (x86)\Microchip\xc8\v2.10\pic\sources\c90\common\doprnt.c: 1287:    if
      +                          ((int)val < 0) {
  2097  05D7  1FA4               	btfss	(sprintf@val+1)^(0+128),7
  2098  05D8  2DDA               	goto	u2781
  2099  05D9  2DDB               	goto	u2780
  2100  05DA                     u2781:	
  2101  05DA  2DE8               	goto	l2606
  2102  05DB                     u2780:	
  2103  05DB                     l2602:	
  2104                           
  2105                           ;C:\Program Files (x86)\Microchip\xc8\v2.10\pic\sources\c90\common\doprnt.c: 1288:     f
      +                          lag |= 0x03;
  2106  05DB  3003               	movlw	3
  2107  05DC  1283               	bcf	3,5	;RP0=0, select bank0
  2108  05DD  1303               	bcf	3,6	;RP1=0, select bank0
  2109  05DE  00CB               	movwf	??_sprintf
  2110  05DF  084B               	movf	??_sprintf,w
  2111  05E0  1683               	bsf	3,5	;RP0=1, select bank1
  2112  05E1  1303               	bcf	3,6	;RP1=0, select bank1
  2113  05E2  04A1               	iorwf	sprintf@flag^(0+128),f
  2114  05E3                     l2604:	
  2115                           
  2116                           ;C:\Program Files (x86)\Microchip\xc8\v2.10\pic\sources\c90\common\doprnt.c: 1289:     v
      +                          al = -val;
  2117  05E3  09A3               	comf	sprintf@val^(0+128),f
  2118  05E4  09A4               	comf	(sprintf@val+1)^(0+128),f
  2119  05E5  0AA3               	incf	sprintf@val^(0+128),f
  2120  05E6  1903               	skipnz
  2121  05E7  0AA4               	incf	(sprintf@val+1)^(0+128),f
  2122  05E8                     l2606:	
  2123                           
  2124                           ;C:\Program Files (x86)\Microchip\xc8\v2.10\pic\sources\c90\common\doprnt.c: 1292:   };C
      +                          :\Program Files (x86)\Microchip\xc8\v2.10\pic\sources\c90\common\doprnt.c: 1331:    for(
      +                          c = 1 ; c != sizeof dpowers/sizeof dpowers[0] ; c++)
  2125  05E8  01A6               	clrf	sprintf@c^(0+128)
  2126  05E9  0AA6               	incf	sprintf@c^(0+128),f
  2127  05EA                     l2612:	
  2128                           
  2129                           ;C:\Program Files (x86)\Microchip\xc8\v2.10\pic\sources\c90\common\doprnt.c: 1332:     i
      +                          f(val < dpowers[c])
  2130  05EA  0826               	movf	sprintf@c^(0+128),w
  2131  05EB  1283               	bcf	3,5	;RP0=0, select bank0
  2132  05EC  1303               	bcf	3,6	;RP1=0, select bank0
  2133  05ED  00CB               	movwf	??_sprintf
  2134  05EE  074B               	addwf	??_sprintf,w
  2135  05EF  3E01               	addlw	low ((_dpowers-__stringbase)| (0+32768))
  2136  05F0  0084               	movwf	4
  2137  05F1  158A  200A  118A   	fcall	stringdir
  2138  05F4  00CC               	movwf	??_sprintf+1
  2139  05F5  158A  200A  118A   	fcall	stringdir
  2140  05F8  00CD               	movwf	??_sprintf+2
  2141  05F9  084D               	movf	??_sprintf+2,w
  2142  05FA  1683               	bsf	3,5	;RP0=1, select bank1
  2143  05FB  1303               	bcf	3,6	;RP1=0, select bank1
  2144  05FC  0224               	subwf	(sprintf@val+1)^(0+128),w
  2145  05FD  1D03               	skipz
  2146  05FE  2E05               	goto	u2795
  2147  05FF  1283               	bcf	3,5	;RP0=0, select bank0
  2148  0600  1303               	bcf	3,6	;RP1=0, select bank0
  2149  0601  084C               	movf	??_sprintf+1,w
  2150  0602  1683               	bsf	3,5	;RP0=1, select bank1
  2151  0603  1303               	bcf	3,6	;RP1=0, select bank1
  2152  0604  0223               	subwf	sprintf@val^(0+128),w
  2153  0605                     u2795:	
  2154  0605  1803               	skipnc
  2155  0606  2E08               	goto	u2791
  2156  0607  2E09               	goto	u2790
  2157  0608                     u2791:	
  2158  0608  2E0A               	goto	l2616
  2159  0609                     u2790:	
  2160  0609  2E18               	goto	l2618
  2161  060A                     l2616:	
  2162  060A  3001               	movlw	1
  2163  060B  1283               	bcf	3,5	;RP0=0, select bank0
  2164  060C  1303               	bcf	3,6	;RP1=0, select bank0
  2165  060D  00CB               	movwf	??_sprintf
  2166  060E  084B               	movf	??_sprintf,w
  2167  060F  1683               	bsf	3,5	;RP0=1, select bank1
  2168  0610  1303               	bcf	3,6	;RP1=0, select bank1
  2169  0611  07A6               	addwf	sprintf@c^(0+128),f
  2170  0612  3005               	movlw	5
  2171  0613  0626               	xorwf	sprintf@c^(0+128),w
  2172  0614  1D03               	btfss	3,2
  2173  0615  2E17               	goto	u2801
  2174  0616  2E18               	goto	u2800
  2175  0617                     u2801:	
  2176  0617  2DEA               	goto	l2612
  2177  0618                     u2800:	
  2178  0618                     l2618:	
  2179                           
  2180                           ;C:\Program Files (x86)\Microchip\xc8\v2.10\pic\sources\c90\common\doprnt.c: 1448:   {;C
      +                          :\Program Files (x86)\Microchip\xc8\v2.10\pic\sources\c90\common\doprnt.c: 1464:    if(f
      +                          lag & 0x03)
  2181  0618  0821               	movf	sprintf@flag^(0+128),w
  2182  0619  3903               	andlw	3
  2183  061A  1903               	btfsc	3,2
  2184  061B  2E1D               	goto	u2811
  2185  061C  2E1E               	goto	u2810
  2186  061D                     u2811:	
  2187  061D  2E31               	goto	l2624
  2188  061E                     u2810:	
  2189  061E                     l2620:	
  2190                           
  2191                           ;C:\Program Files (x86)\Microchip\xc8\v2.10\pic\sources\c90\common\doprnt.c: 1465:     (
      +                          (*sp++ = ('-')));
  2192  061E  302D               	movlw	45
  2193  061F  1283               	bcf	3,5	;RP0=0, select bank0
  2194  0620  1303               	bcf	3,6	;RP1=0, select bank0
  2195  0621  00CB               	movwf	??_sprintf
  2196  0622  1683               	bsf	3,5	;RP0=1, select bank1
  2197  0623  1303               	bcf	3,6	;RP1=0, select bank1
  2198  0624  0825               	movf	sprintf@sp^(0+128),w
  2199  0625  0084               	movwf	4
  2200  0626  1283               	bcf	3,5	;RP0=0, select bank0
  2201  0627  1303               	bcf	3,6	;RP1=0, select bank0
  2202  0628  084B               	movf	??_sprintf,w
  2203  0629  1383               	bcf	3,7	;select IRP bank0
  2204  062A  0080               	movwf	0
  2205  062B                     l2622:	
  2206  062B  3001               	movlw	1
  2207  062C  00CB               	movwf	??_sprintf
  2208  062D  084B               	movf	??_sprintf,w
  2209  062E  1683               	bsf	3,5	;RP0=1, select bank1
  2210  062F  1303               	bcf	3,6	;RP1=0, select bank1
  2211  0630  07A5               	addwf	sprintf@sp^(0+128),f
  2212  0631                     l2624:	
  2213                           
  2214                           ;C:\Program Files (x86)\Microchip\xc8\v2.10\pic\sources\c90\common\doprnt.c: 1495:   };C
      +                          :\Program Files (x86)\Microchip\xc8\v2.10\pic\sources\c90\common\doprnt.c: 1498:   prec 
      +                          = c;
  2215  0631  0826               	movf	sprintf@c^(0+128),w
  2216  0632  1283               	bcf	3,5	;RP0=0, select bank0
  2217  0633  1303               	bcf	3,6	;RP1=0, select bank0
  2218  0634  00CB               	movwf	??_sprintf
  2219  0635  084B               	movf	??_sprintf,w
  2220  0636  1683               	bsf	3,5	;RP0=1, select bank1
  2221  0637  1303               	bcf	3,6	;RP1=0, select bank1
  2222  0638  00A2               	movwf	sprintf@prec^(0+128)
  2223                           
  2224                           ;C:\Program Files (x86)\Microchip\xc8\v2.10\pic\sources\c90\common\doprnt.c: 1500:   whi
      +                          le(prec--) {
  2225  0639  2E85               	goto	l2632
  2226  063A                     l2626:	
  2227                           
  2228                           ;C:\Program Files (x86)\Microchip\xc8\v2.10\pic\sources\c90\common\doprnt.c: 1504:    {;
      +                          C:\Program Files (x86)\Microchip\xc8\v2.10\pic\sources\c90\common\doprnt.c: 1515:     c 
      +                          = (val / dpowers[(unsigned char)prec]) % 10 + '0';
  2229  063A  300A               	movlw	10
  2230  063B  1283               	bcf	3,5	;RP0=0, select bank0
  2231  063C  1303               	bcf	3,6	;RP1=0, select bank0
  2232  063D  00C2               	movwf	___lwmod@divisor
  2233  063E  3000               	movlw	0
  2234  063F  00C3               	movwf	___lwmod@divisor+1
  2235  0640  1683               	bsf	3,5	;RP0=1, select bank1
  2236  0641  1303               	bcf	3,6	;RP1=0, select bank1
  2237  0642  0822               	movf	sprintf@prec^(0+128),w
  2238  0643  1283               	bcf	3,5	;RP0=0, select bank0
  2239  0644  1303               	bcf	3,6	;RP1=0, select bank0
  2240  0645  00CB               	movwf	??_sprintf
  2241  0646  074B               	addwf	??_sprintf,w
  2242  0647  3E01               	addlw	low ((_dpowers-__stringbase)| (0+32768))
  2243  0648  0084               	movwf	4
  2244  0649  158A  200A  118A   	fcall	stringdir
  2245  064C  00BA               	movwf	___lwdiv@divisor
  2246  064D  158A  200A  118A   	fcall	stringdir
  2247  0650  00BB               	movwf	___lwdiv@divisor+1
  2248  0651  1683               	bsf	3,5	;RP0=1, select bank1
  2249  0652  1303               	bcf	3,6	;RP1=0, select bank1
  2250  0653  0824               	movf	(sprintf@val+1)^(0+128),w
  2251  0654  1283               	bcf	3,5	;RP0=0, select bank0
  2252  0655  1303               	bcf	3,6	;RP1=0, select bank0
  2253  0656  00BD               	movwf	___lwdiv@dividend+1
  2254  0657  1683               	bsf	3,5	;RP0=1, select bank1
  2255  0658  1303               	bcf	3,6	;RP1=0, select bank1
  2256  0659  0823               	movf	sprintf@val^(0+128),w
  2257  065A  1283               	bcf	3,5	;RP0=0, select bank0
  2258  065B  1303               	bcf	3,6	;RP1=0, select bank0
  2259  065C  00BC               	movwf	___lwdiv@dividend
  2260  065D  158A  248E  118A   	fcall	___lwdiv
  2261  0660  1283               	bcf	3,5	;RP0=0, select bank0
  2262  0661  1303               	bcf	3,6	;RP1=0, select bank0
  2263  0662  083B               	movf	?___lwdiv+1,w
  2264  0663  00C5               	movwf	___lwmod@dividend+1
  2265  0664  083A               	movf	?___lwdiv,w
  2266  0665  00C4               	movwf	___lwmod@dividend
  2267  0666  158A  23D4  118A   	fcall	___lwmod
  2268  0669  1283               	bcf	3,5	;RP0=0, select bank0
  2269  066A  1303               	bcf	3,6	;RP1=0, select bank0
  2270  066B  0842               	movf	?___lwmod,w
  2271  066C  3E30               	addlw	48
  2272  066D  00CC               	movwf	??_sprintf+1
  2273  066E  084C               	movf	??_sprintf+1,w
  2274  066F  1683               	bsf	3,5	;RP0=1, select bank1
  2275  0670  1303               	bcf	3,6	;RP1=0, select bank1
  2276  0671  00A6               	movwf	sprintf@c^(0+128)
  2277  0672                     l2628:	
  2278                           
  2279                           ;C:\Program Files (x86)\Microchip\xc8\v2.10\pic\sources\c90\common\doprnt.c: 1549:    };
      +                          C:\Program Files (x86)\Microchip\xc8\v2.10\pic\sources\c90\common\doprnt.c: 1550:    ((*
      +                          sp++ = (c)));
  2280  0672  0826               	movf	sprintf@c^(0+128),w
  2281  0673  1283               	bcf	3,5	;RP0=0, select bank0
  2282  0674  1303               	bcf	3,6	;RP1=0, select bank0
  2283  0675  00CB               	movwf	??_sprintf
  2284  0676  1683               	bsf	3,5	;RP0=1, select bank1
  2285  0677  1303               	bcf	3,6	;RP1=0, select bank1
  2286  0678  0825               	movf	sprintf@sp^(0+128),w
  2287  0679  0084               	movwf	4
  2288  067A  1283               	bcf	3,5	;RP0=0, select bank0
  2289  067B  1303               	bcf	3,6	;RP1=0, select bank0
  2290  067C  084B               	movf	??_sprintf,w
  2291  067D  1383               	bcf	3,7	;select IRP bank0
  2292  067E  0080               	movwf	0
  2293  067F                     l2630:	
  2294  067F  3001               	movlw	1
  2295  0680  00CB               	movwf	??_sprintf
  2296  0681  084B               	movf	??_sprintf,w
  2297  0682  1683               	bsf	3,5	;RP0=1, select bank1
  2298  0683  1303               	bcf	3,6	;RP1=0, select bank1
  2299  0684  07A5               	addwf	sprintf@sp^(0+128),f
  2300  0685                     l2632:	
  2301                           
  2302                           ;C:\Program Files (x86)\Microchip\xc8\v2.10\pic\sources\c90\common\doprnt.c: 1500:   whi
      +                          le(prec--) {
  2303  0685  30FF               	movlw	255
  2304  0686  1283               	bcf	3,5	;RP0=0, select bank0
  2305  0687  1303               	bcf	3,6	;RP1=0, select bank0
  2306  0688  00CB               	movwf	??_sprintf
  2307  0689  084B               	movf	??_sprintf,w
  2308  068A  1683               	bsf	3,5	;RP0=1, select bank1
  2309  068B  1303               	bcf	3,6	;RP1=0, select bank1
  2310  068C  07A2               	addwf	sprintf@prec^(0+128),f
  2311  068D  0A22               	incf	sprintf@prec^(0+128),w
  2312  068E  1D03               	btfss	3,2
  2313  068F  2E91               	goto	u2821
  2314  0690  2E92               	goto	u2820
  2315  0691                     u2821:	
  2316  0691  2E3A               	goto	l2626
  2317  0692                     u2820:	
  2318  0692                     l2634:	
  2319                           
  2320                           ;C:\Program Files (x86)\Microchip\xc8\v2.10\pic\sources\c90\common\doprnt.c: 553:  while
      +                          ((c = *f++)) {
  2321  0692  3001               	movlw	1
  2322  0693  1283               	bcf	3,5	;RP0=0, select bank0
  2323  0694  07C8               	addwf	sprintf@f,f
  2324  0695  30FF               	movlw	-1
  2325  0696  0748               	addwf	sprintf@f,w
  2326  0697  0084               	movwf	4
  2327  0698  158A  200A  118A   	fcall	stringdir
  2328  069B  00CB               	movwf	??_sprintf
  2329  069C  084B               	movf	??_sprintf,w
  2330  069D  1683               	bsf	3,5	;RP0=1, select bank1
  2331  069E  1303               	bcf	3,6	;RP1=0, select bank1
  2332  069F  00A6               	movwf	sprintf@c^(0+128)
  2333  06A0  0826               	movf	sprintf@c^(0+128),w
  2334  06A1  1D03               	btfss	3,2
  2335  06A2  2EA4               	goto	u2831
  2336  06A3  2EA5               	goto	u2830
  2337  06A4                     u2831:	
  2338  06A4  2D89               	goto	l2584
  2339  06A5                     u2830:	
  2340  06A5                     l2636:	
  2341                           
  2342                           ;C:\Program Files (x86)\Microchip\xc8\v2.10\pic\sources\c90\common\doprnt.c: 1564:  *sp 
      +                          = 0;
  2343  06A5  1683               	bsf	3,5	;RP0=1, select bank1
  2344  06A6  1303               	bcf	3,6	;RP1=0, select bank1
  2345  06A7  0825               	movf	sprintf@sp^(0+128),w
  2346  06A8  0084               	movwf	4
  2347  06A9  1383               	bcf	3,7	;select IRP bank0
  2348  06AA  0180               	clrf	0
  2349  06AB                     l337:	
  2350  06AB  0008               	return
  2351  06AC                     __end_of_sprintf:	
  2352                           
  2353                           	psect	text7
  2354  0BD4                     __ptext7:	
  2355 ;; *************** function ___lwmod *****************
  2356 ;; Defined at:
  2357 ;;		line 5 in file "C:\Program Files (x86)\Microchip\xc8\v2.10\pic\sources\c90\common\lwmod.c"
  2358 ;; Parameters:    Size  Location     Type
  2359 ;;  divisor         2   34[BANK0 ] unsigned int 
  2360 ;;  dividend        2   36[BANK0 ] unsigned int 
  2361 ;; Auto vars:     Size  Location     Type
  2362 ;;  counter         1   39[BANK0 ] unsigned char 
  2363 ;; Return value:  Size  Location     Type
  2364 ;;                  2   34[BANK0 ] unsigned int 
  2365 ;; Registers used:
  2366 ;;		wreg, status,2, status,0
  2367 ;; Tracked objects:
  2368 ;;		On entry : 0/0
  2369 ;;		On exit  : 0/0
  2370 ;;		Unchanged: 0/0
  2371 ;; Data sizes:     COMMON   BANK0   BANK1
  2372 ;;      Params:         0       4       0
  2373 ;;      Locals:         0       1       0
  2374 ;;      Temps:          0       1       0
  2375 ;;      Totals:         0       6       0
  2376 ;;Total ram usage:        6 bytes
  2377 ;; Hardware stack levels used:    1
  2378 ;; Hardware stack levels required when called:    6
  2379 ;; This function calls:
  2380 ;;		Nothing
  2381 ;; This function is called by:
  2382 ;;		_sprintf
  2383 ;; This function uses a non-reentrant model
  2384 ;;
  2385                           
  2386                           
  2387                           ;psect for function ___lwmod
  2388  0BD4                     ___lwmod:	
  2389  0BD4                     l2546:	
  2390                           ;incstack = 0
  2391 ;; hardware stack exceeded
  2392                           ; Regs used in ___lwmod: [wreg+status,2+status,0]
  2393                           
  2394  0BD4  1283               	bcf	3,5	;RP0=0, select bank0
  2395  0BD5  1303               	bcf	3,6	;RP1=0, select bank0
  2396  0BD6  0842               	movf	___lwmod@divisor,w
  2397  0BD7  0443               	iorwf	___lwmod@divisor+1,w
  2398  0BD8  1903               	btfsc	3,2
  2399  0BD9  2BDB               	goto	u2681
  2400  0BDA  2BDC               	goto	u2680
  2401  0BDB                     u2681:	
  2402  0BDB  2C0B               	goto	l2564
  2403  0BDC                     u2680:	
  2404  0BDC                     l2548:	
  2405  0BDC  01C7               	clrf	___lwmod@counter
  2406  0BDD  0AC7               	incf	___lwmod@counter,f
  2407  0BDE  2BEA               	goto	l2554
  2408  0BDF                     l2550:	
  2409  0BDF  3001               	movlw	1
  2410  0BE0                     u2695:	
  2411  0BE0  1003               	clrc
  2412  0BE1  0DC2               	rlf	___lwmod@divisor,f
  2413  0BE2  0DC3               	rlf	___lwmod@divisor+1,f
  2414  0BE3  3EFF               	addlw	-1
  2415  0BE4  1D03               	skipz
  2416  0BE5  2BE0               	goto	u2695
  2417  0BE6                     l2552:	
  2418  0BE6  3001               	movlw	1
  2419  0BE7  00C6               	movwf	??___lwmod
  2420  0BE8  0846               	movf	??___lwmod,w
  2421  0BE9  07C7               	addwf	___lwmod@counter,f
  2422  0BEA                     l2554:	
  2423  0BEA  1FC3               	btfss	___lwmod@divisor+1,7
  2424  0BEB  2BED               	goto	u2701
  2425  0BEC  2BEE               	goto	u2700
  2426  0BED                     u2701:	
  2427  0BED  2BDF               	goto	l2550
  2428  0BEE                     u2700:	
  2429  0BEE                     l2556:	
  2430  0BEE  0843               	movf	___lwmod@divisor+1,w
  2431  0BEF  0245               	subwf	___lwmod@dividend+1,w
  2432  0BF0  1D03               	skipz
  2433  0BF1  2BF4               	goto	u2715
  2434  0BF2  0842               	movf	___lwmod@divisor,w
  2435  0BF3  0244               	subwf	___lwmod@dividend,w
  2436  0BF4                     u2715:	
  2437  0BF4  1C03               	skipc
  2438  0BF5  2BF7               	goto	u2711
  2439  0BF6  2BF8               	goto	u2710
  2440  0BF7                     u2711:	
  2441  0BF7  2BFE               	goto	l2560
  2442  0BF8                     u2710:	
  2443  0BF8                     l2558:	
  2444  0BF8  0842               	movf	___lwmod@divisor,w
  2445  0BF9  02C4               	subwf	___lwmod@dividend,f
  2446  0BFA  0843               	movf	___lwmod@divisor+1,w
  2447  0BFB  1C03               	skipc
  2448  0BFC  03C5               	decf	___lwmod@dividend+1,f
  2449  0BFD  02C5               	subwf	___lwmod@dividend+1,f
  2450  0BFE                     l2560:	
  2451  0BFE  3001               	movlw	1
  2452  0BFF                     u2725:	
  2453  0BFF  1003               	clrc
  2454  0C00  0CC3               	rrf	___lwmod@divisor+1,f
  2455  0C01  0CC2               	rrf	___lwmod@divisor,f
  2456  0C02  3EFF               	addlw	-1
  2457  0C03  1D03               	skipz
  2458  0C04  2BFF               	goto	u2725
  2459  0C05                     l2562:	
  2460  0C05  3001               	movlw	1
  2461  0C06  02C7               	subwf	___lwmod@counter,f
  2462  0C07  1D03               	btfss	3,2
  2463  0C08  2C0A               	goto	u2731
  2464  0C09  2C0B               	goto	u2730
  2465  0C0A                     u2731:	
  2466  0C0A  2BEE               	goto	l2556
  2467  0C0B                     u2730:	
  2468  0C0B                     l2564:	
  2469  0C0B  0845               	movf	___lwmod@dividend+1,w
  2470  0C0C  00C3               	movwf	?___lwmod+1
  2471  0C0D  0844               	movf	___lwmod@dividend,w
  2472  0C0E  00C2               	movwf	?___lwmod
  2473  0C0F                     l623:	
  2474  0C0F  0008               	return
  2475  0C10                     __end_of___lwmod:	
  2476                           
  2477                           	psect	text8
  2478  0C8E                     __ptext8:	
  2479 ;; *************** function ___lwdiv *****************
  2480 ;; Defined at:
  2481 ;;		line 5 in file "C:\Program Files (x86)\Microchip\xc8\v2.10\pic\sources\c90\common\lwdiv.c"
  2482 ;; Parameters:    Size  Location     Type
  2483 ;;  divisor         2   26[BANK0 ] unsigned int 
  2484 ;;  dividend        2   28[BANK0 ] unsigned int 
  2485 ;; Auto vars:     Size  Location     Type
  2486 ;;  quotient        2   32[BANK0 ] unsigned int 
  2487 ;;  counter         1   31[BANK0 ] unsigned char 
  2488 ;; Return value:  Size  Location     Type
  2489 ;;                  2   26[BANK0 ] unsigned int 
  2490 ;; Registers used:
  2491 ;;		wreg, status,2, status,0
  2492 ;; Tracked objects:
  2493 ;;		On entry : 0/0
  2494 ;;		On exit  : 0/0
  2495 ;;		Unchanged: 0/0
  2496 ;; Data sizes:     COMMON   BANK0   BANK1
  2497 ;;      Params:         0       4       0
  2498 ;;      Locals:         0       3       0
  2499 ;;      Temps:          0       1       0
  2500 ;;      Totals:         0       8       0
  2501 ;;Total ram usage:        8 bytes
  2502 ;; Hardware stack levels used:    1
  2503 ;; Hardware stack levels required when called:    6
  2504 ;; This function calls:
  2505 ;;		Nothing
  2506 ;; This function is called by:
  2507 ;;		_sprintf
  2508 ;; This function uses a non-reentrant model
  2509 ;;
  2510                           
  2511                           
  2512                           ;psect for function ___lwdiv
  2513  0C8E                     ___lwdiv:	
  2514  0C8E                     l2520:	
  2515                           ;incstack = 0
  2516 ;; hardware stack exceeded
  2517                           ; Regs used in ___lwdiv: [wreg+status,2+status,0]
  2518                           
  2519  0C8E  1283               	bcf	3,5	;RP0=0, select bank0
  2520  0C8F  1303               	bcf	3,6	;RP1=0, select bank0
  2521  0C90  01C0               	clrf	___lwdiv@quotient
  2522  0C91  01C1               	clrf	___lwdiv@quotient+1
  2523  0C92                     l2522:	
  2524  0C92  083A               	movf	___lwdiv@divisor,w
  2525  0C93  043B               	iorwf	___lwdiv@divisor+1,w
  2526  0C94  1903               	btfsc	3,2
  2527  0C95  2C97               	goto	u2611
  2528  0C96  2C98               	goto	u2610
  2529  0C97                     u2611:	
  2530  0C97  2CCF               	goto	l2542
  2531  0C98                     u2610:	
  2532  0C98                     l2524:	
  2533  0C98  01BF               	clrf	___lwdiv@counter
  2534  0C99  0ABF               	incf	___lwdiv@counter,f
  2535  0C9A  2CA6               	goto	l2530
  2536  0C9B                     l2526:	
  2537  0C9B  3001               	movlw	1
  2538  0C9C                     u2625:	
  2539  0C9C  1003               	clrc
  2540  0C9D  0DBA               	rlf	___lwdiv@divisor,f
  2541  0C9E  0DBB               	rlf	___lwdiv@divisor+1,f
  2542  0C9F  3EFF               	addlw	-1
  2543  0CA0  1D03               	skipz
  2544  0CA1  2C9C               	goto	u2625
  2545  0CA2                     l2528:	
  2546  0CA2  3001               	movlw	1
  2547  0CA3  00BE               	movwf	??___lwdiv
  2548  0CA4  083E               	movf	??___lwdiv,w
  2549  0CA5  07BF               	addwf	___lwdiv@counter,f
  2550  0CA6                     l2530:	
  2551  0CA6  1FBB               	btfss	___lwdiv@divisor+1,7
  2552  0CA7  2CA9               	goto	u2631
  2553  0CA8  2CAA               	goto	u2630
  2554  0CA9                     u2631:	
  2555  0CA9  2C9B               	goto	l2526
  2556  0CAA                     u2630:	
  2557  0CAA                     l2532:	
  2558  0CAA  3001               	movlw	1
  2559  0CAB                     u2645:	
  2560  0CAB  1003               	clrc
  2561  0CAC  0DC0               	rlf	___lwdiv@quotient,f
  2562  0CAD  0DC1               	rlf	___lwdiv@quotient+1,f
  2563  0CAE  3EFF               	addlw	-1
  2564  0CAF  1D03               	skipz
  2565  0CB0  2CAB               	goto	u2645
  2566  0CB1  083B               	movf	___lwdiv@divisor+1,w
  2567  0CB2  023D               	subwf	___lwdiv@dividend+1,w
  2568  0CB3  1D03               	skipz
  2569  0CB4  2CB7               	goto	u2655
  2570  0CB5  083A               	movf	___lwdiv@divisor,w
  2571  0CB6  023C               	subwf	___lwdiv@dividend,w
  2572  0CB7                     u2655:	
  2573  0CB7  1C03               	skipc
  2574  0CB8  2CBA               	goto	u2651
  2575  0CB9  2CBB               	goto	u2650
  2576  0CBA                     u2651:	
  2577  0CBA  2CC2               	goto	l2538
  2578  0CBB                     u2650:	
  2579  0CBB                     l2534:	
  2580  0CBB  083A               	movf	___lwdiv@divisor,w
  2581  0CBC  02BC               	subwf	___lwdiv@dividend,f
  2582  0CBD  083B               	movf	___lwdiv@divisor+1,w
  2583  0CBE  1C03               	skipc
  2584  0CBF  03BD               	decf	___lwdiv@dividend+1,f
  2585  0CC0  02BD               	subwf	___lwdiv@dividend+1,f
  2586  0CC1                     l2536:	
  2587  0CC1  1440               	bsf	___lwdiv@quotient,0
  2588  0CC2                     l2538:	
  2589  0CC2  3001               	movlw	1
  2590  0CC3                     u2665:	
  2591  0CC3  1003               	clrc
  2592  0CC4  0CBB               	rrf	___lwdiv@divisor+1,f
  2593  0CC5  0CBA               	rrf	___lwdiv@divisor,f
  2594  0CC6  3EFF               	addlw	-1
  2595  0CC7  1D03               	skipz
  2596  0CC8  2CC3               	goto	u2665
  2597  0CC9                     l2540:	
  2598  0CC9  3001               	movlw	1
  2599  0CCA  02BF               	subwf	___lwdiv@counter,f
  2600  0CCB  1D03               	btfss	3,2
  2601  0CCC  2CCE               	goto	u2671
  2602  0CCD  2CCF               	goto	u2670
  2603  0CCE                     u2671:	
  2604  0CCE  2CAA               	goto	l2532
  2605  0CCF                     u2670:	
  2606  0CCF                     l2542:	
  2607  0CCF  0841               	movf	___lwdiv@quotient+1,w
  2608  0CD0  00BB               	movwf	?___lwdiv+1
  2609  0CD1  0840               	movf	___lwdiv@quotient,w
  2610  0CD2  00BA               	movwf	?___lwdiv
  2611  0CD3                     l613:	
  2612  0CD3  0008               	return
  2613  0CD4                     __end_of___lwdiv:	
  2614                           
  2615                           	psect	text9
  2616  0983                     __ptext9:	
  2617 ;; *************** function _send *****************
  2618 ;; Defined at:
  2619 ;;		line 366 in file "termometroDiferencial.c"
  2620 ;; Parameters:    Size  Location     Type
  2621 ;;		None
  2622 ;; Auto vars:     Size  Location     Type
  2623 ;;  msg             8   38[BANK0 ] unsigned char [8]
  2624 ;; Return value:  Size  Location     Type
  2625 ;;                  1    wreg      void 
  2626 ;; Registers used:
  2627 ;;		wreg, fsr0l, fsr0h, status,2, status,0, btemp+1, pclath, cstack
  2628 ;; Tracked objects:
  2629 ;;		On entry : 0/0
  2630 ;;		On exit  : 0/0
  2631 ;;		Unchanged: 0/0
  2632 ;; Data sizes:     COMMON   BANK0   BANK1
  2633 ;;      Params:         0       0       0
  2634 ;;      Locals:         0       8       0
  2635 ;;      Temps:          0       4       0
  2636 ;;      Totals:         0      12       0
  2637 ;;Total ram usage:       12 bytes
  2638 ;; Hardware stack levels used:    1
  2639 ;; Hardware stack levels required when called:    8
  2640 ;; This function calls:
  2641 ;;		_turnOnSerialAlarm
  2642 ;; This function is called by:
  2643 ;;		_showDifferenceTemp
  2644 ;;		_showTemp
  2645 ;; This function uses a non-reentrant model
  2646 ;;
  2647                           
  2648                           
  2649                           ;psect for function _send
  2650  0983                     _send:	
  2651  0983                     l2276:	
  2652                           ;incstack = 0
  2653 ;; hardware stack exceeded
  2654                           ; Regs used in _send: [wreg-fsr0h+status,2+status,0+btemp+1+pclath+cstack]
  2655                           
  2656                           
  2657                           ;termometroDiferencial.c: 367:     char msg[8] = "PELIGRO ";
  2658  0983  3046               	movlw	send@msg& (0+255)
  2659  0984  0084               	movwf	4
  2660  0985  3051               	movlw	low send@F1086
  2661  0986  1283               	bcf	3,5	;RP0=0, select bank0
  2662  0987  1303               	bcf	3,6	;RP1=0, select bank0
  2663  0988  00C2               	movwf	??_send
  2664  0989  0804               	movf	4,w
  2665  098A  00C3               	movwf	??_send+1
  2666  098B  3008               	movlw	8
  2667  098C  00C4               	movwf	??_send+2
  2668  098D                     u2490:	
  2669  098D  0842               	movf	??_send,w
  2670  098E  0084               	movwf	4
  2671  098F  1383               	bcf	3,7	;select IRP bank0
  2672  0990  0800               	movf	0,w
  2673  0991  00C5               	movwf	??_send+3
  2674  0992  0AC2               	incf	??_send,f
  2675  0993  0843               	movf	??_send+1,w
  2676  0994  0084               	movwf	4
  2677  0995  0845               	movf	??_send+3,w
  2678  0996  0080               	movwf	0
  2679  0997  0AC3               	incf	??_send+1,f
  2680  0998  0BC4               	decfsz	??_send+2,f
  2681  0999  298D               	goto	u2490
  2682  099A                     l2278:	
  2683                           
  2684                           ;termometroDiferencial.c: 368:     turnOnSerialAlarm(msg);
  2685  099A  3046               	movlw	(low (send@msg| 0))& (0+255)
  2686  099B  158A  22E7  158A   	fcall	_turnOnSerialAlarm
  2687  099E                     l204:	
  2688  099E  0008               	return
  2689  099F                     __end_of_send:	
  2690                           
  2691                           	psect	text10
  2692  0AE7                     __ptext10:	
  2693 ;; *************** function _turnOnSerialAlarm *****************
  2694 ;; Defined at:
  2695 ;;		line 359 in file "termometroDiferencial.c"
  2696 ;; Parameters:    Size  Location     Type
  2697 ;;  message         1    wreg     PTR unsigned char 
  2698 ;;		 -> send@msg(8), 
  2699 ;; Auto vars:     Size  Location     Type
  2700 ;;  message         1   33[BANK0 ] PTR unsigned char 
  2701 ;;		 -> send@msg(8), 
  2702 ;;  i               2   31[BANK0 ] int 
  2703 ;; Return value:  Size  Location     Type
  2704 ;;                  1    wreg      void 
  2705 ;; Registers used:
  2706 ;;		wreg, fsr0l, fsr0h, status,2, status,0, btemp+1, pclath, cstack
  2707 ;; Tracked objects:
  2708 ;;		On entry : 0/0
  2709 ;;		On exit  : 0/0
  2710 ;;		Unchanged: 0/0
  2711 ;; Data sizes:     COMMON   BANK0   BANK1
  2712 ;;      Params:         0       0       0
  2713 ;;      Locals:         0       3       0
  2714 ;;      Temps:          0       1       0
  2715 ;;      Totals:         0       4       0
  2716 ;;Total ram usage:        4 bytes
  2717 ;; Hardware stack levels used:    1
  2718 ;; Hardware stack levels required when called:    7
  2719 ;; This function calls:
  2720 ;;		_strlen
  2721 ;; This function is called by:
  2722 ;;		_send
  2723 ;; This function uses a non-reentrant model
  2724 ;;
  2725                           
  2726                           
  2727                           ;psect for function _turnOnSerialAlarm
  2728  0AE7                     _turnOnSerialAlarm:	
  2729                           
  2730                           ;incstack = 0
  2731 ;; hardware stack exceeded
  2732                           ; Regs used in _turnOnSerialAlarm: [wreg-fsr0h+status,2+status,0+btemp+1+pclath+cstack]
  2733                           ;turnOnSerialAlarm@message stored from wreg
  2734  0AE7  1283               	bcf	3,5	;RP0=0, select bank0
  2735  0AE8  1303               	bcf	3,6	;RP1=0, select bank0
  2736  0AE9  00C1               	movwf	turnOnSerialAlarm@message
  2737  0AEA                     l1932:	
  2738                           
  2739                           ;termometroDiferencial.c: 360:     for (int i = 0; i < strlen(message); i++) {
  2740  0AEA  01BF               	clrf	turnOnSerialAlarm@i
  2741  0AEB  01C0               	clrf	turnOnSerialAlarm@i+1
  2742  0AEC  2AFF               	goto	l1938
  2743  0AED                     l195:	
  2744  0AED  1E0C               	btfss	12,4	;volatile
  2745  0AEE  2AF0               	goto	u1671
  2746  0AEF  2AF1               	goto	u1670
  2747  0AF0                     u1671:	
  2748  0AF0  2AED               	goto	l195
  2749  0AF1                     u1670:	
  2750  0AF1                     l1934:	
  2751                           
  2752                           ;termometroDiferencial.c: 362:         TXREG = message[i];
  2753  0AF1  083F               	movf	turnOnSerialAlarm@i,w
  2754  0AF2  0741               	addwf	turnOnSerialAlarm@message,w
  2755  0AF3  00BE               	movwf	??_turnOnSerialAlarm
  2756  0AF4  083E               	movf	??_turnOnSerialAlarm,w
  2757  0AF5  0084               	movwf	4
  2758  0AF6  1383               	bcf	3,7	;select IRP bank0
  2759  0AF7  0800               	movf	0,w
  2760  0AF8  0099               	movwf	25	;volatile
  2761  0AF9                     l1936:	
  2762                           
  2763                           ;termometroDiferencial.c: 363:     }
  2764  0AF9  3001               	movlw	1
  2765  0AFA  07BF               	addwf	turnOnSerialAlarm@i,f
  2766  0AFB  1803               	skipnc
  2767  0AFC  0AC0               	incf	turnOnSerialAlarm@i+1,f
  2768  0AFD  3000               	movlw	0
  2769  0AFE  07C0               	addwf	turnOnSerialAlarm@i+1,f
  2770  0AFF                     l1938:	
  2771  0AFF  0841               	movf	turnOnSerialAlarm@message,w
  2772  0B00  00BA               	movwf	strlen@s
  2773  0B01  3000               	movlw	0
  2774  0B02  00BB               	movwf	strlen@s+1
  2775  0B03  158A  2200  158A   	fcall	_strlen
  2776  0B06  1283               	bcf	3,5	;RP0=0, select bank0
  2777  0B07  1303               	bcf	3,6	;RP1=0, select bank0
  2778  0B08  083B               	movf	?_strlen+1,w
  2779  0B09  0240               	subwf	turnOnSerialAlarm@i+1,w
  2780  0B0A  1D03               	skipz
  2781  0B0B  2B0E               	goto	u1685
  2782  0B0C  083A               	movf	?_strlen,w
  2783  0B0D  023F               	subwf	turnOnSerialAlarm@i,w
  2784  0B0E                     u1685:	
  2785  0B0E  1C03               	skipc
  2786  0B0F  2B11               	goto	u1681
  2787  0B10  2B12               	goto	u1680
  2788  0B11                     u1681:	
  2789  0B11  2AED               	goto	l195
  2790  0B12                     u1680:	
  2791  0B12                     l199:	
  2792  0B12  0008               	return
  2793  0B13                     __end_of_turnOnSerialAlarm:	
  2794                           
  2795                           	psect	text11
  2796  099F                     __ptext11:	
  2797 ;; *************** function _isItHot *****************
  2798 ;; Defined at:
  2799 ;;		line 351 in file "termometroDiferencial.c"
  2800 ;; Parameters:    Size  Location     Type
  2801 ;;  temp            2   26[BANK0 ] int 
  2802 ;; Auto vars:     Size  Location     Type
  2803 ;;		None
  2804 ;; Return value:  Size  Location     Type
  2805 ;;                  2   26[BANK0 ] int 
  2806 ;; Registers used:
  2807 ;;		wreg
  2808 ;; Tracked objects:
  2809 ;;		On entry : 0/0
  2810 ;;		On exit  : 0/0
  2811 ;;		Unchanged: 0/0
  2812 ;; Data sizes:     COMMON   BANK0   BANK1
  2813 ;;      Params:         0       2       0
  2814 ;;      Locals:         0       0       0
  2815 ;;      Temps:          0       2       0
  2816 ;;      Totals:         0       4       0
  2817 ;;Total ram usage:        4 bytes
  2818 ;; Hardware stack levels used:    1
  2819 ;; Hardware stack levels required when called:    6
  2820 ;; This function calls:
  2821 ;;		Nothing
  2822 ;; This function is called by:
  2823 ;;		_showDifferenceTemp
  2824 ;;		_showTemp
  2825 ;; This function uses a non-reentrant model
  2826 ;;
  2827                           
  2828                           
  2829                           ;psect for function _isItHot
  2830  099F                     _isItHot:	
  2831  099F                     l2272:	
  2832                           ;incstack = 0
  2833                           ; Regs used in _isItHot: [wreg]
  2834                           
  2835                           
  2836                           ;termometroDiferencial.c: 352:     return temp > maxTemp;
  2837  099F  1283               	bcf	3,5	;RP0=0, select bank0
  2838  09A0  1303               	bcf	3,6	;RP1=0, select bank0
  2839  09A1  083B               	movf	isItHot@temp+1,w
  2840  09A2  1683               	bsf	3,5	;RP0=1, select bank1
  2841  09A3  1303               	bcf	3,6	;RP1=0, select bank1
  2842  09A4  0267               	subwf	(_maxTemp+1)^(0+128),w
  2843  09A5  1D03               	skipz
  2844  09A6  29AD               	goto	u2475
  2845  09A7  1283               	bcf	3,5	;RP0=0, select bank0
  2846  09A8  1303               	bcf	3,6	;RP1=0, select bank0
  2847  09A9  083A               	movf	isItHot@temp,w
  2848  09AA  1683               	bsf	3,5	;RP0=1, select bank1
  2849  09AB  1303               	bcf	3,6	;RP1=0, select bank1
  2850  09AC  0266               	subwf	_maxTemp^(0+128),w
  2851  09AD                     u2475:	
  2852  09AD  1C03               	skipc
  2853  09AE  29B0               	goto	u2471
  2854  09AF  29B2               	goto	u2470
  2855  09B0                     u2471:	
  2856  09B0  3001               	movlw	1
  2857  09B1  29B3               	goto	u2480
  2858  09B2                     u2470:	
  2859  09B2  3000               	movlw	0
  2860  09B3                     u2480:	
  2861  09B3  1283               	bcf	3,5	;RP0=0, select bank0
  2862  09B4  1303               	bcf	3,6	;RP1=0, select bank0
  2863  09B5  00BC               	movwf	??_isItHot
  2864  09B6  01BD               	clrf	??_isItHot+1
  2865  09B7  083C               	movf	??_isItHot,w
  2866  09B8  00BA               	movwf	?_isItHot
  2867  09B9  083D               	movf	??_isItHot+1,w
  2868  09BA  00BB               	movwf	?_isItHot+1
  2869  09BB                     l190:	
  2870  09BB  0008               	return
  2871  09BC                     __end_of_isItHot:	
  2872                           
  2873                           	psect	text12
  2874  0CD4                     __ptext12:	
  2875 ;; *************** function _getTemperatureInt *****************
  2876 ;; Defined at:
  2877 ;;		line 171 in file "termometroDiferencial.c"
  2878 ;; Parameters:    Size  Location     Type
  2879 ;;		None
  2880 ;; Auto vars:     Size  Location     Type
  2881 ;;  temp            2   32[BANK1 ] unsigned int 
  2882 ;; Return value:  Size  Location     Type
  2883 ;;                  2   30[BANK1 ] int 
  2884 ;; Registers used:
  2885 ;;		wreg, status,2, status,0, btemp+1, pclath, cstack
  2886 ;; Tracked objects:
  2887 ;;		On entry : 0/0
  2888 ;;		On exit  : 0/0
  2889 ;;		Unchanged: 0/0
  2890 ;; Data sizes:     COMMON   BANK0   BANK1
  2891 ;;      Params:         0       0       2
  2892 ;;      Locals:         0       0       2
  2893 ;;      Temps:          0       0       0
  2894 ;;      Totals:         0       0       4
  2895 ;;Total ram usage:        4 bytes
  2896 ;; Hardware stack levels used:    1
  2897 ;; Hardware stack levels required when called:    8
  2898 ;; This function calls:
  2899 ;;		___flmul
  2900 ;;		___fltol
  2901 ;;		___xxtofl
  2902 ;;		_getVoltaje
  2903 ;; This function is called by:
  2904 ;;		_showDifferenceTemp
  2905 ;;		_showTemp
  2906 ;; This function uses a non-reentrant model
  2907 ;;
  2908                           
  2909                           
  2910                           ;psect for function _getTemperatureInt
  2911  0CD4                     _getTemperatureInt:	
  2912  0CD4                     l2820:	
  2913                           ;incstack = 0
  2914 ;; hardware stack exceeded
  2915                           ; Regs used in _getTemperatureInt: [wreg+status,2+status,0+btemp+1+pclath+cstack]
  2916                           
  2917                           
  2918                           ;termometroDiferencial.c: 172:     unsigned int temp;;termometroDiferencial.c: 173:     
      +                          temp = getVoltaje()*0.4887585532746823;
  2919  0CD4  158A  20FB  158A   	fcall	_getVoltaje
  2920  0CD7  1283               	bcf	3,5	;RP0=0, select bank0
  2921  0CD8  1303               	bcf	3,6	;RP1=0, select bank0
  2922  0CD9  083A               	movf	?_getVoltaje,w
  2923  0CDA  00BC               	movwf	___xxtofl@val
  2924  0CDB  083B               	movf	?_getVoltaje+1,w
  2925  0CDC  00BD               	movwf	___xxtofl@val+1
  2926  0CDD  3000               	movlw	0
  2927  0CDE  1BBD               	btfsc	___xxtofl@val+1,7
  2928  0CDF  30FF               	movlw	255
  2929  0CE0  00BE               	movwf	___xxtofl@val+2
  2930  0CE1  00BF               	movwf	___xxtofl@val+3
  2931  0CE2  3001               	movlw	1
  2932  0CE3  158A  2744  158A   	fcall	___xxtofl
  2933  0CE6  1283               	bcf	3,5	;RP0=0, select bank0
  2934  0CE7  1303               	bcf	3,6	;RP1=0, select bank0
  2935  0CE8  083F               	movf	?___xxtofl+3,w
  2936  0CE9  1683               	bsf	3,5	;RP0=1, select bank1
  2937  0CEA  1303               	bcf	3,6	;RP1=0, select bank1
  2938  0CEB  00A7               	movwf	(___flmul@a+3)^(0+128)
  2939  0CEC  1283               	bcf	3,5	;RP0=0, select bank0
  2940  0CED  1303               	bcf	3,6	;RP1=0, select bank0
  2941  0CEE  083E               	movf	?___xxtofl+2,w
  2942  0CEF  1683               	bsf	3,5	;RP0=1, select bank1
  2943  0CF0  1303               	bcf	3,6	;RP1=0, select bank1
  2944  0CF1  00A6               	movwf	(___flmul@a+2)^(0+128)
  2945  0CF2  1283               	bcf	3,5	;RP0=0, select bank0
  2946  0CF3  1303               	bcf	3,6	;RP1=0, select bank0
  2947  0CF4  083D               	movf	?___xxtofl+1,w
  2948  0CF5  1683               	bsf	3,5	;RP0=1, select bank1
  2949  0CF6  1303               	bcf	3,6	;RP1=0, select bank1
  2950  0CF7  00A5               	movwf	(___flmul@a+1)^(0+128)
  2951  0CF8  1283               	bcf	3,5	;RP0=0, select bank0
  2952  0CF9  1303               	bcf	3,6	;RP1=0, select bank0
  2953  0CFA  083C               	movf	?___xxtofl,w
  2954  0CFB  1683               	bsf	3,5	;RP0=1, select bank1
  2955  0CFC  1303               	bcf	3,6	;RP1=0, select bank1
  2956  0CFD  00A4               	movwf	___flmul@a^(0+128)
  2957  0CFE  303E               	movlw	62
  2958  0CFF  00A3               	movwf	(___flmul@b+3)^(0+128)
  2959  0D00  30FA               	movlw	250
  2960  0D01  00A2               	movwf	(___flmul@b+2)^(0+128)
  2961  0D02  303E               	movlw	62
  2962  0D03  00A1               	movwf	(___flmul@b+1)^(0+128)
  2963  0D04  3090               	movlw	144
  2964  0D05  00A0               	movwf	___flmul@b^(0+128)
  2965  0D06  118A  203A  158A   	fcall	___flmul
  2966  0D09  1683               	bsf	3,5	;RP0=1, select bank1
  2967  0D0A  1303               	bcf	3,6	;RP1=0, select bank1
  2968  0D0B  0823               	movf	(?___flmul+3)^(0+128),w
  2969  0D0C  00B8               	movwf	(___fltol@f1+3)^(0+128)
  2970  0D0D  0822               	movf	(?___flmul+2)^(0+128),w
  2971  0D0E  00B7               	movwf	(___fltol@f1+2)^(0+128)
  2972  0D0F  0821               	movf	(?___flmul+1)^(0+128),w
  2973  0D10  00B6               	movwf	(___fltol@f1+1)^(0+128)
  2974  0D11  0820               	movf	?___flmul^(0+128),w
  2975  0D12  00B5               	movwf	___fltol@f1^(0+128)
  2976  0D13  158A  260C  158A   	fcall	___fltol
  2977  0D16  1683               	bsf	3,5	;RP0=1, select bank1
  2978  0D17  1303               	bcf	3,6	;RP1=0, select bank1
  2979  0D18  0836               	movf	(?___fltol+1)^(0+128),w
  2980  0D19  00C1               	movwf	(getTemperatureInt@temp+1)^(0+128)
  2981  0D1A  0835               	movf	?___fltol^(0+128),w
  2982  0D1B  00C0               	movwf	getTemperatureInt@temp^(0+128)
  2983  0D1C                     l2822:	
  2984                           
  2985                           ;termometroDiferencial.c: 175:     return temp;
  2986  0D1C  0841               	movf	(getTemperatureInt@temp+1)^(0+128),w
  2987  0D1D  00BF               	movwf	(?_getTemperatureInt+1)^(0+128)
  2988  0D1E  0840               	movf	getTemperatureInt@temp^(0+128),w
  2989  0D1F  00BE               	movwf	?_getTemperatureInt^(0+128)
  2990  0D20                     l134:	
  2991  0D20  0008               	return
  2992  0D21                     __end_of_getTemperatureInt:	
  2993                           
  2994                           	psect	text13
  2995  08FB                     __ptext13:	
  2996 ;; *************** function _getVoltaje *****************
  2997 ;; Defined at:
  2998 ;;		line 159 in file "termometroDiferencial.c"
  2999 ;; Parameters:    Size  Location     Type
  3000 ;;		None
  3001 ;; Auto vars:     Size  Location     Type
  3002 ;;		None
  3003 ;; Return value:  Size  Location     Type
  3004 ;;                  2   26[BANK0 ] int 
  3005 ;; Registers used:
  3006 ;;		wreg
  3007 ;; Tracked objects:
  3008 ;;		On entry : 0/0
  3009 ;;		On exit  : 0/0
  3010 ;;		Unchanged: 0/0
  3011 ;; Data sizes:     COMMON   BANK0   BANK1
  3012 ;;      Params:         0       2       0
  3013 ;;      Locals:         0       0       0
  3014 ;;      Temps:          0       0       0
  3015 ;;      Totals:         0       2       0
  3016 ;;Total ram usage:        2 bytes
  3017 ;; Hardware stack levels used:    1
  3018 ;; Hardware stack levels required when called:    6
  3019 ;; This function calls:
  3020 ;;		Nothing
  3021 ;; This function is called by:
  3022 ;;		_getTemperatureInt
  3023 ;;		_getTemperatureString
  3024 ;; This function uses a non-reentrant model
  3025 ;;
  3026                           
  3027                           
  3028                           ;psect for function _getVoltaje
  3029  08FB                     _getVoltaje:	
  3030  08FB                     l1854:	
  3031                           ;incstack = 0
  3032 ;; hardware stack exceeded
  3033                           ; Regs used in _getVoltaje: [wreg]
  3034                           
  3035                           
  3036                           ;termometroDiferencial.c: 160:     GO = 1;
  3037  08FB  1283               	bcf	3,5	;RP0=0, select bank0
  3038  08FC  1303               	bcf	3,6	;RP1=0, select bank0
  3039  08FD  151F               	bsf	31,2	;volatile
  3040  08FE                     l128:	
  3041                           ;termometroDiferencial.c: 162:     };
  3042                           
  3043                           
  3044                           ;termometroDiferencial.c: 161:     while (GO) {
  3045  08FE  191F               	btfsc	31,2	;volatile
  3046  08FF  2901               	goto	u1571
  3047  0900  2902               	goto	u1570
  3048  0901                     u1571:	
  3049  0901  28FE               	goto	l128
  3050  0902                     u1570:	
  3051  0902                     l1856:	
  3052                           
  3053                           ;termometroDiferencial.c: 163:     return ADRESH * 256 + ADRESL;
  3054  0902  081E               	movf	30,w	;volatile
  3055  0903  00BB               	movwf	?_getVoltaje+1
  3056  0904  1683               	bsf	3,5	;RP0=1, select bank1
  3057  0905  1303               	bcf	3,6	;RP1=0, select bank1
  3058  0906  081E               	movf	30,w	;volatile
  3059  0907  1283               	bcf	3,5	;RP0=0, select bank0
  3060  0908  1303               	bcf	3,6	;RP1=0, select bank0
  3061  0909  00BA               	movwf	?_getVoltaje
  3062  090A                     l131:	
  3063  090A  0008               	return
  3064  090B                     __end_of_getVoltaje:	
  3065                           
  3066                           	psect	text14
  3067  0F44                     __ptext14:	
  3068 ;; *************** function ___xxtofl *****************
  3069 ;; Defined at:
  3070 ;;		line 10 in file "C:\Program Files (x86)\Microchip\xc8\v2.10\pic\sources\c90\common\xxtofl.c"
  3071 ;; Parameters:    Size  Location     Type
  3072 ;;  sign            1    wreg     unsigned char 
  3073 ;;  val             4   28[BANK0 ] long 
  3074 ;; Auto vars:     Size  Location     Type
  3075 ;;  sign            1   36[BANK0 ] unsigned char 
  3076 ;;  arg             4   38[BANK0 ] unsigned long 
  3077 ;;  exp             1   37[BANK0 ] unsigned char 
  3078 ;; Return value:  Size  Location     Type
  3079 ;;                  4   28[BANK0 ] unsigned char 
  3080 ;; Registers used:
  3081 ;;		wreg, status,2, status,0
  3082 ;; Tracked objects:
  3083 ;;		On entry : 0/0
  3084 ;;		On exit  : 0/0
  3085 ;;		Unchanged: 0/0
  3086 ;; Data sizes:     COMMON   BANK0   BANK1
  3087 ;;      Params:         0       4       0
  3088 ;;      Locals:         0       6       0
  3089 ;;      Temps:          0       4       0
  3090 ;;      Totals:         0      14       0
  3091 ;;Total ram usage:       14 bytes
  3092 ;; Hardware stack levels used:    1
  3093 ;; Hardware stack levels required when called:    6
  3094 ;; This function calls:
  3095 ;;		Nothing
  3096 ;; This function is called by:
  3097 ;;		_getTemperatureInt
  3098 ;;		_getTemperatureString
  3099 ;; This function uses a non-reentrant model
  3100 ;;
  3101                           
  3102                           
  3103                           ;psect for function ___xxtofl
  3104  0F44                     ___xxtofl:	
  3105                           
  3106                           ;incstack = 0
  3107 ;; hardware stack exceeded
  3108                           ; Regs used in ___xxtofl: [wreg+status,2+status,0]
  3109                           ;___xxtofl@sign stored from wreg
  3110  0F44  1283               	bcf	3,5	;RP0=0, select bank0
  3111  0F45  1303               	bcf	3,6	;RP1=0, select bank0
  3112  0F46  00C4               	movwf	___xxtofl@sign
  3113  0F47                     l2130:	
  3114  0F47  0844               	movf	___xxtofl@sign,w
  3115  0F48  1903               	btfsc	3,2
  3116  0F49  2F4B               	goto	u2201
  3117  0F4A  2F4C               	goto	u2200
  3118  0F4B                     u2201:	
  3119  0F4B  2F60               	goto	l2136
  3120  0F4C                     u2200:	
  3121  0F4C                     l2132:	
  3122  0F4C  1FBF               	btfss	___xxtofl@val+3,7
  3123  0F4D  2F4F               	goto	u2211
  3124  0F4E  2F50               	goto	u2210
  3125  0F4F                     u2211:	
  3126  0F4F  2F60               	goto	l2136
  3127  0F50                     u2210:	
  3128  0F50                     l2134:	
  3129  0F50  093C               	comf	___xxtofl@val,w
  3130  0F51  00C6               	movwf	___xxtofl@arg
  3131  0F52  093D               	comf	___xxtofl@val+1,w
  3132  0F53  00C7               	movwf	___xxtofl@arg+1
  3133  0F54  093E               	comf	___xxtofl@val+2,w
  3134  0F55  00C8               	movwf	___xxtofl@arg+2
  3135  0F56  093F               	comf	___xxtofl@val+3,w
  3136  0F57  00C9               	movwf	___xxtofl@arg+3
  3137  0F58  0AC6               	incf	___xxtofl@arg,f
  3138  0F59  1903               	skipnz
  3139  0F5A  0AC7               	incf	___xxtofl@arg+1,f
  3140  0F5B  1903               	skipnz
  3141  0F5C  0AC8               	incf	___xxtofl@arg+2,f
  3142  0F5D  1903               	skipnz
  3143  0F5E  0AC9               	incf	___xxtofl@arg+3,f
  3144  0F5F  2F68               	goto	l768
  3145  0F60                     l2136:	
  3146  0F60  083F               	movf	___xxtofl@val+3,w
  3147  0F61  00C9               	movwf	___xxtofl@arg+3
  3148  0F62  083E               	movf	___xxtofl@val+2,w
  3149  0F63  00C8               	movwf	___xxtofl@arg+2
  3150  0F64  083D               	movf	___xxtofl@val+1,w
  3151  0F65  00C7               	movwf	___xxtofl@arg+1
  3152  0F66  083C               	movf	___xxtofl@val,w
  3153  0F67  00C6               	movwf	___xxtofl@arg
  3154  0F68                     l768:	
  3155  0F68  083F               	movf	___xxtofl@val+3,w
  3156  0F69  043E               	iorwf	___xxtofl@val+2,w
  3157  0F6A  043D               	iorwf	___xxtofl@val+1,w
  3158  0F6B  043C               	iorwf	___xxtofl@val,w
  3159  0F6C  1D03               	skipz
  3160  0F6D  2F6F               	goto	u2221
  3161  0F6E  2F70               	goto	u2220
  3162  0F6F                     u2221:	
  3163  0F6F  2F79               	goto	l2142
  3164  0F70                     u2220:	
  3165  0F70                     l2138:	
  3166  0F70  3000               	movlw	0
  3167  0F71  00BF               	movwf	?___xxtofl+3
  3168  0F72  3000               	movlw	0
  3169  0F73  00BE               	movwf	?___xxtofl+2
  3170  0F74  3000               	movlw	0
  3171  0F75  00BD               	movwf	?___xxtofl+1
  3172  0F76  3000               	movlw	0
  3173  0F77  00BC               	movwf	?___xxtofl
  3174  0F78  2FFF               	goto	l770
  3175  0F79                     l2142:	
  3176  0F79  3096               	movlw	150
  3177  0F7A  00C0               	movwf	??___xxtofl
  3178  0F7B  0840               	movf	??___xxtofl,w
  3179  0F7C  00C5               	movwf	___xxtofl@exp
  3180  0F7D  2F8B               	goto	l2146
  3181  0F7E                     l2144:	
  3182  0F7E  3001               	movlw	1
  3183  0F7F  00C0               	movwf	??___xxtofl
  3184  0F80  0840               	movf	??___xxtofl,w
  3185  0F81  07C5               	addwf	___xxtofl@exp,f
  3186  0F82  3001               	movlw	1
  3187  0F83                     u2235:	
  3188  0F83  1003               	clrc
  3189  0F84  0CC9               	rrf	___xxtofl@arg+3,f
  3190  0F85  0CC8               	rrf	___xxtofl@arg+2,f
  3191  0F86  0CC7               	rrf	___xxtofl@arg+1,f
  3192  0F87  0CC6               	rrf	___xxtofl@arg,f
  3193  0F88  3EFF               	addlw	-1
  3194  0F89  1D03               	skipz
  3195  0F8A  2F83               	goto	u2235
  3196  0F8B                     l2146:	
  3197  0F8B  30FE               	movlw	254
  3198  0F8C  0549               	andwf	___xxtofl@arg+3,w
  3199  0F8D  1D03               	btfss	3,2
  3200  0F8E  2F90               	goto	u2241
  3201  0F8F  2F91               	goto	u2240
  3202  0F90                     u2241:	
  3203  0F90  2F7E               	goto	l2144
  3204  0F91                     u2240:	
  3205  0F91  2FAD               	goto	l774
  3206  0F92                     l2148:	
  3207  0F92  3001               	movlw	1
  3208  0F93  00C0               	movwf	??___xxtofl
  3209  0F94  0840               	movf	??___xxtofl,w
  3210  0F95  07C5               	addwf	___xxtofl@exp,f
  3211  0F96                     l2150:	
  3212  0F96  3001               	movlw	1
  3213  0F97  07C6               	addwf	___xxtofl@arg,f
  3214  0F98  3000               	movlw	0
  3215  0F99  1803               	skipnc
  3216  0F9A  3001               	movlw	1
  3217  0F9B  07C7               	addwf	___xxtofl@arg+1,f
  3218  0F9C  3000               	movlw	0
  3219  0F9D  1803               	skipnc
  3220  0F9E  3001               	movlw	1
  3221  0F9F  07C8               	addwf	___xxtofl@arg+2,f
  3222  0FA0  3000               	movlw	0
  3223  0FA1  1803               	skipnc
  3224  0FA2  3001               	movlw	1
  3225  0FA3  07C9               	addwf	___xxtofl@arg+3,f
  3226  0FA4                     l2152:	
  3227  0FA4  3001               	movlw	1
  3228  0FA5                     u2255:	
  3229  0FA5  1003               	clrc
  3230  0FA6  0CC9               	rrf	___xxtofl@arg+3,f
  3231  0FA7  0CC8               	rrf	___xxtofl@arg+2,f
  3232  0FA8  0CC7               	rrf	___xxtofl@arg+1,f
  3233  0FA9  0CC6               	rrf	___xxtofl@arg,f
  3234  0FAA  3EFF               	addlw	-1
  3235  0FAB  1D03               	skipz
  3236  0FAC  2FA5               	goto	u2255
  3237  0FAD                     l774:	
  3238  0FAD  30FF               	movlw	255
  3239  0FAE  0549               	andwf	___xxtofl@arg+3,w
  3240  0FAF  1D03               	btfss	3,2
  3241  0FB0  2FB2               	goto	u2261
  3242  0FB1  2FB3               	goto	u2260
  3243  0FB2                     u2261:	
  3244  0FB2  2F92               	goto	l2148
  3245  0FB3                     u2260:	
  3246  0FB3  2FBF               	goto	l2156
  3247  0FB4                     l2154:	
  3248  0FB4  3001               	movlw	1
  3249  0FB5  02C5               	subwf	___xxtofl@exp,f
  3250  0FB6  3001               	movlw	1
  3251  0FB7  00C0               	movwf	??___xxtofl
  3252  0FB8                     u2275:	
  3253  0FB8  1003               	clrc
  3254  0FB9  0DC6               	rlf	___xxtofl@arg,f
  3255  0FBA  0DC7               	rlf	___xxtofl@arg+1,f
  3256  0FBB  0DC8               	rlf	___xxtofl@arg+2,f
  3257  0FBC  0DC9               	rlf	___xxtofl@arg+3,f
  3258  0FBD  0BC0               	decfsz	??___xxtofl,f
  3259  0FBE  2FB8               	goto	u2275
  3260  0FBF                     l2156:	
  3261  0FBF  1BC8               	btfsc	___xxtofl@arg+2,7
  3262  0FC0  2FC2               	goto	u2281
  3263  0FC1  2FC3               	goto	u2280
  3264  0FC2                     u2281:	
  3265  0FC2  2FC9               	goto	l781
  3266  0FC3                     u2280:	
  3267  0FC3                     l2158:	
  3268  0FC3  3002               	movlw	2
  3269  0FC4  0245               	subwf	___xxtofl@exp,w
  3270  0FC5  1803               	skipnc
  3271  0FC6  2FC8               	goto	u2291
  3272  0FC7  2FC9               	goto	u2290
  3273  0FC8                     u2291:	
  3274  0FC8  2FB4               	goto	l2154
  3275  0FC9                     u2290:	
  3276  0FC9                     l781:	
  3277  0FC9  1845               	btfsc	___xxtofl@exp,0
  3278  0FCA  2FCC               	goto	u2301
  3279  0FCB  2FCD               	goto	u2300
  3280  0FCC                     u2301:	
  3281  0FCC  2FD5               	goto	l782
  3282  0FCD                     u2300:	
  3283  0FCD                     l2160:	
  3284  0FCD  30FF               	movlw	255
  3285  0FCE  05C6               	andwf	___xxtofl@arg,f
  3286  0FCF  30FF               	movlw	255
  3287  0FD0  05C7               	andwf	___xxtofl@arg+1,f
  3288  0FD1  307F               	movlw	127
  3289  0FD2  05C8               	andwf	___xxtofl@arg+2,f
  3290  0FD3  30FF               	movlw	255
  3291  0FD4  05C9               	andwf	___xxtofl@arg+3,f
  3292  0FD5                     l782:	
  3293  0FD5  1003               	clrc
  3294  0FD6  0CC5               	rrf	___xxtofl@exp,f
  3295  0FD7                     l2162:	
  3296  0FD7  0845               	movf	___xxtofl@exp,w
  3297  0FD8  00C0               	movwf	??___xxtofl
  3298  0FD9  01C1               	clrf	??___xxtofl+1
  3299  0FDA  01C2               	clrf	??___xxtofl+2
  3300  0FDB  01C3               	clrf	??___xxtofl+3
  3301  0FDC  3018               	movlw	24
  3302  0FDD                     u2315:	
  3303  0FDD  1003               	clrc
  3304  0FDE  0DC0               	rlf	??___xxtofl,f
  3305  0FDF  0DC1               	rlf	??___xxtofl+1,f
  3306  0FE0  0DC2               	rlf	??___xxtofl+2,f
  3307  0FE1  0DC3               	rlf	??___xxtofl+3,f
  3308  0FE2                     u2310:	
  3309  0FE2  3EFF               	addlw	-1
  3310  0FE3  1D03               	skipz
  3311  0FE4  2FDD               	goto	u2315
  3312  0FE5  0840               	movf	??___xxtofl,w
  3313  0FE6  04C6               	iorwf	___xxtofl@arg,f
  3314  0FE7  0841               	movf	??___xxtofl+1,w
  3315  0FE8  04C7               	iorwf	___xxtofl@arg+1,f
  3316  0FE9  0842               	movf	??___xxtofl+2,w
  3317  0FEA  04C8               	iorwf	___xxtofl@arg+2,f
  3318  0FEB  0843               	movf	??___xxtofl+3,w
  3319  0FEC  04C9               	iorwf	___xxtofl@arg+3,f
  3320  0FED                     l2164:	
  3321  0FED  0844               	movf	___xxtofl@sign,w
  3322  0FEE  1903               	btfsc	3,2
  3323  0FEF  2FF1               	goto	u2321
  3324  0FF0  2FF2               	goto	u2320
  3325  0FF1                     u2321:	
  3326  0FF1  2FF7               	goto	l2170
  3327  0FF2                     u2320:	
  3328  0FF2                     l2166:	
  3329  0FF2  1FBF               	btfss	___xxtofl@val+3,7
  3330  0FF3  2FF5               	goto	u2331
  3331  0FF4  2FF6               	goto	u2330
  3332  0FF5                     u2331:	
  3333  0FF5  2FF7               	goto	l2170
  3334  0FF6                     u2330:	
  3335  0FF6                     l2168:	
  3336  0FF6  17C9               	bsf	___xxtofl@arg+3,7
  3337  0FF7                     l2170:	
  3338  0FF7  0849               	movf	___xxtofl@arg+3,w
  3339  0FF8  00BF               	movwf	?___xxtofl+3
  3340  0FF9  0848               	movf	___xxtofl@arg+2,w
  3341  0FFA  00BE               	movwf	?___xxtofl+2
  3342  0FFB  0847               	movf	___xxtofl@arg+1,w
  3343  0FFC  00BD               	movwf	?___xxtofl+1
  3344  0FFD  0846               	movf	___xxtofl@arg,w
  3345  0FFE  00BC               	movwf	?___xxtofl
  3346  0FFF                     l770:	
  3347  0FFF  0008               	return
  3348  1000                     __end_of___xxtofl:	
  3349                           
  3350                           	psect	text15
  3351  0E0C                     __ptext15:	
  3352 ;; *************** function ___fltol *****************
  3353 ;; Defined at:
  3354 ;;		line 43 in file "C:\Program Files (x86)\Microchip\xc8\v2.10\pic\sources\c90\common\fltol.c"
  3355 ;; Parameters:    Size  Location     Type
  3356 ;;  f1              4   21[BANK1 ] unsigned char 
  3357 ;; Auto vars:     Size  Location     Type
  3358 ;;  exp1            1   48[BANK0 ] unsigned char 
  3359 ;;  sign1           1   47[BANK0 ] unsigned char 
  3360 ;; Return value:  Size  Location     Type
  3361 ;;                  4   21[BANK1 ] long 
  3362 ;; Registers used:
  3363 ;;		wreg, status,2, status,0
  3364 ;; Tracked objects:
  3365 ;;		On entry : 0/0
  3366 ;;		On exit  : 0/0
  3367 ;;		Unchanged: 0/0
  3368 ;; Data sizes:     COMMON   BANK0   BANK1
  3369 ;;      Params:         0       0       4
  3370 ;;      Locals:         0       2       0
  3371 ;;      Temps:          0       0       5
  3372 ;;      Totals:         0       2       9
  3373 ;;Total ram usage:       11 bytes
  3374 ;; Hardware stack levels used:    1
  3375 ;; Hardware stack levels required when called:    6
  3376 ;; This function calls:
  3377 ;;		Nothing
  3378 ;; This function is called by:
  3379 ;;		_getTemperatureInt
  3380 ;;		_getTemperatureString
  3381 ;; This function uses a non-reentrant model
  3382 ;;
  3383                           
  3384                           
  3385                           ;psect for function ___fltol
  3386  0E0C                     ___fltol:	
  3387  0E0C                     l2644:	
  3388                           ;incstack = 0
  3389 ;; hardware stack exceeded
  3390                           ; Regs used in ___fltol: [wreg+status,2+status,0]
  3391                           
  3392  0E0C  1003               	clrc
  3393  0E0D  1683               	bsf	3,5	;RP0=1, select bank1
  3394  0E0E  1303               	bcf	3,6	;RP1=0, select bank1
  3395  0E0F  0D37               	rlf	(___fltol@f1+2)^(0+128),w
  3396  0E10  0D38               	rlf	(___fltol@f1+3)^(0+128),w
  3397  0E11  00B9               	movwf	??___fltol^(0+128)
  3398  0E12  0839               	movf	??___fltol^(0+128),w
  3399  0E13  1283               	bcf	3,5	;RP0=0, select bank0
  3400  0E14  1303               	bcf	3,6	;RP1=0, select bank0
  3401  0E15  00D0               	movwf	___fltol@exp1
  3402  0E16  0850               	movf	___fltol@exp1,w
  3403  0E17  1D03               	btfss	3,2
  3404  0E18  2E1A               	goto	u2841
  3405  0E19  2E1B               	goto	u2840
  3406  0E1A                     u2841:	
  3407  0E1A  2E26               	goto	l2650
  3408  0E1B                     u2840:	
  3409  0E1B                     l2646:	
  3410  0E1B  3000               	movlw	0
  3411  0E1C  1683               	bsf	3,5	;RP0=1, select bank1
  3412  0E1D  1303               	bcf	3,6	;RP1=0, select bank1
  3413  0E1E  00B8               	movwf	(?___fltol+3)^(0+128)
  3414  0E1F  3000               	movlw	0
  3415  0E20  00B7               	movwf	(?___fltol+2)^(0+128)
  3416  0E21  3000               	movlw	0
  3417  0E22  00B6               	movwf	(?___fltol+1)^(0+128)
  3418  0E23  3000               	movlw	0
  3419  0E24  00B5               	movwf	?___fltol^(0+128)
  3420  0E25  2E9D               	goto	l527
  3421  0E26                     l2650:	
  3422  0E26  1683               	bsf	3,5	;RP0=1, select bank1
  3423  0E27  1303               	bcf	3,6	;RP1=0, select bank1
  3424  0E28  0835               	movf	___fltol@f1^(0+128),w
  3425  0E29  00B9               	movwf	??___fltol^(0+128)
  3426  0E2A  0836               	movf	(___fltol@f1+1)^(0+128),w
  3427  0E2B  00BA               	movwf	(??___fltol^(0+128)+1)
  3428  0E2C  0837               	movf	(___fltol@f1+2)^(0+128),w
  3429  0E2D  00BB               	movwf	(??___fltol^(0+128)+2)
  3430  0E2E  0838               	movf	(___fltol@f1+3)^(0+128),w
  3431  0E2F  00BC               	movwf	(??___fltol^(0+128)+3)
  3432  0E30  301F               	movlw	31
  3433  0E31                     u2855:	
  3434  0E31  1003               	clrc
  3435  0E32  0CBC               	rrf	(??___fltol^(0+128)+3),f
  3436  0E33  0CBB               	rrf	(??___fltol^(0+128)+2),f
  3437  0E34  0CBA               	rrf	(??___fltol^(0+128)+1),f
  3438  0E35  0CB9               	rrf	??___fltol^(0+128),f
  3439  0E36                     u2850:	
  3440  0E36  3EFF               	addlw	-1
  3441  0E37  1D03               	skipz
  3442  0E38  2E31               	goto	u2855
  3443  0E39  0839               	movf	??___fltol^(0+128),w
  3444  0E3A  00BD               	movwf	(??___fltol+4)^(0+128)
  3445  0E3B  083D               	movf	(??___fltol+4)^(0+128),w
  3446  0E3C  1283               	bcf	3,5	;RP0=0, select bank0
  3447  0E3D  1303               	bcf	3,6	;RP1=0, select bank0
  3448  0E3E  00CF               	movwf	___fltol@sign1
  3449  0E3F                     l2652:	
  3450  0E3F  1683               	bsf	3,5	;RP0=1, select bank1
  3451  0E40  1303               	bcf	3,6	;RP1=0, select bank1
  3452  0E41  17B7               	bsf	(___fltol@f1^(0+128)+2),7
  3453  0E42                     l2654:	
  3454  0E42  30FF               	movlw	255
  3455  0E43  05B5               	andwf	___fltol@f1^(0+128),f
  3456  0E44  30FF               	movlw	255
  3457  0E45  05B6               	andwf	(___fltol@f1+1)^(0+128),f
  3458  0E46  30FF               	movlw	255
  3459  0E47  05B7               	andwf	(___fltol@f1+2)^(0+128),f
  3460  0E48  3000               	movlw	0
  3461  0E49  05B8               	andwf	(___fltol@f1+3)^(0+128),f
  3462  0E4A                     l2656:	
  3463  0E4A  3096               	movlw	150
  3464  0E4B  1283               	bcf	3,5	;RP0=0, select bank0
  3465  0E4C  1303               	bcf	3,6	;RP1=0, select bank0
  3466  0E4D  02D0               	subwf	___fltol@exp1,f
  3467  0E4E                     l2658:	
  3468  0E4E  1FD0               	btfss	___fltol@exp1,7
  3469  0E4F  2E51               	goto	u2861
  3470  0E50  2E52               	goto	u2860
  3471  0E51                     u2861:	
  3472  0E51  2E70               	goto	l2668
  3473  0E52                     u2860:	
  3474  0E52                     l2660:	
  3475  0E52  0850               	movf	___fltol@exp1,w
  3476  0E53  3A80               	xorlw	128
  3477  0E54  3E97               	addlw	151
  3478  0E55  1803               	skipnc
  3479  0E56  2E58               	goto	u2871
  3480  0E57  2E59               	goto	u2870
  3481  0E58                     u2871:	
  3482  0E58  2E5A               	goto	l2666
  3483  0E59                     u2870:	
  3484  0E59  2E1B               	goto	l2646
  3485  0E5A                     l2666:	
  3486  0E5A  3001               	movlw	1
  3487  0E5B                     u2885:	
  3488  0E5B  1003               	clrc
  3489  0E5C  1683               	bsf	3,5	;RP0=1, select bank1
  3490  0E5D  1303               	bcf	3,6	;RP1=0, select bank1
  3491  0E5E  0CB8               	rrf	(___fltol@f1+3)^(0+128),f
  3492  0E5F  0CB7               	rrf	(___fltol@f1+2)^(0+128),f
  3493  0E60  0CB6               	rrf	(___fltol@f1+1)^(0+128),f
  3494  0E61  0CB5               	rrf	___fltol@f1^(0+128),f
  3495  0E62  3EFF               	addlw	-1
  3496  0E63  1D03               	skipz
  3497  0E64  2E5B               	goto	u2885
  3498  0E65  3001               	movlw	1
  3499  0E66  00B9               	movwf	??___fltol^(0+128)
  3500  0E67  0839               	movf	??___fltol^(0+128),w
  3501  0E68  1283               	bcf	3,5	;RP0=0, select bank0
  3502  0E69  1303               	bcf	3,6	;RP1=0, select bank0
  3503  0E6A  07D0               	addwf	___fltol@exp1,f
  3504  0E6B  1D03               	btfss	3,2
  3505  0E6C  2E6E               	goto	u2891
  3506  0E6D  2E6F               	goto	u2890
  3507  0E6E                     u2891:	
  3508  0E6E  2E5A               	goto	l2666
  3509  0E6F                     u2890:	
  3510  0E6F  2E8B               	goto	l2676
  3511  0E70                     l2668:	
  3512  0E70  3020               	movlw	32
  3513  0E71  0250               	subwf	___fltol@exp1,w
  3514  0E72  1C03               	skipc
  3515  0E73  2E75               	goto	u2901
  3516  0E74  2E76               	goto	u2900
  3517  0E75                     u2901:	
  3518  0E75  2E86               	goto	l534
  3519  0E76                     u2900:	
  3520  0E76  2E1B               	goto	l2646
  3521  0E77                     l2674:	
  3522  0E77  3001               	movlw	1
  3523  0E78  1683               	bsf	3,5	;RP0=1, select bank1
  3524  0E79  1303               	bcf	3,6	;RP1=0, select bank1
  3525  0E7A  00B9               	movwf	??___fltol^(0+128)
  3526  0E7B                     u2915:	
  3527  0E7B  1003               	clrc
  3528  0E7C  0DB5               	rlf	___fltol@f1^(0+128),f
  3529  0E7D  0DB6               	rlf	(___fltol@f1+1)^(0+128),f
  3530  0E7E  0DB7               	rlf	(___fltol@f1+2)^(0+128),f
  3531  0E7F  0DB8               	rlf	(___fltol@f1+3)^(0+128),f
  3532  0E80  0BB9               	decfsz	??___fltol^(0+128),f
  3533  0E81  2E7B               	goto	u2915
  3534  0E82  3001               	movlw	1
  3535  0E83  1283               	bcf	3,5	;RP0=0, select bank0
  3536  0E84  1303               	bcf	3,6	;RP1=0, select bank0
  3537  0E85  02D0               	subwf	___fltol@exp1,f
  3538  0E86                     l534:	
  3539  0E86  0850               	movf	___fltol@exp1,w
  3540  0E87  1D03               	btfss	3,2
  3541  0E88  2E8A               	goto	u2921
  3542  0E89  2E8B               	goto	u2920
  3543  0E8A                     u2921:	
  3544  0E8A  2E77               	goto	l2674
  3545  0E8B                     u2920:	
  3546  0E8B                     l2676:	
  3547  0E8B  084F               	movf	___fltol@sign1,w
  3548  0E8C  1903               	btfsc	3,2
  3549  0E8D  2E8F               	goto	u2931
  3550  0E8E  2E90               	goto	u2930
  3551  0E8F                     u2931:	
  3552  0E8F  2E9D               	goto	l537
  3553  0E90                     u2930:	
  3554  0E90                     l2678:	
  3555  0E90  1683               	bsf	3,5	;RP0=1, select bank1
  3556  0E91  1303               	bcf	3,6	;RP1=0, select bank1
  3557  0E92  09B5               	comf	___fltol@f1^(0+128),f
  3558  0E93  09B6               	comf	(___fltol@f1+1)^(0+128),f
  3559  0E94  09B7               	comf	(___fltol@f1+2)^(0+128),f
  3560  0E95  09B8               	comf	(___fltol@f1+3)^(0+128),f
  3561  0E96  0AB5               	incf	___fltol@f1^(0+128),f
  3562  0E97  1903               	skipnz
  3563  0E98  0AB6               	incf	(___fltol@f1+1)^(0+128),f
  3564  0E99  1903               	skipnz
  3565  0E9A  0AB7               	incf	(___fltol@f1+2)^(0+128),f
  3566  0E9B  1903               	skipnz
  3567  0E9C  0AB8               	incf	(___fltol@f1+3)^(0+128),f
  3568  0E9D                     l537:	
  3569  0E9D                     l527:	
  3570  0E9D  0008               	return
  3571  0E9E                     __end_of___fltol:	
  3572                           
  3573                           	psect	text16
  3574  003A                     __ptext16:	
  3575 ;; *************** function ___flmul *****************
  3576 ;; Defined at:
  3577 ;;		line 8 in file "C:\Program Files (x86)\Microchip\xc8\v2.10\pic\sources\c90\common\sprcmul.c"
  3578 ;; Parameters:    Size  Location     Type
  3579 ;;  b               4    0[BANK1 ] long 
  3580 ;;  a               4    4[BANK1 ] long 
  3581 ;; Auto vars:     Size  Location     Type
  3582 ;;  prod            4   15[BANK1 ] struct .
  3583 ;;  grs             4   10[BANK1 ] unsigned long 
  3584 ;;  temp            2   19[BANK1 ] struct .
  3585 ;;  bexp            1   14[BANK1 ] unsigned char 
  3586 ;;  aexp            1    9[BANK1 ] unsigned char 
  3587 ;;  sign            1    8[BANK1 ] unsigned char 
  3588 ;; Return value:  Size  Location     Type
  3589 ;;                  4    0[BANK1 ] unsigned char 
  3590 ;; Registers used:
  3591 ;;		wreg, status,2, status,0, btemp+1, pclath, cstack
  3592 ;; Tracked objects:
  3593 ;;		On entry : 0/0
  3594 ;;		On exit  : 0/0
  3595 ;;		Unchanged: 0/0
  3596 ;; Data sizes:     COMMON   BANK0   BANK1
  3597 ;;      Params:         0       0       8
  3598 ;;      Locals:         0       0      13
  3599 ;;      Temps:          0       5       0
  3600 ;;      Totals:         0       5      21
  3601 ;;Total ram usage:       26 bytes
  3602 ;; Hardware stack levels used:    1
  3603 ;; Hardware stack levels required when called:    7
  3604 ;; This function calls:
  3605 ;;		__Umul8_16
  3606 ;; This function is called by:
  3607 ;;		_getTemperatureInt
  3608 ;;		_getTemperatureString
  3609 ;; This function uses a non-reentrant model
  3610 ;;
  3611                           
  3612                           
  3613                           ;psect for function ___flmul
  3614  003A                     ___flmul:	
  3615  003A                     l2680:	
  3616                           ;incstack = 0
  3617 ;; hardware stack exceeded
  3618                           ; Regs used in ___flmul: [wreg+status,2+status,0+btemp+1+pclath+cstack]
  3619                           
  3620  003A  1683               	bsf	3,5	;RP0=1, select bank1
  3621  003B  1303               	bcf	3,6	;RP1=0, select bank1
  3622  003C  0823               	movf	(___flmul@b^(0+128)+3),w
  3623  003D  3980               	andlw	128
  3624  003E  1283               	bcf	3,5	;RP0=0, select bank0
  3625  003F  1303               	bcf	3,6	;RP1=0, select bank0
  3626  0040  00CA               	movwf	??___flmul
  3627  0041  084A               	movf	??___flmul,w
  3628  0042  1683               	bsf	3,5	;RP0=1, select bank1
  3629  0043  1303               	bcf	3,6	;RP1=0, select bank1
  3630  0044  00A8               	movwf	___flmul@sign^(0+128)
  3631  0045                     l2682:	
  3632  0045  0823               	movf	(___flmul@b^(0+128)+3),w
  3633  0046  1283               	bcf	3,5	;RP0=0, select bank0
  3634  0047  1303               	bcf	3,6	;RP1=0, select bank0
  3635  0048  00CA               	movwf	??___flmul
  3636  0049  074A               	addwf	??___flmul,w
  3637  004A  00CB               	movwf	??___flmul+1
  3638  004B  084B               	movf	??___flmul+1,w
  3639  004C  1683               	bsf	3,5	;RP0=1, select bank1
  3640  004D  1303               	bcf	3,6	;RP1=0, select bank1
  3641  004E  00AE               	movwf	___flmul@bexp^(0+128)
  3642  004F                     l2684:	
  3643  004F  1FA2               	btfss	(___flmul@b^(0+128)+2),7
  3644  0050  2852               	goto	u2941
  3645  0051  2853               	goto	u2940
  3646  0052                     u2941:	
  3647  0052  2854               	goto	l2688
  3648  0053                     u2940:	
  3649  0053                     l2686:	
  3650  0053  142E               	bsf	___flmul@bexp^(0+128),0
  3651  0054                     l2688:	
  3652  0054  082E               	movf	___flmul@bexp^(0+128),w
  3653  0055  1903               	btfsc	3,2
  3654  0056  2858               	goto	u2951
  3655  0057  2859               	goto	u2950
  3656  0058                     u2951:	
  3657  0058  2868               	goto	l2696
  3658  0059                     u2950:	
  3659  0059                     l2690:	
  3660  0059  0A2E               	incf	___flmul@bexp^(0+128),w
  3661  005A  1D03               	btfss	3,2
  3662  005B  285D               	goto	u2961
  3663  005C  285E               	goto	u2960
  3664  005D                     u2961:	
  3665  005D  2866               	goto	l2694
  3666  005E                     u2960:	
  3667  005E                     l2692:	
  3668  005E  3000               	movlw	0
  3669  005F  00A3               	movwf	(___flmul@b+3)^(0+128)
  3670  0060  3000               	movlw	0
  3671  0061  00A2               	movwf	(___flmul@b+2)^(0+128)
  3672  0062  3000               	movlw	0
  3673  0063  00A1               	movwf	(___flmul@b+1)^(0+128)
  3674  0064  3000               	movlw	0
  3675  0065  00A0               	movwf	___flmul@b^(0+128)
  3676  0066                     l2694:	
  3677  0066  17A2               	bsf	(___flmul@b^(0+128)+2),7
  3678  0067  2870               	goto	l2698
  3679  0068                     l2696:	
  3680  0068  3000               	movlw	0
  3681  0069  00A3               	movwf	(___flmul@b+3)^(0+128)
  3682  006A  3000               	movlw	0
  3683  006B  00A2               	movwf	(___flmul@b+2)^(0+128)
  3684  006C  3000               	movlw	0
  3685  006D  00A1               	movwf	(___flmul@b+1)^(0+128)
  3686  006E  3000               	movlw	0
  3687  006F  00A0               	movwf	___flmul@b^(0+128)
  3688  0070                     l2698:	
  3689  0070  0827               	movf	(___flmul@a^(0+128)+3),w
  3690  0071  3980               	andlw	128
  3691  0072  1283               	bcf	3,5	;RP0=0, select bank0
  3692  0073  1303               	bcf	3,6	;RP1=0, select bank0
  3693  0074  00CA               	movwf	??___flmul
  3694  0075  084A               	movf	??___flmul,w
  3695  0076  1683               	bsf	3,5	;RP0=1, select bank1
  3696  0077  1303               	bcf	3,6	;RP1=0, select bank1
  3697  0078  06A8               	xorwf	___flmul@sign^(0+128),f
  3698  0079                     l2700:	
  3699  0079  0827               	movf	(___flmul@a^(0+128)+3),w
  3700  007A  1283               	bcf	3,5	;RP0=0, select bank0
  3701  007B  1303               	bcf	3,6	;RP1=0, select bank0
  3702  007C  00CA               	movwf	??___flmul
  3703  007D  074A               	addwf	??___flmul,w
  3704  007E  00CB               	movwf	??___flmul+1
  3705  007F  084B               	movf	??___flmul+1,w
  3706  0080  1683               	bsf	3,5	;RP0=1, select bank1
  3707  0081  1303               	bcf	3,6	;RP1=0, select bank1
  3708  0082  00A9               	movwf	___flmul@aexp^(0+128)
  3709  0083                     l2702:	
  3710  0083  1FA6               	btfss	(___flmul@a^(0+128)+2),7
  3711  0084  2886               	goto	u2971
  3712  0085  2887               	goto	u2970
  3713  0086                     u2971:	
  3714  0086  2888               	goto	l2706
  3715  0087                     u2970:	
  3716  0087                     l2704:	
  3717  0087  1429               	bsf	___flmul@aexp^(0+128),0
  3718  0088                     l2706:	
  3719  0088  0829               	movf	___flmul@aexp^(0+128),w
  3720  0089  1903               	btfsc	3,2
  3721  008A  288C               	goto	u2981
  3722  008B  288D               	goto	u2980
  3723  008C                     u2981:	
  3724  008C  289C               	goto	l2714
  3725  008D                     u2980:	
  3726  008D                     l2708:	
  3727  008D  0A29               	incf	___flmul@aexp^(0+128),w
  3728  008E  1D03               	btfss	3,2
  3729  008F  2891               	goto	u2991
  3730  0090  2892               	goto	u2990
  3731  0091                     u2991:	
  3732  0091  289A               	goto	l2712
  3733  0092                     u2990:	
  3734  0092                     l2710:	
  3735  0092  3000               	movlw	0
  3736  0093  00A7               	movwf	(___flmul@a+3)^(0+128)
  3737  0094  3000               	movlw	0
  3738  0095  00A6               	movwf	(___flmul@a+2)^(0+128)
  3739  0096  3000               	movlw	0
  3740  0097  00A5               	movwf	(___flmul@a+1)^(0+128)
  3741  0098  3000               	movlw	0
  3742  0099  00A4               	movwf	___flmul@a^(0+128)
  3743  009A                     l2712:	
  3744  009A  17A6               	bsf	(___flmul@a^(0+128)+2),7
  3745  009B  28A4               	goto	l2716
  3746  009C                     l2714:	
  3747  009C  3000               	movlw	0
  3748  009D  00A7               	movwf	(___flmul@a+3)^(0+128)
  3749  009E  3000               	movlw	0
  3750  009F  00A6               	movwf	(___flmul@a+2)^(0+128)
  3751  00A0  3000               	movlw	0
  3752  00A1  00A5               	movwf	(___flmul@a+1)^(0+128)
  3753  00A2  3000               	movlw	0
  3754  00A3  00A4               	movwf	___flmul@a^(0+128)
  3755  00A4                     l2716:	
  3756  00A4  0829               	movf	___flmul@aexp^(0+128),w
  3757  00A5  1903               	btfsc	3,2
  3758  00A6  28A8               	goto	u3001
  3759  00A7  28A9               	goto	u3000
  3760  00A8                     u3001:	
  3761  00A8  28AE               	goto	l2720
  3762  00A9                     u3000:	
  3763  00A9                     l2718:	
  3764  00A9  082E               	movf	___flmul@bexp^(0+128),w
  3765  00AA  1D03               	btfss	3,2
  3766  00AB  28AD               	goto	u3011
  3767  00AC  28AE               	goto	u3010
  3768  00AD                     u3011:	
  3769  00AD  28B7               	goto	l2724
  3770  00AE                     u3010:	
  3771  00AE                     l2720:	
  3772  00AE  3000               	movlw	0
  3773  00AF  00A3               	movwf	(?___flmul+3)^(0+128)
  3774  00B0  3000               	movlw	0
  3775  00B1  00A2               	movwf	(?___flmul+2)^(0+128)
  3776  00B2  3000               	movlw	0
  3777  00B3  00A1               	movwf	(?___flmul+1)^(0+128)
  3778  00B4  3000               	movlw	0
  3779  00B5  00A0               	movwf	?___flmul^(0+128)
  3780  00B6  2D7C               	goto	l730
  3781  00B7                     l2724:	
  3782  00B7  0820               	movf	___flmul@b^(0+128),w
  3783  00B8  1283               	bcf	3,5	;RP0=0, select bank0
  3784  00B9  1303               	bcf	3,6	;RP1=0, select bank0
  3785  00BA  00CA               	movwf	??___flmul
  3786  00BB  084A               	movf	??___flmul,w
  3787  00BC  00BA               	movwf	__Umul8_16@multiplicand
  3788  00BD  1683               	bsf	3,5	;RP0=1, select bank1
  3789  00BE  1303               	bcf	3,6	;RP1=0, select bank1
  3790  00BF  0826               	movf	(___flmul@a^(0+128)+2),w
  3791  00C0  158A  2293  118A   	fcall	__Umul8_16
  3792  00C3  1283               	bcf	3,5	;RP0=0, select bank0
  3793  00C4  1303               	bcf	3,6	;RP1=0, select bank0
  3794  00C5  083B               	movf	?__Umul8_16+1,w
  3795  00C6  1683               	bsf	3,5	;RP0=1, select bank1
  3796  00C7  1303               	bcf	3,6	;RP1=0, select bank1
  3797  00C8  00B4               	movwf	(___flmul@temp+1)^(0+128)
  3798  00C9  1283               	bcf	3,5	;RP0=0, select bank0
  3799  00CA  1303               	bcf	3,6	;RP1=0, select bank0
  3800  00CB  083A               	movf	?__Umul8_16,w
  3801  00CC  1683               	bsf	3,5	;RP0=1, select bank1
  3802  00CD  1303               	bcf	3,6	;RP1=0, select bank1
  3803  00CE  00B3               	movwf	___flmul@temp^(0+128)
  3804  00CF                     l2726:	
  3805  00CF  0833               	movf	___flmul@temp^(0+128),w
  3806  00D0  1283               	bcf	3,5	;RP0=0, select bank0
  3807  00D1  1303               	bcf	3,6	;RP1=0, select bank0
  3808  00D2  00CA               	movwf	??___flmul
  3809  00D3  01CB               	clrf	??___flmul+1
  3810  00D4  01CC               	clrf	??___flmul+2
  3811  00D5  01CD               	clrf	??___flmul+3
  3812  00D6  084D               	movf	??___flmul+3,w
  3813  00D7  1683               	bsf	3,5	;RP0=1, select bank1
  3814  00D8  1303               	bcf	3,6	;RP1=0, select bank1
  3815  00D9  00AD               	movwf	(___flmul@grs+3)^(0+128)
  3816  00DA  1283               	bcf	3,5	;RP0=0, select bank0
  3817  00DB  1303               	bcf	3,6	;RP1=0, select bank0
  3818  00DC  084C               	movf	??___flmul+2,w
  3819  00DD  1683               	bsf	3,5	;RP0=1, select bank1
  3820  00DE  1303               	bcf	3,6	;RP1=0, select bank1
  3821  00DF  00AC               	movwf	(___flmul@grs+2)^(0+128)
  3822  00E0  1283               	bcf	3,5	;RP0=0, select bank0
  3823  00E1  1303               	bcf	3,6	;RP1=0, select bank0
  3824  00E2  084B               	movf	??___flmul+1,w
  3825  00E3  1683               	bsf	3,5	;RP0=1, select bank1
  3826  00E4  1303               	bcf	3,6	;RP1=0, select bank1
  3827  00E5  00AB               	movwf	(___flmul@grs+1)^(0+128)
  3828  00E6  1283               	bcf	3,5	;RP0=0, select bank0
  3829  00E7  1303               	bcf	3,6	;RP1=0, select bank0
  3830  00E8  084A               	movf	??___flmul,w
  3831  00E9  1683               	bsf	3,5	;RP0=1, select bank1
  3832  00EA  1303               	bcf	3,6	;RP1=0, select bank1
  3833  00EB  00AA               	movwf	___flmul@grs^(0+128)
  3834  00EC                     l2728:	
  3835  00EC  0834               	movf	(___flmul@temp^(0+128)+1),w
  3836  00ED  1283               	bcf	3,5	;RP0=0, select bank0
  3837  00EE  1303               	bcf	3,6	;RP1=0, select bank0
  3838  00EF  00CA               	movwf	??___flmul
  3839  00F0  01CB               	clrf	??___flmul+1
  3840  00F1  01CC               	clrf	??___flmul+2
  3841  00F2  01CD               	clrf	??___flmul+3
  3842  00F3  084D               	movf	??___flmul+3,w
  3843  00F4  1683               	bsf	3,5	;RP0=1, select bank1
  3844  00F5  1303               	bcf	3,6	;RP1=0, select bank1
  3845  00F6  00B2               	movwf	(___flmul@prod+3)^(0+128)
  3846  00F7  1283               	bcf	3,5	;RP0=0, select bank0
  3847  00F8  1303               	bcf	3,6	;RP1=0, select bank0
  3848  00F9  084C               	movf	??___flmul+2,w
  3849  00FA  1683               	bsf	3,5	;RP0=1, select bank1
  3850  00FB  1303               	bcf	3,6	;RP1=0, select bank1
  3851  00FC  00B1               	movwf	(___flmul@prod+2)^(0+128)
  3852  00FD  1283               	bcf	3,5	;RP0=0, select bank0
  3853  00FE  1303               	bcf	3,6	;RP1=0, select bank0
  3854  00FF  084B               	movf	??___flmul+1,w
  3855  0100  1683               	bsf	3,5	;RP0=1, select bank1
  3856  0101  1303               	bcf	3,6	;RP1=0, select bank1
  3857  0102  00B0               	movwf	(___flmul@prod+1)^(0+128)
  3858  0103  1283               	bcf	3,5	;RP0=0, select bank0
  3859  0104  1303               	bcf	3,6	;RP1=0, select bank0
  3860  0105  084A               	movf	??___flmul,w
  3861  0106  1683               	bsf	3,5	;RP0=1, select bank1
  3862  0107  1303               	bcf	3,6	;RP1=0, select bank1
  3863  0108  00AF               	movwf	___flmul@prod^(0+128)
  3864  0109  0821               	movf	(___flmul@b^(0+128)+1),w
  3865  010A  1283               	bcf	3,5	;RP0=0, select bank0
  3866  010B  1303               	bcf	3,6	;RP1=0, select bank0
  3867  010C  00CA               	movwf	??___flmul
  3868  010D  084A               	movf	??___flmul,w
  3869  010E  00BA               	movwf	__Umul8_16@multiplicand
  3870  010F  1683               	bsf	3,5	;RP0=1, select bank1
  3871  0110  1303               	bcf	3,6	;RP1=0, select bank1
  3872  0111  0825               	movf	(___flmul@a^(0+128)+1),w
  3873  0112  158A  2293  118A   	fcall	__Umul8_16
  3874  0115  1283               	bcf	3,5	;RP0=0, select bank0
  3875  0116  1303               	bcf	3,6	;RP1=0, select bank0
  3876  0117  083B               	movf	?__Umul8_16+1,w
  3877  0118  1683               	bsf	3,5	;RP0=1, select bank1
  3878  0119  1303               	bcf	3,6	;RP1=0, select bank1
  3879  011A  00B4               	movwf	(___flmul@temp+1)^(0+128)
  3880  011B  1283               	bcf	3,5	;RP0=0, select bank0
  3881  011C  1303               	bcf	3,6	;RP1=0, select bank0
  3882  011D  083A               	movf	?__Umul8_16,w
  3883  011E  1683               	bsf	3,5	;RP0=1, select bank1
  3884  011F  1303               	bcf	3,6	;RP1=0, select bank1
  3885  0120  00B3               	movwf	___flmul@temp^(0+128)
  3886  0121                     l2730:	
  3887  0121  0833               	movf	___flmul@temp^(0+128),w
  3888  0122  1283               	bcf	3,5	;RP0=0, select bank0
  3889  0123  1303               	bcf	3,6	;RP1=0, select bank0
  3890  0124  00CA               	movwf	??___flmul
  3891  0125  01CB               	clrf	??___flmul+1
  3892  0126  01CC               	clrf	??___flmul+2
  3893  0127  01CD               	clrf	??___flmul+3
  3894  0128  084A               	movf	??___flmul,w
  3895  0129  1683               	bsf	3,5	;RP0=1, select bank1
  3896  012A  1303               	bcf	3,6	;RP1=0, select bank1
  3897  012B  07AA               	addwf	___flmul@grs^(0+128),f
  3898  012C  1283               	bcf	3,5	;RP0=0, select bank0
  3899  012D  1303               	bcf	3,6	;RP1=0, select bank0
  3900  012E  084B               	movf	??___flmul+1,w
  3901  012F  1103               	clrz
  3902  0130  1803               	skipnc
  3903  0131  3E01               	addlw	1
  3904  0132  1903               	skipnz
  3905  0133  2937               	goto	u3021
  3906  0134  1683               	bsf	3,5	;RP0=1, select bank1
  3907  0135  1303               	bcf	3,6	;RP1=0, select bank1
  3908  0136  07AB               	addwf	(___flmul@grs+1)^(0+128),f
  3909  0137                     u3021:	
  3910  0137  1283               	bcf	3,5	;RP0=0, select bank0
  3911  0138  1303               	bcf	3,6	;RP1=0, select bank0
  3912  0139  084C               	movf	??___flmul+2,w
  3913  013A  1103               	clrz
  3914  013B  1803               	skipnc
  3915  013C  3E01               	addlw	1
  3916  013D  1903               	skipnz
  3917  013E  2942               	goto	u3022
  3918  013F  1683               	bsf	3,5	;RP0=1, select bank1
  3919  0140  1303               	bcf	3,6	;RP1=0, select bank1
  3920  0141  07AC               	addwf	(___flmul@grs+2)^(0+128),f
  3921  0142                     u3022:	
  3922  0142  1283               	bcf	3,5	;RP0=0, select bank0
  3923  0143  1303               	bcf	3,6	;RP1=0, select bank0
  3924  0144  084D               	movf	??___flmul+3,w
  3925  0145  1103               	clrz
  3926  0146  1803               	skipnc
  3927  0147  3E01               	addlw	1
  3928  0148  1903               	skipnz
  3929  0149  294D               	goto	u3023
  3930  014A  1683               	bsf	3,5	;RP0=1, select bank1
  3931  014B  1303               	bcf	3,6	;RP1=0, select bank1
  3932  014C  07AD               	addwf	(___flmul@grs+3)^(0+128),f
  3933  014D                     u3023:	
  3934  014D  1283               	bcf	3,5	;RP0=0, select bank0
  3935  014E  1303               	bcf	3,6	;RP1=0, select bank0
  3936  014F  1683               	bsf	3,5	;RP0=1, select bank1
  3937  0150  1303               	bcf	3,6	;RP1=0, select bank1
  3938  0151                     l2732:	
  3939  0151  0834               	movf	(___flmul@temp^(0+128)+1),w
  3940  0152  1283               	bcf	3,5	;RP0=0, select bank0
  3941  0153  1303               	bcf	3,6	;RP1=0, select bank0
  3942  0154  00CA               	movwf	??___flmul
  3943  0155  01CB               	clrf	??___flmul+1
  3944  0156  01CC               	clrf	??___flmul+2
  3945  0157  01CD               	clrf	??___flmul+3
  3946  0158  084A               	movf	??___flmul,w
  3947  0159  1683               	bsf	3,5	;RP0=1, select bank1
  3948  015A  1303               	bcf	3,6	;RP1=0, select bank1
  3949  015B  07AF               	addwf	___flmul@prod^(0+128),f
  3950  015C  1283               	bcf	3,5	;RP0=0, select bank0
  3951  015D  1303               	bcf	3,6	;RP1=0, select bank0
  3952  015E  084B               	movf	??___flmul+1,w
  3953  015F  1103               	clrz
  3954  0160  1803               	skipnc
  3955  0161  3E01               	addlw	1
  3956  0162  1903               	skipnz
  3957  0163  2967               	goto	u3031
  3958  0164  1683               	bsf	3,5	;RP0=1, select bank1
  3959  0165  1303               	bcf	3,6	;RP1=0, select bank1
  3960  0166  07B0               	addwf	(___flmul@prod+1)^(0+128),f
  3961  0167                     u3031:	
  3962  0167  1283               	bcf	3,5	;RP0=0, select bank0
  3963  0168  1303               	bcf	3,6	;RP1=0, select bank0
  3964  0169  084C               	movf	??___flmul+2,w
  3965  016A  1103               	clrz
  3966  016B  1803               	skipnc
  3967  016C  3E01               	addlw	1
  3968  016D  1903               	skipnz
  3969  016E  2972               	goto	u3032
  3970  016F  1683               	bsf	3,5	;RP0=1, select bank1
  3971  0170  1303               	bcf	3,6	;RP1=0, select bank1
  3972  0171  07B1               	addwf	(___flmul@prod+2)^(0+128),f
  3973  0172                     u3032:	
  3974  0172  1283               	bcf	3,5	;RP0=0, select bank0
  3975  0173  1303               	bcf	3,6	;RP1=0, select bank0
  3976  0174  084D               	movf	??___flmul+3,w
  3977  0175  1103               	clrz
  3978  0176  1803               	skipnc
  3979  0177  3E01               	addlw	1
  3980  0178  1903               	skipnz
  3981  0179  297D               	goto	u3033
  3982  017A  1683               	bsf	3,5	;RP0=1, select bank1
  3983  017B  1303               	bcf	3,6	;RP1=0, select bank1
  3984  017C  07B2               	addwf	(___flmul@prod+3)^(0+128),f
  3985  017D                     u3033:	
  3986  017D  1283               	bcf	3,5	;RP0=0, select bank0
  3987  017E  1303               	bcf	3,6	;RP1=0, select bank0
  3988  017F  1683               	bsf	3,5	;RP0=1, select bank1
  3989  0180  1303               	bcf	3,6	;RP1=0, select bank1
  3990  0181  0822               	movf	(___flmul@b^(0+128)+2),w
  3991  0182  1283               	bcf	3,5	;RP0=0, select bank0
  3992  0183  1303               	bcf	3,6	;RP1=0, select bank0
  3993  0184  00CA               	movwf	??___flmul
  3994  0185  084A               	movf	??___flmul,w
  3995  0186  00BA               	movwf	__Umul8_16@multiplicand
  3996  0187  1683               	bsf	3,5	;RP0=1, select bank1
  3997  0188  1303               	bcf	3,6	;RP1=0, select bank1
  3998  0189  0824               	movf	___flmul@a^(0+128),w
  3999  018A  158A  2293  118A   	fcall	__Umul8_16
  4000  018D  1283               	bcf	3,5	;RP0=0, select bank0
  4001  018E  1303               	bcf	3,6	;RP1=0, select bank0
  4002  018F  083B               	movf	?__Umul8_16+1,w
  4003  0190  1683               	bsf	3,5	;RP0=1, select bank1
  4004  0191  1303               	bcf	3,6	;RP1=0, select bank1
  4005  0192  00B4               	movwf	(___flmul@temp+1)^(0+128)
  4006  0193  1283               	bcf	3,5	;RP0=0, select bank0
  4007  0194  1303               	bcf	3,6	;RP1=0, select bank0
  4008  0195  083A               	movf	?__Umul8_16,w
  4009  0196  1683               	bsf	3,5	;RP0=1, select bank1
  4010  0197  1303               	bcf	3,6	;RP1=0, select bank1
  4011  0198  00B3               	movwf	___flmul@temp^(0+128)
  4012  0199                     l2734:	
  4013  0199  0833               	movf	___flmul@temp^(0+128),w
  4014  019A  1283               	bcf	3,5	;RP0=0, select bank0
  4015  019B  1303               	bcf	3,6	;RP1=0, select bank0
  4016  019C  00CA               	movwf	??___flmul
  4017  019D  01CB               	clrf	??___flmul+1
  4018  019E  01CC               	clrf	??___flmul+2
  4019  019F  01CD               	clrf	??___flmul+3
  4020  01A0  084A               	movf	??___flmul,w
  4021  01A1  1683               	bsf	3,5	;RP0=1, select bank1
  4022  01A2  1303               	bcf	3,6	;RP1=0, select bank1
  4023  01A3  07AA               	addwf	___flmul@grs^(0+128),f
  4024  01A4  1283               	bcf	3,5	;RP0=0, select bank0
  4025  01A5  1303               	bcf	3,6	;RP1=0, select bank0
  4026  01A6  084B               	movf	??___flmul+1,w
  4027  01A7  1103               	clrz
  4028  01A8  1803               	skipnc
  4029  01A9  3E01               	addlw	1
  4030  01AA  1903               	skipnz
  4031  01AB  29AF               	goto	u3041
  4032  01AC  1683               	bsf	3,5	;RP0=1, select bank1
  4033  01AD  1303               	bcf	3,6	;RP1=0, select bank1
  4034  01AE  07AB               	addwf	(___flmul@grs+1)^(0+128),f
  4035  01AF                     u3041:	
  4036  01AF  1283               	bcf	3,5	;RP0=0, select bank0
  4037  01B0  1303               	bcf	3,6	;RP1=0, select bank0
  4038  01B1  084C               	movf	??___flmul+2,w
  4039  01B2  1103               	clrz
  4040  01B3  1803               	skipnc
  4041  01B4  3E01               	addlw	1
  4042  01B5  1903               	skipnz
  4043  01B6  29BA               	goto	u3042
  4044  01B7  1683               	bsf	3,5	;RP0=1, select bank1
  4045  01B8  1303               	bcf	3,6	;RP1=0, select bank1
  4046  01B9  07AC               	addwf	(___flmul@grs+2)^(0+128),f
  4047  01BA                     u3042:	
  4048  01BA  1283               	bcf	3,5	;RP0=0, select bank0
  4049  01BB  1303               	bcf	3,6	;RP1=0, select bank0
  4050  01BC  084D               	movf	??___flmul+3,w
  4051  01BD  1103               	clrz
  4052  01BE  1803               	skipnc
  4053  01BF  3E01               	addlw	1
  4054  01C0  1903               	skipnz
  4055  01C1  29C5               	goto	u3043
  4056  01C2  1683               	bsf	3,5	;RP0=1, select bank1
  4057  01C3  1303               	bcf	3,6	;RP1=0, select bank1
  4058  01C4  07AD               	addwf	(___flmul@grs+3)^(0+128),f
  4059  01C5                     u3043:	
  4060  01C5  1283               	bcf	3,5	;RP0=0, select bank0
  4061  01C6  1303               	bcf	3,6	;RP1=0, select bank0
  4062  01C7  1683               	bsf	3,5	;RP0=1, select bank1
  4063  01C8  1303               	bcf	3,6	;RP1=0, select bank1
  4064  01C9                     l2736:	
  4065  01C9  0834               	movf	(___flmul@temp^(0+128)+1),w
  4066  01CA  1283               	bcf	3,5	;RP0=0, select bank0
  4067  01CB  1303               	bcf	3,6	;RP1=0, select bank0
  4068  01CC  00CA               	movwf	??___flmul
  4069  01CD  01CB               	clrf	??___flmul+1
  4070  01CE  01CC               	clrf	??___flmul+2
  4071  01CF  01CD               	clrf	??___flmul+3
  4072  01D0  084A               	movf	??___flmul,w
  4073  01D1  1683               	bsf	3,5	;RP0=1, select bank1
  4074  01D2  1303               	bcf	3,6	;RP1=0, select bank1
  4075  01D3  07AF               	addwf	___flmul@prod^(0+128),f
  4076  01D4  1283               	bcf	3,5	;RP0=0, select bank0
  4077  01D5  1303               	bcf	3,6	;RP1=0, select bank0
  4078  01D6  084B               	movf	??___flmul+1,w
  4079  01D7  1103               	clrz
  4080  01D8  1803               	skipnc
  4081  01D9  3E01               	addlw	1
  4082  01DA  1903               	skipnz
  4083  01DB  29DF               	goto	u3051
  4084  01DC  1683               	bsf	3,5	;RP0=1, select bank1
  4085  01DD  1303               	bcf	3,6	;RP1=0, select bank1
  4086  01DE  07B0               	addwf	(___flmul@prod+1)^(0+128),f
  4087  01DF                     u3051:	
  4088  01DF  1283               	bcf	3,5	;RP0=0, select bank0
  4089  01E0  1303               	bcf	3,6	;RP1=0, select bank0
  4090  01E1  084C               	movf	??___flmul+2,w
  4091  01E2  1103               	clrz
  4092  01E3  1803               	skipnc
  4093  01E4  3E01               	addlw	1
  4094  01E5  1903               	skipnz
  4095  01E6  29EA               	goto	u3052
  4096  01E7  1683               	bsf	3,5	;RP0=1, select bank1
  4097  01E8  1303               	bcf	3,6	;RP1=0, select bank1
  4098  01E9  07B1               	addwf	(___flmul@prod+2)^(0+128),f
  4099  01EA                     u3052:	
  4100  01EA  1283               	bcf	3,5	;RP0=0, select bank0
  4101  01EB  1303               	bcf	3,6	;RP1=0, select bank0
  4102  01EC  084D               	movf	??___flmul+3,w
  4103  01ED  1103               	clrz
  4104  01EE  1803               	skipnc
  4105  01EF  3E01               	addlw	1
  4106  01F0  1903               	skipnz
  4107  01F1  29F5               	goto	u3053
  4108  01F2  1683               	bsf	3,5	;RP0=1, select bank1
  4109  01F3  1303               	bcf	3,6	;RP1=0, select bank1
  4110  01F4  07B2               	addwf	(___flmul@prod+3)^(0+128),f
  4111  01F5                     u3053:	
  4112  01F5  1283               	bcf	3,5	;RP0=0, select bank0
  4113  01F6  1303               	bcf	3,6	;RP1=0, select bank0
  4114  01F7  1683               	bsf	3,5	;RP0=1, select bank1
  4115  01F8  1303               	bcf	3,6	;RP1=0, select bank1
  4116  01F9                     l2738:	
  4117  01F9  3008               	movlw	8
  4118  01FA  1283               	bcf	3,5	;RP0=0, select bank0
  4119  01FB  1303               	bcf	3,6	;RP1=0, select bank0
  4120  01FC  00CA               	movwf	??___flmul
  4121  01FD                     u3065:	
  4122  01FD  1003               	clrc
  4123  01FE  1683               	bsf	3,5	;RP0=1, select bank1
  4124  01FF  1303               	bcf	3,6	;RP1=0, select bank1
  4125  0200  0DAA               	rlf	___flmul@grs^(0+128),f
  4126  0201  0DAB               	rlf	(___flmul@grs+1)^(0+128),f
  4127  0202  0DAC               	rlf	(___flmul@grs+2)^(0+128),f
  4128  0203  0DAD               	rlf	(___flmul@grs+3)^(0+128),f
  4129  0204  1283               	bcf	3,5	;RP0=0, select bank0
  4130  0205  1303               	bcf	3,6	;RP1=0, select bank0
  4131  0206  0BCA               	decfsz	??___flmul,f
  4132  0207  29FD               	goto	u3065
  4133  0208                     l2740:	
  4134  0208  1683               	bsf	3,5	;RP0=1, select bank1
  4135  0209  1303               	bcf	3,6	;RP1=0, select bank1
  4136  020A  0821               	movf	(___flmul@b^(0+128)+1),w
  4137  020B  1283               	bcf	3,5	;RP0=0, select bank0
  4138  020C  1303               	bcf	3,6	;RP1=0, select bank0
  4139  020D  00CA               	movwf	??___flmul
  4140  020E  084A               	movf	??___flmul,w
  4141  020F  00BA               	movwf	__Umul8_16@multiplicand
  4142  0210  1683               	bsf	3,5	;RP0=1, select bank1
  4143  0211  1303               	bcf	3,6	;RP1=0, select bank1
  4144  0212  0824               	movf	___flmul@a^(0+128),w
  4145  0213  158A  2293  118A   	fcall	__Umul8_16
  4146  0216  1283               	bcf	3,5	;RP0=0, select bank0
  4147  0217  1303               	bcf	3,6	;RP1=0, select bank0
  4148  0218  083B               	movf	?__Umul8_16+1,w
  4149  0219  1683               	bsf	3,5	;RP0=1, select bank1
  4150  021A  1303               	bcf	3,6	;RP1=0, select bank1
  4151  021B  00B4               	movwf	(___flmul@temp+1)^(0+128)
  4152  021C  1283               	bcf	3,5	;RP0=0, select bank0
  4153  021D  1303               	bcf	3,6	;RP1=0, select bank0
  4154  021E  083A               	movf	?__Umul8_16,w
  4155  021F  1683               	bsf	3,5	;RP0=1, select bank1
  4156  0220  1303               	bcf	3,6	;RP1=0, select bank1
  4157  0221  00B3               	movwf	___flmul@temp^(0+128)
  4158  0222                     l2742:	
  4159  0222  0833               	movf	___flmul@temp^(0+128),w
  4160  0223  1283               	bcf	3,5	;RP0=0, select bank0
  4161  0224  1303               	bcf	3,6	;RP1=0, select bank0
  4162  0225  00CA               	movwf	??___flmul
  4163  0226  1683               	bsf	3,5	;RP0=1, select bank1
  4164  0227  1303               	bcf	3,6	;RP1=0, select bank1
  4165  0228  0834               	movf	(___flmul@temp+1)^(0+128),w
  4166  0229  1283               	bcf	3,5	;RP0=0, select bank0
  4167  022A  1303               	bcf	3,6	;RP1=0, select bank0
  4168  022B  00CB               	movwf	??___flmul+1
  4169  022C  01CC               	clrf	??___flmul+2
  4170  022D  01CD               	clrf	??___flmul+3
  4171  022E  084A               	movf	??___flmul,w
  4172  022F  1683               	bsf	3,5	;RP0=1, select bank1
  4173  0230  1303               	bcf	3,6	;RP1=0, select bank1
  4174  0231  07AA               	addwf	___flmul@grs^(0+128),f
  4175  0232  1283               	bcf	3,5	;RP0=0, select bank0
  4176  0233  1303               	bcf	3,6	;RP1=0, select bank0
  4177  0234  084B               	movf	??___flmul+1,w
  4178  0235  1103               	clrz
  4179  0236  1803               	skipnc
  4180  0237  3E01               	addlw	1
  4181  0238  1903               	skipnz
  4182  0239  2A3D               	goto	u3071
  4183  023A  1683               	bsf	3,5	;RP0=1, select bank1
  4184  023B  1303               	bcf	3,6	;RP1=0, select bank1
  4185  023C  07AB               	addwf	(___flmul@grs+1)^(0+128),f
  4186  023D                     u3071:	
  4187  023D  1283               	bcf	3,5	;RP0=0, select bank0
  4188  023E  1303               	bcf	3,6	;RP1=0, select bank0
  4189  023F  084C               	movf	??___flmul+2,w
  4190  0240  1103               	clrz
  4191  0241  1803               	skipnc
  4192  0242  3E01               	addlw	1
  4193  0243  1903               	skipnz
  4194  0244  2A48               	goto	u3072
  4195  0245  1683               	bsf	3,5	;RP0=1, select bank1
  4196  0246  1303               	bcf	3,6	;RP1=0, select bank1
  4197  0247  07AC               	addwf	(___flmul@grs+2)^(0+128),f
  4198  0248                     u3072:	
  4199  0248  1283               	bcf	3,5	;RP0=0, select bank0
  4200  0249  1303               	bcf	3,6	;RP1=0, select bank0
  4201  024A  084D               	movf	??___flmul+3,w
  4202  024B  1103               	clrz
  4203  024C  1803               	skipnc
  4204  024D  3E01               	addlw	1
  4205  024E  1903               	skipnz
  4206  024F  2A53               	goto	u3073
  4207  0250  1683               	bsf	3,5	;RP0=1, select bank1
  4208  0251  1303               	bcf	3,6	;RP1=0, select bank1
  4209  0252  07AD               	addwf	(___flmul@grs+3)^(0+128),f
  4210  0253                     u3073:	
  4211  0253  1283               	bcf	3,5	;RP0=0, select bank0
  4212  0254  1303               	bcf	3,6	;RP1=0, select bank0
  4213  0255  1683               	bsf	3,5	;RP0=1, select bank1
  4214  0256  1303               	bcf	3,6	;RP1=0, select bank1
  4215  0257                     l2744:	
  4216  0257  0820               	movf	___flmul@b^(0+128),w
  4217  0258  1283               	bcf	3,5	;RP0=0, select bank0
  4218  0259  1303               	bcf	3,6	;RP1=0, select bank0
  4219  025A  00CA               	movwf	??___flmul
  4220  025B  084A               	movf	??___flmul,w
  4221  025C  00BA               	movwf	__Umul8_16@multiplicand
  4222  025D  1683               	bsf	3,5	;RP0=1, select bank1
  4223  025E  1303               	bcf	3,6	;RP1=0, select bank1
  4224  025F  0825               	movf	(___flmul@a^(0+128)+1),w
  4225  0260  158A  2293  118A   	fcall	__Umul8_16
  4226  0263  1283               	bcf	3,5	;RP0=0, select bank0
  4227  0264  1303               	bcf	3,6	;RP1=0, select bank0
  4228  0265  083B               	movf	?__Umul8_16+1,w
  4229  0266  1683               	bsf	3,5	;RP0=1, select bank1
  4230  0267  1303               	bcf	3,6	;RP1=0, select bank1
  4231  0268  00B4               	movwf	(___flmul@temp+1)^(0+128)
  4232  0269  1283               	bcf	3,5	;RP0=0, select bank0
  4233  026A  1303               	bcf	3,6	;RP1=0, select bank0
  4234  026B  083A               	movf	?__Umul8_16,w
  4235  026C  1683               	bsf	3,5	;RP0=1, select bank1
  4236  026D  1303               	bcf	3,6	;RP1=0, select bank1
  4237  026E  00B3               	movwf	___flmul@temp^(0+128)
  4238  026F                     l2746:	
  4239  026F  0833               	movf	___flmul@temp^(0+128),w
  4240  0270  1283               	bcf	3,5	;RP0=0, select bank0
  4241  0271  1303               	bcf	3,6	;RP1=0, select bank0
  4242  0272  00CA               	movwf	??___flmul
  4243  0273  1683               	bsf	3,5	;RP0=1, select bank1
  4244  0274  1303               	bcf	3,6	;RP1=0, select bank1
  4245  0275  0834               	movf	(___flmul@temp+1)^(0+128),w
  4246  0276  1283               	bcf	3,5	;RP0=0, select bank0
  4247  0277  1303               	bcf	3,6	;RP1=0, select bank0
  4248  0278  00CB               	movwf	??___flmul+1
  4249  0279  01CC               	clrf	??___flmul+2
  4250  027A  01CD               	clrf	??___flmul+3
  4251  027B  084A               	movf	??___flmul,w
  4252  027C  1683               	bsf	3,5	;RP0=1, select bank1
  4253  027D  1303               	bcf	3,6	;RP1=0, select bank1
  4254  027E  07AA               	addwf	___flmul@grs^(0+128),f
  4255  027F  1283               	bcf	3,5	;RP0=0, select bank0
  4256  0280  1303               	bcf	3,6	;RP1=0, select bank0
  4257  0281  084B               	movf	??___flmul+1,w
  4258  0282  1103               	clrz
  4259  0283  1803               	skipnc
  4260  0284  3E01               	addlw	1
  4261  0285  1903               	skipnz
  4262  0286  2A8A               	goto	u3081
  4263  0287  1683               	bsf	3,5	;RP0=1, select bank1
  4264  0288  1303               	bcf	3,6	;RP1=0, select bank1
  4265  0289  07AB               	addwf	(___flmul@grs+1)^(0+128),f
  4266  028A                     u3081:	
  4267  028A  1283               	bcf	3,5	;RP0=0, select bank0
  4268  028B  1303               	bcf	3,6	;RP1=0, select bank0
  4269  028C  084C               	movf	??___flmul+2,w
  4270  028D  1103               	clrz
  4271  028E  1803               	skipnc
  4272  028F  3E01               	addlw	1
  4273  0290  1903               	skipnz
  4274  0291  2A95               	goto	u3082
  4275  0292  1683               	bsf	3,5	;RP0=1, select bank1
  4276  0293  1303               	bcf	3,6	;RP1=0, select bank1
  4277  0294  07AC               	addwf	(___flmul@grs+2)^(0+128),f
  4278  0295                     u3082:	
  4279  0295  1283               	bcf	3,5	;RP0=0, select bank0
  4280  0296  1303               	bcf	3,6	;RP1=0, select bank0
  4281  0297  084D               	movf	??___flmul+3,w
  4282  0298  1103               	clrz
  4283  0299  1803               	skipnc
  4284  029A  3E01               	addlw	1
  4285  029B  1903               	skipnz
  4286  029C  2AA0               	goto	u3083
  4287  029D  1683               	bsf	3,5	;RP0=1, select bank1
  4288  029E  1303               	bcf	3,6	;RP1=0, select bank1
  4289  029F  07AD               	addwf	(___flmul@grs+3)^(0+128),f
  4290  02A0                     u3083:	
  4291  02A0  1283               	bcf	3,5	;RP0=0, select bank0
  4292  02A1  1303               	bcf	3,6	;RP1=0, select bank0
  4293  02A2  1683               	bsf	3,5	;RP0=1, select bank1
  4294  02A3  1303               	bcf	3,6	;RP1=0, select bank1
  4295  02A4                     l2748:	
  4296  02A4  3008               	movlw	8
  4297  02A5  1283               	bcf	3,5	;RP0=0, select bank0
  4298  02A6  1303               	bcf	3,6	;RP1=0, select bank0
  4299  02A7  00CA               	movwf	??___flmul
  4300  02A8                     u3095:	
  4301  02A8  1003               	clrc
  4302  02A9  1683               	bsf	3,5	;RP0=1, select bank1
  4303  02AA  1303               	bcf	3,6	;RP1=0, select bank1
  4304  02AB  0DAA               	rlf	___flmul@grs^(0+128),f
  4305  02AC  0DAB               	rlf	(___flmul@grs+1)^(0+128),f
  4306  02AD  0DAC               	rlf	(___flmul@grs+2)^(0+128),f
  4307  02AE  0DAD               	rlf	(___flmul@grs+3)^(0+128),f
  4308  02AF  1283               	bcf	3,5	;RP0=0, select bank0
  4309  02B0  1303               	bcf	3,6	;RP1=0, select bank0
  4310  02B1  0BCA               	decfsz	??___flmul,f
  4311  02B2  2AA8               	goto	u3095
  4312  02B3  1683               	bsf	3,5	;RP0=1, select bank1
  4313  02B4  1303               	bcf	3,6	;RP1=0, select bank1
  4314  02B5  0820               	movf	___flmul@b^(0+128),w
  4315  02B6  1283               	bcf	3,5	;RP0=0, select bank0
  4316  02B7  1303               	bcf	3,6	;RP1=0, select bank0
  4317  02B8  00CA               	movwf	??___flmul
  4318  02B9  084A               	movf	??___flmul,w
  4319  02BA  00BA               	movwf	__Umul8_16@multiplicand
  4320  02BB  1683               	bsf	3,5	;RP0=1, select bank1
  4321  02BC  1303               	bcf	3,6	;RP1=0, select bank1
  4322  02BD  0824               	movf	___flmul@a^(0+128),w
  4323  02BE  158A  2293  118A   	fcall	__Umul8_16
  4324  02C1  1283               	bcf	3,5	;RP0=0, select bank0
  4325  02C2  1303               	bcf	3,6	;RP1=0, select bank0
  4326  02C3  083B               	movf	?__Umul8_16+1,w
  4327  02C4  1683               	bsf	3,5	;RP0=1, select bank1
  4328  02C5  1303               	bcf	3,6	;RP1=0, select bank1
  4329  02C6  00B4               	movwf	(___flmul@temp+1)^(0+128)
  4330  02C7  1283               	bcf	3,5	;RP0=0, select bank0
  4331  02C8  1303               	bcf	3,6	;RP1=0, select bank0
  4332  02C9  083A               	movf	?__Umul8_16,w
  4333  02CA  1683               	bsf	3,5	;RP0=1, select bank1
  4334  02CB  1303               	bcf	3,6	;RP1=0, select bank1
  4335  02CC  00B3               	movwf	___flmul@temp^(0+128)
  4336  02CD                     l2750:	
  4337  02CD  0833               	movf	___flmul@temp^(0+128),w
  4338  02CE  1283               	bcf	3,5	;RP0=0, select bank0
  4339  02CF  1303               	bcf	3,6	;RP1=0, select bank0
  4340  02D0  00CA               	movwf	??___flmul
  4341  02D1  1683               	bsf	3,5	;RP0=1, select bank1
  4342  02D2  1303               	bcf	3,6	;RP1=0, select bank1
  4343  02D3  0834               	movf	(___flmul@temp+1)^(0+128),w
  4344  02D4  1283               	bcf	3,5	;RP0=0, select bank0
  4345  02D5  1303               	bcf	3,6	;RP1=0, select bank0
  4346  02D6  00CB               	movwf	??___flmul+1
  4347  02D7  01CC               	clrf	??___flmul+2
  4348  02D8  01CD               	clrf	??___flmul+3
  4349  02D9  084A               	movf	??___flmul,w
  4350  02DA  1683               	bsf	3,5	;RP0=1, select bank1
  4351  02DB  1303               	bcf	3,6	;RP1=0, select bank1
  4352  02DC  07AA               	addwf	___flmul@grs^(0+128),f
  4353  02DD  1283               	bcf	3,5	;RP0=0, select bank0
  4354  02DE  1303               	bcf	3,6	;RP1=0, select bank0
  4355  02DF  084B               	movf	??___flmul+1,w
  4356  02E0  1103               	clrz
  4357  02E1  1803               	skipnc
  4358  02E2  3E01               	addlw	1
  4359  02E3  1903               	skipnz
  4360  02E4  2AE8               	goto	u3101
  4361  02E5  1683               	bsf	3,5	;RP0=1, select bank1
  4362  02E6  1303               	bcf	3,6	;RP1=0, select bank1
  4363  02E7  07AB               	addwf	(___flmul@grs+1)^(0+128),f
  4364  02E8                     u3101:	
  4365  02E8  1283               	bcf	3,5	;RP0=0, select bank0
  4366  02E9  1303               	bcf	3,6	;RP1=0, select bank0
  4367  02EA  084C               	movf	??___flmul+2,w
  4368  02EB  1103               	clrz
  4369  02EC  1803               	skipnc
  4370  02ED  3E01               	addlw	1
  4371  02EE  1903               	skipnz
  4372  02EF  2AF3               	goto	u3102
  4373  02F0  1683               	bsf	3,5	;RP0=1, select bank1
  4374  02F1  1303               	bcf	3,6	;RP1=0, select bank1
  4375  02F2  07AC               	addwf	(___flmul@grs+2)^(0+128),f
  4376  02F3                     u3102:	
  4377  02F3  1283               	bcf	3,5	;RP0=0, select bank0
  4378  02F4  1303               	bcf	3,6	;RP1=0, select bank0
  4379  02F5  084D               	movf	??___flmul+3,w
  4380  02F6  1103               	clrz
  4381  02F7  1803               	skipnc
  4382  02F8  3E01               	addlw	1
  4383  02F9  1903               	skipnz
  4384  02FA  2AFE               	goto	u3103
  4385  02FB  1683               	bsf	3,5	;RP0=1, select bank1
  4386  02FC  1303               	bcf	3,6	;RP1=0, select bank1
  4387  02FD  07AD               	addwf	(___flmul@grs+3)^(0+128),f
  4388  02FE                     u3103:	
  4389  02FE  1283               	bcf	3,5	;RP0=0, select bank0
  4390  02FF  1303               	bcf	3,6	;RP1=0, select bank0
  4391  0300  1683               	bsf	3,5	;RP0=1, select bank1
  4392  0301  1303               	bcf	3,6	;RP1=0, select bank1
  4393  0302                     l2752:	
  4394  0302  0821               	movf	(___flmul@b^(0+128)+1),w
  4395  0303  1283               	bcf	3,5	;RP0=0, select bank0
  4396  0304  1303               	bcf	3,6	;RP1=0, select bank0
  4397  0305  00CA               	movwf	??___flmul
  4398  0306  084A               	movf	??___flmul,w
  4399  0307  00BA               	movwf	__Umul8_16@multiplicand
  4400  0308  1683               	bsf	3,5	;RP0=1, select bank1
  4401  0309  1303               	bcf	3,6	;RP1=0, select bank1
  4402  030A  0826               	movf	(___flmul@a^(0+128)+2),w
  4403  030B  158A  2293  118A   	fcall	__Umul8_16
  4404  030E  1283               	bcf	3,5	;RP0=0, select bank0
  4405  030F  1303               	bcf	3,6	;RP1=0, select bank0
  4406  0310  083B               	movf	?__Umul8_16+1,w
  4407  0311  1683               	bsf	3,5	;RP0=1, select bank1
  4408  0312  1303               	bcf	3,6	;RP1=0, select bank1
  4409  0313  00B4               	movwf	(___flmul@temp+1)^(0+128)
  4410  0314  1283               	bcf	3,5	;RP0=0, select bank0
  4411  0315  1303               	bcf	3,6	;RP1=0, select bank0
  4412  0316  083A               	movf	?__Umul8_16,w
  4413  0317  1683               	bsf	3,5	;RP0=1, select bank1
  4414  0318  1303               	bcf	3,6	;RP1=0, select bank1
  4415  0319  00B3               	movwf	___flmul@temp^(0+128)
  4416  031A  0833               	movf	___flmul@temp^(0+128),w
  4417  031B  1283               	bcf	3,5	;RP0=0, select bank0
  4418  031C  1303               	bcf	3,6	;RP1=0, select bank0
  4419  031D  00CA               	movwf	??___flmul
  4420  031E  1683               	bsf	3,5	;RP0=1, select bank1
  4421  031F  1303               	bcf	3,6	;RP1=0, select bank1
  4422  0320  0834               	movf	(___flmul@temp+1)^(0+128),w
  4423  0321  1283               	bcf	3,5	;RP0=0, select bank0
  4424  0322  1303               	bcf	3,6	;RP1=0, select bank0
  4425  0323  00CB               	movwf	??___flmul+1
  4426  0324  01CC               	clrf	??___flmul+2
  4427  0325  01CD               	clrf	??___flmul+3
  4428  0326  084A               	movf	??___flmul,w
  4429  0327  1683               	bsf	3,5	;RP0=1, select bank1
  4430  0328  1303               	bcf	3,6	;RP1=0, select bank1
  4431  0329  07AF               	addwf	___flmul@prod^(0+128),f
  4432  032A  1283               	bcf	3,5	;RP0=0, select bank0
  4433  032B  1303               	bcf	3,6	;RP1=0, select bank0
  4434  032C  084B               	movf	??___flmul+1,w
  4435  032D  1103               	clrz
  4436  032E  1803               	skipnc
  4437  032F  3E01               	addlw	1
  4438  0330  1903               	skipnz
  4439  0331  2B35               	goto	u3111
  4440  0332  1683               	bsf	3,5	;RP0=1, select bank1
  4441  0333  1303               	bcf	3,6	;RP1=0, select bank1
  4442  0334  07B0               	addwf	(___flmul@prod+1)^(0+128),f
  4443  0335                     u3111:	
  4444  0335  1283               	bcf	3,5	;RP0=0, select bank0
  4445  0336  1303               	bcf	3,6	;RP1=0, select bank0
  4446  0337  084C               	movf	??___flmul+2,w
  4447  0338  1103               	clrz
  4448  0339  1803               	skipnc
  4449  033A  3E01               	addlw	1
  4450  033B  1903               	skipnz
  4451  033C  2B40               	goto	u3112
  4452  033D  1683               	bsf	3,5	;RP0=1, select bank1
  4453  033E  1303               	bcf	3,6	;RP1=0, select bank1
  4454  033F  07B1               	addwf	(___flmul@prod+2)^(0+128),f
  4455  0340                     u3112:	
  4456  0340  1283               	bcf	3,5	;RP0=0, select bank0
  4457  0341  1303               	bcf	3,6	;RP1=0, select bank0
  4458  0342  084D               	movf	??___flmul+3,w
  4459  0343  1103               	clrz
  4460  0344  1803               	skipnc
  4461  0345  3E01               	addlw	1
  4462  0346  1903               	skipnz
  4463  0347  2B4B               	goto	u3113
  4464  0348  1683               	bsf	3,5	;RP0=1, select bank1
  4465  0349  1303               	bcf	3,6	;RP1=0, select bank1
  4466  034A  07B2               	addwf	(___flmul@prod+3)^(0+128),f
  4467  034B                     u3113:	
  4468  034B  1283               	bcf	3,5	;RP0=0, select bank0
  4469  034C  1303               	bcf	3,6	;RP1=0, select bank0
  4470  034D  1683               	bsf	3,5	;RP0=1, select bank1
  4471  034E  1303               	bcf	3,6	;RP1=0, select bank1
  4472  034F                     l2754:	
  4473  034F  0822               	movf	(___flmul@b^(0+128)+2),w
  4474  0350  1283               	bcf	3,5	;RP0=0, select bank0
  4475  0351  1303               	bcf	3,6	;RP1=0, select bank0
  4476  0352  00CA               	movwf	??___flmul
  4477  0353  084A               	movf	??___flmul,w
  4478  0354  00BA               	movwf	__Umul8_16@multiplicand
  4479  0355  1683               	bsf	3,5	;RP0=1, select bank1
  4480  0356  1303               	bcf	3,6	;RP1=0, select bank1
  4481  0357  0825               	movf	(___flmul@a^(0+128)+1),w
  4482  0358  158A  2293  118A   	fcall	__Umul8_16
  4483  035B  1283               	bcf	3,5	;RP0=0, select bank0
  4484  035C  1303               	bcf	3,6	;RP1=0, select bank0
  4485  035D  083B               	movf	?__Umul8_16+1,w
  4486  035E  1683               	bsf	3,5	;RP0=1, select bank1
  4487  035F  1303               	bcf	3,6	;RP1=0, select bank1
  4488  0360  00B4               	movwf	(___flmul@temp+1)^(0+128)
  4489  0361  1283               	bcf	3,5	;RP0=0, select bank0
  4490  0362  1303               	bcf	3,6	;RP1=0, select bank0
  4491  0363  083A               	movf	?__Umul8_16,w
  4492  0364  1683               	bsf	3,5	;RP0=1, select bank1
  4493  0365  1303               	bcf	3,6	;RP1=0, select bank1
  4494  0366  00B3               	movwf	___flmul@temp^(0+128)
  4495  0367                     l2756:	
  4496  0367  0833               	movf	___flmul@temp^(0+128),w
  4497  0368  1283               	bcf	3,5	;RP0=0, select bank0
  4498  0369  1303               	bcf	3,6	;RP1=0, select bank0
  4499  036A  00CA               	movwf	??___flmul
  4500  036B  1683               	bsf	3,5	;RP0=1, select bank1
  4501  036C  1303               	bcf	3,6	;RP1=0, select bank1
  4502  036D  0834               	movf	(___flmul@temp+1)^(0+128),w
  4503  036E  1283               	bcf	3,5	;RP0=0, select bank0
  4504  036F  1303               	bcf	3,6	;RP1=0, select bank0
  4505  0370  00CB               	movwf	??___flmul+1
  4506  0371  01CC               	clrf	??___flmul+2
  4507  0372  01CD               	clrf	??___flmul+3
  4508  0373  084A               	movf	??___flmul,w
  4509  0374  1683               	bsf	3,5	;RP0=1, select bank1
  4510  0375  1303               	bcf	3,6	;RP1=0, select bank1
  4511  0376  07AF               	addwf	___flmul@prod^(0+128),f
  4512  0377  1283               	bcf	3,5	;RP0=0, select bank0
  4513  0378  1303               	bcf	3,6	;RP1=0, select bank0
  4514  0379  084B               	movf	??___flmul+1,w
  4515  037A  1103               	clrz
  4516  037B  1803               	skipnc
  4517  037C  3E01               	addlw	1
  4518  037D  1903               	skipnz
  4519  037E  2B82               	goto	u3121
  4520  037F  1683               	bsf	3,5	;RP0=1, select bank1
  4521  0380  1303               	bcf	3,6	;RP1=0, select bank1
  4522  0381  07B0               	addwf	(___flmul@prod+1)^(0+128),f
  4523  0382                     u3121:	
  4524  0382  1283               	bcf	3,5	;RP0=0, select bank0
  4525  0383  1303               	bcf	3,6	;RP1=0, select bank0
  4526  0384  084C               	movf	??___flmul+2,w
  4527  0385  1103               	clrz
  4528  0386  1803               	skipnc
  4529  0387  3E01               	addlw	1
  4530  0388  1903               	skipnz
  4531  0389  2B8D               	goto	u3122
  4532  038A  1683               	bsf	3,5	;RP0=1, select bank1
  4533  038B  1303               	bcf	3,6	;RP1=0, select bank1
  4534  038C  07B1               	addwf	(___flmul@prod+2)^(0+128),f
  4535  038D                     u3122:	
  4536  038D  1283               	bcf	3,5	;RP0=0, select bank0
  4537  038E  1303               	bcf	3,6	;RP1=0, select bank0
  4538  038F  084D               	movf	??___flmul+3,w
  4539  0390  1103               	clrz
  4540  0391  1803               	skipnc
  4541  0392  3E01               	addlw	1
  4542  0393  1903               	skipnz
  4543  0394  2B98               	goto	u3123
  4544  0395  1683               	bsf	3,5	;RP0=1, select bank1
  4545  0396  1303               	bcf	3,6	;RP1=0, select bank1
  4546  0397  07B2               	addwf	(___flmul@prod+3)^(0+128),f
  4547  0398                     u3123:	
  4548  0398  1283               	bcf	3,5	;RP0=0, select bank0
  4549  0399  1303               	bcf	3,6	;RP1=0, select bank0
  4550  039A  1683               	bsf	3,5	;RP0=1, select bank1
  4551  039B  1303               	bcf	3,6	;RP1=0, select bank1
  4552  039C  0822               	movf	(___flmul@b^(0+128)+2),w
  4553  039D  1283               	bcf	3,5	;RP0=0, select bank0
  4554  039E  1303               	bcf	3,6	;RP1=0, select bank0
  4555  039F  00CA               	movwf	??___flmul
  4556  03A0  084A               	movf	??___flmul,w
  4557  03A1  00BA               	movwf	__Umul8_16@multiplicand
  4558  03A2  1683               	bsf	3,5	;RP0=1, select bank1
  4559  03A3  1303               	bcf	3,6	;RP1=0, select bank1
  4560  03A4  0826               	movf	(___flmul@a^(0+128)+2),w
  4561  03A5  158A  2293  118A   	fcall	__Umul8_16
  4562  03A8  1283               	bcf	3,5	;RP0=0, select bank0
  4563  03A9  1303               	bcf	3,6	;RP1=0, select bank0
  4564  03AA  083B               	movf	?__Umul8_16+1,w
  4565  03AB  1683               	bsf	3,5	;RP0=1, select bank1
  4566  03AC  1303               	bcf	3,6	;RP1=0, select bank1
  4567  03AD  00B4               	movwf	(___flmul@temp+1)^(0+128)
  4568  03AE  1283               	bcf	3,5	;RP0=0, select bank0
  4569  03AF  1303               	bcf	3,6	;RP1=0, select bank0
  4570  03B0  083A               	movf	?__Umul8_16,w
  4571  03B1  1683               	bsf	3,5	;RP0=1, select bank1
  4572  03B2  1303               	bcf	3,6	;RP1=0, select bank1
  4573  03B3  00B3               	movwf	___flmul@temp^(0+128)
  4574  03B4                     l2758:	
  4575  03B4  0833               	movf	___flmul@temp^(0+128),w
  4576  03B5  1283               	bcf	3,5	;RP0=0, select bank0
  4577  03B6  1303               	bcf	3,6	;RP1=0, select bank0
  4578  03B7  00CA               	movwf	??___flmul
  4579  03B8  1683               	bsf	3,5	;RP0=1, select bank1
  4580  03B9  1303               	bcf	3,6	;RP1=0, select bank1
  4581  03BA  0834               	movf	(___flmul@temp+1)^(0+128),w
  4582  03BB  1283               	bcf	3,5	;RP0=0, select bank0
  4583  03BC  1303               	bcf	3,6	;RP1=0, select bank0
  4584  03BD  00CB               	movwf	??___flmul+1
  4585  03BE  01CC               	clrf	??___flmul+2
  4586  03BF  01CD               	clrf	??___flmul+3
  4587  03C0  3008               	movlw	8
  4588  03C1                     u3135:	
  4589  03C1  1003               	clrc
  4590  03C2  0DCA               	rlf	??___flmul,f
  4591  03C3  0DCB               	rlf	??___flmul+1,f
  4592  03C4  0DCC               	rlf	??___flmul+2,f
  4593  03C5  0DCD               	rlf	??___flmul+3,f
  4594  03C6                     u3130:	
  4595  03C6  3EFF               	addlw	-1
  4596  03C7  1D03               	skipz
  4597  03C8  2BC1               	goto	u3135
  4598  03C9  084A               	movf	??___flmul,w
  4599  03CA  1683               	bsf	3,5	;RP0=1, select bank1
  4600  03CB  1303               	bcf	3,6	;RP1=0, select bank1
  4601  03CC  07AF               	addwf	___flmul@prod^(0+128),f
  4602  03CD  1283               	bcf	3,5	;RP0=0, select bank0
  4603  03CE  1303               	bcf	3,6	;RP1=0, select bank0
  4604  03CF  084B               	movf	??___flmul+1,w
  4605  03D0  1103               	clrz
  4606  03D1  1803               	skipnc
  4607  03D2  3E01               	addlw	1
  4608  03D3  1903               	skipnz
  4609  03D4  2BD8               	goto	u3141
  4610  03D5  1683               	bsf	3,5	;RP0=1, select bank1
  4611  03D6  1303               	bcf	3,6	;RP1=0, select bank1
  4612  03D7  07B0               	addwf	(___flmul@prod+1)^(0+128),f
  4613  03D8                     u3141:	
  4614  03D8  1283               	bcf	3,5	;RP0=0, select bank0
  4615  03D9  1303               	bcf	3,6	;RP1=0, select bank0
  4616  03DA  084C               	movf	??___flmul+2,w
  4617  03DB  1103               	clrz
  4618  03DC  1803               	skipnc
  4619  03DD  3E01               	addlw	1
  4620  03DE  1903               	skipnz
  4621  03DF  2BE3               	goto	u3142
  4622  03E0  1683               	bsf	3,5	;RP0=1, select bank1
  4623  03E1  1303               	bcf	3,6	;RP1=0, select bank1
  4624  03E2  07B1               	addwf	(___flmul@prod+2)^(0+128),f
  4625  03E3                     u3142:	
  4626  03E3  1283               	bcf	3,5	;RP0=0, select bank0
  4627  03E4  1303               	bcf	3,6	;RP1=0, select bank0
  4628  03E5  084D               	movf	??___flmul+3,w
  4629  03E6  1103               	clrz
  4630  03E7  1803               	skipnc
  4631  03E8  3E01               	addlw	1
  4632  03E9  1903               	skipnz
  4633  03EA  2BEE               	goto	u3143
  4634  03EB  1683               	bsf	3,5	;RP0=1, select bank1
  4635  03EC  1303               	bcf	3,6	;RP1=0, select bank1
  4636  03ED  07B2               	addwf	(___flmul@prod+3)^(0+128),f
  4637  03EE                     u3143:	
  4638  03EE  1283               	bcf	3,5	;RP0=0, select bank0
  4639  03EF  1303               	bcf	3,6	;RP1=0, select bank0
  4640  03F0  1683               	bsf	3,5	;RP0=1, select bank1
  4641  03F1  1303               	bcf	3,6	;RP1=0, select bank1
  4642  03F2                     l2760:	
  4643  03F2  082A               	movf	___flmul@grs^(0+128),w
  4644  03F3  1283               	bcf	3,5	;RP0=0, select bank0
  4645  03F4  1303               	bcf	3,6	;RP1=0, select bank0
  4646  03F5  00CA               	movwf	??___flmul
  4647  03F6  1683               	bsf	3,5	;RP0=1, select bank1
  4648  03F7  1303               	bcf	3,6	;RP1=0, select bank1
  4649  03F8  082B               	movf	(___flmul@grs+1)^(0+128),w
  4650  03F9  1283               	bcf	3,5	;RP0=0, select bank0
  4651  03FA  1303               	bcf	3,6	;RP1=0, select bank0
  4652  03FB  00CB               	movwf	??___flmul+1
  4653  03FC  1683               	bsf	3,5	;RP0=1, select bank1
  4654  03FD  1303               	bcf	3,6	;RP1=0, select bank1
  4655  03FE  082C               	movf	(___flmul@grs+2)^(0+128),w
  4656  03FF  1283               	bcf	3,5	;RP0=0, select bank0
  4657  0400  1303               	bcf	3,6	;RP1=0, select bank0
  4658  0401  00CC               	movwf	??___flmul+2
  4659  0402  1683               	bsf	3,5	;RP0=1, select bank1
  4660  0403  1303               	bcf	3,6	;RP1=0, select bank1
  4661  0404  082D               	movf	(___flmul@grs+3)^(0+128),w
  4662  0405  1283               	bcf	3,5	;RP0=0, select bank0
  4663  0406  1303               	bcf	3,6	;RP1=0, select bank0
  4664  0407  00CD               	movwf	??___flmul+3
  4665  0408  3018               	movlw	24
  4666  0409                     u3155:	
  4667  0409  1003               	clrc
  4668  040A  0CCD               	rrf	??___flmul+3,f
  4669  040B  0CCC               	rrf	??___flmul+2,f
  4670  040C  0CCB               	rrf	??___flmul+1,f
  4671  040D  0CCA               	rrf	??___flmul,f
  4672  040E                     u3150:	
  4673  040E  3EFF               	addlw	-1
  4674  040F  1D03               	skipz
  4675  0410  2C09               	goto	u3155
  4676  0411  084A               	movf	??___flmul,w
  4677  0412  1683               	bsf	3,5	;RP0=1, select bank1
  4678  0413  1303               	bcf	3,6	;RP1=0, select bank1
  4679  0414  07AF               	addwf	___flmul@prod^(0+128),f
  4680  0415  1283               	bcf	3,5	;RP0=0, select bank0
  4681  0416  1303               	bcf	3,6	;RP1=0, select bank0
  4682  0417  084B               	movf	??___flmul+1,w
  4683  0418  1103               	clrz
  4684  0419  1803               	skipnc
  4685  041A  3E01               	addlw	1
  4686  041B  1903               	skipnz
  4687  041C  2C20               	goto	u3161
  4688  041D  1683               	bsf	3,5	;RP0=1, select bank1
  4689  041E  1303               	bcf	3,6	;RP1=0, select bank1
  4690  041F  07B0               	addwf	(___flmul@prod+1)^(0+128),f
  4691  0420                     u3161:	
  4692  0420  1283               	bcf	3,5	;RP0=0, select bank0
  4693  0421  1303               	bcf	3,6	;RP1=0, select bank0
  4694  0422  084C               	movf	??___flmul+2,w
  4695  0423  1103               	clrz
  4696  0424  1803               	skipnc
  4697  0425  3E01               	addlw	1
  4698  0426  1903               	skipnz
  4699  0427  2C2B               	goto	u3162
  4700  0428  1683               	bsf	3,5	;RP0=1, select bank1
  4701  0429  1303               	bcf	3,6	;RP1=0, select bank1
  4702  042A  07B1               	addwf	(___flmul@prod+2)^(0+128),f
  4703  042B                     u3162:	
  4704  042B  1283               	bcf	3,5	;RP0=0, select bank0
  4705  042C  1303               	bcf	3,6	;RP1=0, select bank0
  4706  042D  084D               	movf	??___flmul+3,w
  4707  042E  1103               	clrz
  4708  042F  1803               	skipnc
  4709  0430  3E01               	addlw	1
  4710  0431  1903               	skipnz
  4711  0432  2C36               	goto	u3163
  4712  0433  1683               	bsf	3,5	;RP0=1, select bank1
  4713  0434  1303               	bcf	3,6	;RP1=0, select bank1
  4714  0435  07B2               	addwf	(___flmul@prod+3)^(0+128),f
  4715  0436                     u3163:	
  4716  0436  1283               	bcf	3,5	;RP0=0, select bank0
  4717  0437  1303               	bcf	3,6	;RP1=0, select bank0
  4718  0438  1683               	bsf	3,5	;RP0=1, select bank1
  4719  0439  1303               	bcf	3,6	;RP1=0, select bank1
  4720  043A                     l2762:	
  4721  043A  3008               	movlw	8
  4722  043B  1283               	bcf	3,5	;RP0=0, select bank0
  4723  043C  1303               	bcf	3,6	;RP1=0, select bank0
  4724  043D  00CA               	movwf	??___flmul
  4725  043E                     u3175:	
  4726  043E  1003               	clrc
  4727  043F  1683               	bsf	3,5	;RP0=1, select bank1
  4728  0440  1303               	bcf	3,6	;RP1=0, select bank1
  4729  0441  0DAA               	rlf	___flmul@grs^(0+128),f
  4730  0442  0DAB               	rlf	(___flmul@grs+1)^(0+128),f
  4731  0443  0DAC               	rlf	(___flmul@grs+2)^(0+128),f
  4732  0444  0DAD               	rlf	(___flmul@grs+3)^(0+128),f
  4733  0445  1283               	bcf	3,5	;RP0=0, select bank0
  4734  0446  1303               	bcf	3,6	;RP1=0, select bank0
  4735  0447  0BCA               	decfsz	??___flmul,f
  4736  0448  2C3E               	goto	u3175
  4737  0449                     l2764:	
  4738  0449  1683               	bsf	3,5	;RP0=1, select bank1
  4739  044A  1303               	bcf	3,6	;RP1=0, select bank1
  4740  044B  082E               	movf	___flmul@bexp^(0+128),w
  4741  044C  0729               	addwf	___flmul@aexp^(0+128),w
  4742  044D  1283               	bcf	3,5	;RP0=0, select bank0
  4743  044E  1303               	bcf	3,6	;RP1=0, select bank0
  4744  044F  00CA               	movwf	??___flmul
  4745  0450  01CB               	clrf	??___flmul+1
  4746  0451  0DCB               	rlf	??___flmul+1,f
  4747  0452  084A               	movf	??___flmul,w
  4748  0453  3E82               	addlw	130
  4749  0454  1683               	bsf	3,5	;RP0=1, select bank1
  4750  0455  1303               	bcf	3,6	;RP1=0, select bank1
  4751  0456  00B3               	movwf	___flmul@temp^(0+128)
  4752  0457  1283               	bcf	3,5	;RP0=0, select bank0
  4753  0458  1303               	bcf	3,6	;RP1=0, select bank0
  4754  0459  084B               	movf	??___flmul+1,w
  4755  045A  1803               	skipnc
  4756  045B  3E01               	addlw	1
  4757  045C  3EFF               	addlw	255
  4758  045D  1683               	bsf	3,5	;RP0=1, select bank1
  4759  045E  1303               	bcf	3,6	;RP1=0, select bank1
  4760  045F  00B4               	movwf	(___flmul@temp+1)^(0+128)
  4761  0460  2C8E               	goto	l2776
  4762  0461                     l2766:	
  4763  0461  3001               	movlw	1
  4764  0462  1283               	bcf	3,5	;RP0=0, select bank0
  4765  0463  1303               	bcf	3,6	;RP1=0, select bank0
  4766  0464  00CA               	movwf	??___flmul
  4767  0465                     u3185:	
  4768  0465  1003               	clrc
  4769  0466  1683               	bsf	3,5	;RP0=1, select bank1
  4770  0467  1303               	bcf	3,6	;RP1=0, select bank1
  4771  0468  0DAF               	rlf	___flmul@prod^(0+128),f
  4772  0469  0DB0               	rlf	(___flmul@prod+1)^(0+128),f
  4773  046A  0DB1               	rlf	(___flmul@prod+2)^(0+128),f
  4774  046B  0DB2               	rlf	(___flmul@prod+3)^(0+128),f
  4775  046C  1283               	bcf	3,5	;RP0=0, select bank0
  4776  046D  1303               	bcf	3,6	;RP1=0, select bank0
  4777  046E  0BCA               	decfsz	??___flmul,f
  4778  046F  2C65               	goto	u3185
  4779  0470                     l2768:	
  4780  0470  1683               	bsf	3,5	;RP0=1, select bank1
  4781  0471  1303               	bcf	3,6	;RP1=0, select bank1
  4782  0472  1FAD               	btfss	(___flmul@grs+3)^(0+128),7
  4783  0473  2C75               	goto	u3191
  4784  0474  2C76               	goto	u3190
  4785  0475                     u3191:	
  4786  0475  2C77               	goto	l2772
  4787  0476                     u3190:	
  4788  0476                     l2770:	
  4789  0476  142F               	bsf	___flmul@prod^(0+128),0
  4790  0477                     l2772:	
  4791  0477  3001               	movlw	1
  4792  0478  1283               	bcf	3,5	;RP0=0, select bank0
  4793  0479  1303               	bcf	3,6	;RP1=0, select bank0
  4794  047A  00CA               	movwf	??___flmul
  4795  047B                     u3205:	
  4796  047B  1003               	clrc
  4797  047C  1683               	bsf	3,5	;RP0=1, select bank1
  4798  047D  1303               	bcf	3,6	;RP1=0, select bank1
  4799  047E  0DAA               	rlf	___flmul@grs^(0+128),f
  4800  047F  0DAB               	rlf	(___flmul@grs+1)^(0+128),f
  4801  0480  0DAC               	rlf	(___flmul@grs+2)^(0+128),f
  4802  0481  0DAD               	rlf	(___flmul@grs+3)^(0+128),f
  4803  0482  1283               	bcf	3,5	;RP0=0, select bank0
  4804  0483  1303               	bcf	3,6	;RP1=0, select bank0
  4805  0484  0BCA               	decfsz	??___flmul,f
  4806  0485  2C7B               	goto	u3205
  4807  0486                     l2774:	
  4808  0486  30FF               	movlw	255
  4809  0487  1683               	bsf	3,5	;RP0=1, select bank1
  4810  0488  1303               	bcf	3,6	;RP1=0, select bank1
  4811  0489  07B3               	addwf	___flmul@temp^(0+128),f
  4812  048A  1803               	skipnc
  4813  048B  0AB4               	incf	(___flmul@temp+1)^(0+128),f
  4814  048C  30FF               	movlw	255
  4815  048D  07B4               	addwf	(___flmul@temp+1)^(0+128),f
  4816  048E                     l2776:	
  4817  048E  1FB1               	btfss	(___flmul@prod+2)^(0+128),7
  4818  048F  2C91               	goto	u3211
  4819  0490  2C92               	goto	u3210
  4820  0491                     u3211:	
  4821  0491  2C61               	goto	l2766
  4822  0492                     u3210:	
  4823  0492                     l2778:	
  4824  0492  01A9               	clrf	___flmul@aexp^(0+128)
  4825  0493                     l2780:	
  4826  0493  1FAD               	btfss	(___flmul@grs+3)^(0+128),7
  4827  0494  2C96               	goto	u3221
  4828  0495  2C97               	goto	u3220
  4829  0496                     u3221:	
  4830  0496  2CC5               	goto	l2788
  4831  0497                     u3220:	
  4832  0497                     l2782:	
  4833  0497  30FF               	movlw	255
  4834  0498  052A               	andwf	___flmul@grs^(0+128),w
  4835  0499  1283               	bcf	3,5	;RP0=0, select bank0
  4836  049A  1303               	bcf	3,6	;RP1=0, select bank0
  4837  049B  00CA               	movwf	??___flmul
  4838  049C  30FF               	movlw	255
  4839  049D  1683               	bsf	3,5	;RP0=1, select bank1
  4840  049E  1303               	bcf	3,6	;RP1=0, select bank1
  4841  049F  052B               	andwf	(___flmul@grs+1)^(0+128),w
  4842  04A0  1283               	bcf	3,5	;RP0=0, select bank0
  4843  04A1  1303               	bcf	3,6	;RP1=0, select bank0
  4844  04A2  00CB               	movwf	??___flmul+1
  4845  04A3  30FF               	movlw	255
  4846  04A4  1683               	bsf	3,5	;RP0=1, select bank1
  4847  04A5  1303               	bcf	3,6	;RP1=0, select bank1
  4848  04A6  052C               	andwf	(___flmul@grs+2)^(0+128),w
  4849  04A7  1283               	bcf	3,5	;RP0=0, select bank0
  4850  04A8  1303               	bcf	3,6	;RP1=0, select bank0
  4851  04A9  00CC               	movwf	??___flmul+2
  4852  04AA  307F               	movlw	127
  4853  04AB  1683               	bsf	3,5	;RP0=1, select bank1
  4854  04AC  1303               	bcf	3,6	;RP1=0, select bank1
  4855  04AD  052D               	andwf	(___flmul@grs+3)^(0+128),w
  4856  04AE  1283               	bcf	3,5	;RP0=0, select bank0
  4857  04AF  1303               	bcf	3,6	;RP1=0, select bank0
  4858  04B0  00CD               	movwf	??___flmul+3
  4859  04B1  084D               	movf	??___flmul+3,w
  4860  04B2  044C               	iorwf	??___flmul+2,w
  4861  04B3  044B               	iorwf	??___flmul+1,w
  4862  04B4  044A               	iorwf	??___flmul,w
  4863  04B5  1903               	skipnz
  4864  04B6  2CB8               	goto	u3231
  4865  04B7  2CB9               	goto	u3230
  4866  04B8                     u3231:	
  4867  04B8  2CBE               	goto	l736
  4868  04B9                     u3230:	
  4869  04B9                     l2784:	
  4870  04B9  1683               	bsf	3,5	;RP0=1, select bank1
  4871  04BA  1303               	bcf	3,6	;RP1=0, select bank1
  4872  04BB  01A9               	clrf	___flmul@aexp^(0+128)
  4873  04BC  0AA9               	incf	___flmul@aexp^(0+128),f
  4874  04BD  2CC5               	goto	l2788
  4875  04BE                     l736:	
  4876  04BE  1683               	bsf	3,5	;RP0=1, select bank1
  4877  04BF  1303               	bcf	3,6	;RP1=0, select bank1
  4878  04C0  1C2F               	btfss	___flmul@prod^(0+128),0
  4879  04C1  2CC3               	goto	u3241
  4880  04C2  2CC4               	goto	u3240
  4881  04C3                     u3241:	
  4882  04C3  2CC5               	goto	l2788
  4883  04C4                     u3240:	
  4884  04C4  2CB9               	goto	l2784
  4885  04C5                     l2788:	
  4886  04C5  0829               	movf	___flmul@aexp^(0+128),w
  4887  04C6  1903               	btfsc	3,2
  4888  04C7  2CC9               	goto	u3251
  4889  04C8  2CCA               	goto	u3250
  4890  04C9                     u3251:	
  4891  04C9  2D17               	goto	l2798
  4892  04CA                     u3250:	
  4893  04CA                     l2790:	
  4894  04CA  3001               	movlw	1
  4895  04CB  07AF               	addwf	___flmul@prod^(0+128),f
  4896  04CC  3000               	movlw	0
  4897  04CD  1803               	skipnc
  4898  04CE  3001               	movlw	1
  4899  04CF  07B0               	addwf	(___flmul@prod+1)^(0+128),f
  4900  04D0  3000               	movlw	0
  4901  04D1  1803               	skipnc
  4902  04D2  3001               	movlw	1
  4903  04D3  07B1               	addwf	(___flmul@prod+2)^(0+128),f
  4904  04D4  3000               	movlw	0
  4905  04D5  1803               	skipnc
  4906  04D6  3001               	movlw	1
  4907  04D7  07B2               	addwf	(___flmul@prod+3)^(0+128),f
  4908  04D8                     l2792:	
  4909  04D8  1C32               	btfss	(___flmul@prod+3)^(0+128),0
  4910  04D9  2CDB               	goto	u3261
  4911  04DA  2CDC               	goto	u3260
  4912  04DB                     u3261:	
  4913  04DB  2D17               	goto	l2798
  4914  04DC                     u3260:	
  4915  04DC                     l2794:	
  4916  04DC  082F               	movf	___flmul@prod^(0+128),w
  4917  04DD  1283               	bcf	3,5	;RP0=0, select bank0
  4918  04DE  1303               	bcf	3,6	;RP1=0, select bank0
  4919  04DF  00CA               	movwf	??___flmul
  4920  04E0  1683               	bsf	3,5	;RP0=1, select bank1
  4921  04E1  1303               	bcf	3,6	;RP1=0, select bank1
  4922  04E2  0830               	movf	(___flmul@prod+1)^(0+128),w
  4923  04E3  1283               	bcf	3,5	;RP0=0, select bank0
  4924  04E4  1303               	bcf	3,6	;RP1=0, select bank0
  4925  04E5  00CB               	movwf	??___flmul+1
  4926  04E6  1683               	bsf	3,5	;RP0=1, select bank1
  4927  04E7  1303               	bcf	3,6	;RP1=0, select bank1
  4928  04E8  0831               	movf	(___flmul@prod+2)^(0+128),w
  4929  04E9  1283               	bcf	3,5	;RP0=0, select bank0
  4930  04EA  1303               	bcf	3,6	;RP1=0, select bank0
  4931  04EB  00CC               	movwf	??___flmul+2
  4932  04EC  1683               	bsf	3,5	;RP0=1, select bank1
  4933  04ED  1303               	bcf	3,6	;RP1=0, select bank1
  4934  04EE  0832               	movf	(___flmul@prod+3)^(0+128),w
  4935  04EF  1283               	bcf	3,5	;RP0=0, select bank0
  4936  04F0  1303               	bcf	3,6	;RP1=0, select bank0
  4937  04F1  00CD               	movwf	??___flmul+3
  4938  04F2  3001               	movlw	1
  4939  04F3  00CE               	movwf	??___flmul+4
  4940  04F4                     u3275:	
  4941  04F4  0D4D               	rlf	??___flmul+3,w
  4942  04F5  0CCD               	rrf	??___flmul+3,f
  4943  04F6  0CCC               	rrf	??___flmul+2,f
  4944  04F7  0CCB               	rrf	??___flmul+1,f
  4945  04F8  0CCA               	rrf	??___flmul,f
  4946  04F9                     u3270:	
  4947  04F9  0BCE               	decfsz	??___flmul+4,f
  4948  04FA  2CF4               	goto	u3275
  4949  04FB  084D               	movf	??___flmul+3,w
  4950  04FC  1683               	bsf	3,5	;RP0=1, select bank1
  4951  04FD  1303               	bcf	3,6	;RP1=0, select bank1
  4952  04FE  00B2               	movwf	(___flmul@prod+3)^(0+128)
  4953  04FF  1283               	bcf	3,5	;RP0=0, select bank0
  4954  0500  1303               	bcf	3,6	;RP1=0, select bank0
  4955  0501  084C               	movf	??___flmul+2,w
  4956  0502  1683               	bsf	3,5	;RP0=1, select bank1
  4957  0503  1303               	bcf	3,6	;RP1=0, select bank1
  4958  0504  00B1               	movwf	(___flmul@prod+2)^(0+128)
  4959  0505  1283               	bcf	3,5	;RP0=0, select bank0
  4960  0506  1303               	bcf	3,6	;RP1=0, select bank0
  4961  0507  084B               	movf	??___flmul+1,w
  4962  0508  1683               	bsf	3,5	;RP0=1, select bank1
  4963  0509  1303               	bcf	3,6	;RP1=0, select bank1
  4964  050A  00B0               	movwf	(___flmul@prod+1)^(0+128)
  4965  050B  1283               	bcf	3,5	;RP0=0, select bank0
  4966  050C  1303               	bcf	3,6	;RP1=0, select bank0
  4967  050D  084A               	movf	??___flmul,w
  4968  050E  1683               	bsf	3,5	;RP0=1, select bank1
  4969  050F  1303               	bcf	3,6	;RP1=0, select bank1
  4970  0510  00AF               	movwf	___flmul@prod^(0+128)
  4971  0511                     l2796:	
  4972  0511  3001               	movlw	1
  4973  0512  07B3               	addwf	___flmul@temp^(0+128),f
  4974  0513  1803               	skipnc
  4975  0514  0AB4               	incf	(___flmul@temp+1)^(0+128),f
  4976  0515  3000               	movlw	0
  4977  0516  07B4               	addwf	(___flmul@temp+1)^(0+128),f
  4978  0517                     l2798:	
  4979  0517  0834               	movf	(___flmul@temp+1)^(0+128),w
  4980  0518  3A80               	xorlw	128
  4981  0519  00FF               	movwf	btemp+1
  4982  051A  3080               	movlw	128
  4983  051B  027F               	subwf	btemp+1,w
  4984  051C  1D03               	skipz
  4985  051D  2D20               	goto	u3285
  4986  051E  30FF               	movlw	255
  4987  051F  0233               	subwf	___flmul@temp^(0+128),w
  4988  0520                     u3285:	
  4989  0520  1C03               	skipc
  4990  0521  2D23               	goto	u3281
  4991  0522  2D24               	goto	u3280
  4992  0523                     u3281:	
  4993  0523  2D2F               	goto	l2802
  4994  0524                     u3280:	
  4995  0524                     l2800:	
  4996  0524  307F               	movlw	127
  4997  0525  1683               	bsf	3,5	;RP0=1, select bank1
  4998  0526  1303               	bcf	3,6	;RP1=0, select bank1
  4999  0527  00B2               	movwf	(___flmul@prod+3)^(0+128)
  5000  0528  3080               	movlw	128
  5001  0529  00B1               	movwf	(___flmul@prod+2)^(0+128)
  5002  052A  3000               	movlw	0
  5003  052B  00B0               	movwf	(___flmul@prod+1)^(0+128)
  5004  052C  3000               	movlw	0
  5005  052D  00AF               	movwf	___flmul@prod^(0+128)
  5006  052E  2D6C               	goto	l742
  5007  052F                     l2802:	
  5008  052F  1683               	bsf	3,5	;RP0=1, select bank1
  5009  0530  1303               	bcf	3,6	;RP1=0, select bank1
  5010  0531  0834               	movf	(___flmul@temp+1)^(0+128),w
  5011  0532  3A80               	xorlw	128
  5012  0533  00FF               	movwf	btemp+1
  5013  0534  3080               	movlw	128
  5014  0535  027F               	subwf	btemp+1,w
  5015  0536  1D03               	skipz
  5016  0537  2D3A               	goto	u3295
  5017  0538  3001               	movlw	1
  5018  0539  0233               	subwf	___flmul@temp^(0+128),w
  5019  053A                     u3295:	
  5020  053A  1803               	skipnc
  5021  053B  2D3D               	goto	u3291
  5022  053C  2D3E               	goto	u3290
  5023  053D                     u3291:	
  5024  053D  2D4A               	goto	l2808
  5025  053E                     u3290:	
  5026  053E                     l2804:	
  5027  053E  3000               	movlw	0
  5028  053F  1683               	bsf	3,5	;RP0=1, select bank1
  5029  0540  1303               	bcf	3,6	;RP1=0, select bank1
  5030  0541  00B2               	movwf	(___flmul@prod+3)^(0+128)
  5031  0542  3000               	movlw	0
  5032  0543  00B1               	movwf	(___flmul@prod+2)^(0+128)
  5033  0544  3000               	movlw	0
  5034  0545  00B0               	movwf	(___flmul@prod+1)^(0+128)
  5035  0546  3000               	movlw	0
  5036  0547  00AF               	movwf	___flmul@prod^(0+128)
  5037  0548                     l2806:	
  5038  0548  01A8               	clrf	___flmul@sign^(0+128)
  5039  0549  2D6C               	goto	l742
  5040  054A                     l2808:	
  5041  054A  1683               	bsf	3,5	;RP0=1, select bank1
  5042  054B  1303               	bcf	3,6	;RP1=0, select bank1
  5043  054C  0833               	movf	___flmul@temp^(0+128),w
  5044  054D  1283               	bcf	3,5	;RP0=0, select bank0
  5045  054E  1303               	bcf	3,6	;RP1=0, select bank0
  5046  054F  00CA               	movwf	??___flmul
  5047  0550  084A               	movf	??___flmul,w
  5048  0551  1683               	bsf	3,5	;RP0=1, select bank1
  5049  0552  1303               	bcf	3,6	;RP1=0, select bank1
  5050  0553  00AE               	movwf	___flmul@bexp^(0+128)
  5051  0554  30FF               	movlw	255
  5052  0555  05AF               	andwf	___flmul@prod^(0+128),f
  5053  0556  30FF               	movlw	255
  5054  0557  05B0               	andwf	(___flmul@prod+1)^(0+128),f
  5055  0558  307F               	movlw	127
  5056  0559  05B1               	andwf	(___flmul@prod+2)^(0+128),f
  5057  055A  3000               	movlw	0
  5058  055B  05B2               	andwf	(___flmul@prod+3)^(0+128),f
  5059  055C                     l2810:	
  5060  055C  1C2E               	btfss	___flmul@bexp^(0+128),0
  5061  055D  2D5F               	goto	u3301
  5062  055E  2D60               	goto	u3300
  5063  055F                     u3301:	
  5064  055F  2D61               	goto	l2814
  5065  0560                     u3300:	
  5066  0560                     l2812:	
  5067  0560  17B1               	bsf	(___flmul@prod^(0+128)+2),7
  5068  0561                     l2814:	
  5069  0561  082E               	movf	___flmul@bexp^(0+128),w
  5070  0562  1283               	bcf	3,5	;RP0=0, select bank0
  5071  0563  1303               	bcf	3,6	;RP1=0, select bank0
  5072  0564  00CA               	movwf	??___flmul
  5073  0565  1003               	clrc
  5074  0566  0C4A               	rrf	??___flmul,w
  5075  0567  00CB               	movwf	??___flmul+1
  5076  0568  084B               	movf	??___flmul+1,w
  5077  0569  1683               	bsf	3,5	;RP0=1, select bank1
  5078  056A  1303               	bcf	3,6	;RP1=0, select bank1
  5079  056B  00B2               	movwf	(___flmul@prod^(0+128)+3)
  5080  056C                     l742:	
  5081  056C  0828               	movf	___flmul@sign^(0+128),w
  5082  056D  1283               	bcf	3,5	;RP0=0, select bank0
  5083  056E  1303               	bcf	3,6	;RP1=0, select bank0
  5084  056F  00CA               	movwf	??___flmul
  5085  0570  084A               	movf	??___flmul,w
  5086  0571  1683               	bsf	3,5	;RP0=1, select bank1
  5087  0572  1303               	bcf	3,6	;RP1=0, select bank1
  5088  0573  04B2               	iorwf	(___flmul@prod^(0+128)+3),f
  5089  0574                     l2816:	
  5090  0574  0832               	movf	(___flmul@prod+3)^(0+128),w
  5091  0575  00A3               	movwf	(?___flmul+3)^(0+128)
  5092  0576  0831               	movf	(___flmul@prod+2)^(0+128),w
  5093  0577  00A2               	movwf	(?___flmul+2)^(0+128)
  5094  0578  0830               	movf	(___flmul@prod+1)^(0+128),w
  5095  0579  00A1               	movwf	(?___flmul+1)^(0+128)
  5096  057A  082F               	movf	___flmul@prod^(0+128),w
  5097  057B  00A0               	movwf	?___flmul^(0+128)
  5098  057C                     l730:	
  5099  057C  0008               	return
  5100  057D                     __end_of___flmul:	
  5101                           
  5102                           	psect	text17
  5103  0A93                     __ptext17:	
  5104 ;; *************** function __Umul8_16 *****************
  5105 ;; Defined at:
  5106 ;;		line 4 in file "C:\Program Files (x86)\Microchip\xc8\v2.10\pic\sources\c90\common\Umul8_16.c"
  5107 ;; Parameters:    Size  Location     Type
  5108 ;;  multiplier      1    wreg     unsigned char 
  5109 ;;  multiplicand    1   26[BANK0 ] unsigned char 
  5110 ;; Auto vars:     Size  Location     Type
  5111 ;;  multiplier      1   34[BANK0 ] unsigned char 
  5112 ;;  word_mpld       2   32[BANK0 ] unsigned int 
  5113 ;;  product         2   30[BANK0 ] unsigned int 
  5114 ;; Return value:  Size  Location     Type
  5115 ;;                  2   26[BANK0 ] unsigned int 
  5116 ;; Registers used:
  5117 ;;		wreg, status,2, status,0
  5118 ;; Tracked objects:
  5119 ;;		On entry : 0/0
  5120 ;;		On exit  : 0/0
  5121 ;;		Unchanged: 0/0
  5122 ;; Data sizes:     COMMON   BANK0   BANK1
  5123 ;;      Params:         0       2       0
  5124 ;;      Locals:         0       5       0
  5125 ;;      Temps:          0       2       0
  5126 ;;      Totals:         0       9       0
  5127 ;;Total ram usage:        9 bytes
  5128 ;; Hardware stack levels used:    1
  5129 ;; Hardware stack levels required when called:    6
  5130 ;; This function calls:
  5131 ;;		Nothing
  5132 ;; This function is called by:
  5133 ;;		___flmul
  5134 ;; This function uses a non-reentrant model
  5135 ;;
  5136                           
  5137                           
  5138                           ;psect for function __Umul8_16
  5139  0A93                     __Umul8_16:	
  5140                           
  5141                           ;incstack = 0
  5142 ;; hardware stack exceeded
  5143                           ; Regs used in __Umul8_16: [wreg+status,2+status,0]
  5144                           ;__Umul8_16@multiplier stored from wreg
  5145  0A93  1283               	bcf	3,5	;RP0=0, select bank0
  5146  0A94  1303               	bcf	3,6	;RP1=0, select bank0
  5147  0A95  00C2               	movwf	__Umul8_16@multiplier
  5148  0A96                     l2568:	
  5149  0A96  01BE               	clrf	__Umul8_16@product
  5150  0A97  01BF               	clrf	__Umul8_16@product+1
  5151  0A98                     l2570:	
  5152  0A98  083A               	movf	__Umul8_16@multiplicand,w
  5153  0A99  00BC               	movwf	??__Umul8_16
  5154  0A9A  01BD               	clrf	??__Umul8_16+1
  5155  0A9B  083C               	movf	??__Umul8_16,w
  5156  0A9C  00C0               	movwf	__Umul8_16@word_mpld
  5157  0A9D  083D               	movf	??__Umul8_16+1,w
  5158  0A9E  00C1               	movwf	__Umul8_16@word_mpld+1
  5159  0A9F                     l2572:	
  5160  0A9F  1C42               	btfss	__Umul8_16@multiplier,0
  5161  0AA0  2AA2               	goto	u2741
  5162  0AA1  2AA3               	goto	u2740
  5163  0AA2                     u2741:	
  5164  0AA2  2AA9               	goto	l828
  5165  0AA3                     u2740:	
  5166  0AA3                     l2574:	
  5167  0AA3  0840               	movf	__Umul8_16@word_mpld,w
  5168  0AA4  07BE               	addwf	__Umul8_16@product,f
  5169  0AA5  1803               	skipnc
  5170  0AA6  0ABF               	incf	__Umul8_16@product+1,f
  5171  0AA7  0841               	movf	__Umul8_16@word_mpld+1,w
  5172  0AA8  07BF               	addwf	__Umul8_16@product+1,f
  5173  0AA9                     l828:	
  5174  0AA9  3001               	movlw	1
  5175  0AAA                     u2755:	
  5176  0AAA  1003               	clrc
  5177  0AAB  0DC0               	rlf	__Umul8_16@word_mpld,f
  5178  0AAC  0DC1               	rlf	__Umul8_16@word_mpld+1,f
  5179  0AAD  3EFF               	addlw	-1
  5180  0AAE  1D03               	skipz
  5181  0AAF  2AAA               	goto	u2755
  5182  0AB0  1003               	clrc
  5183  0AB1  0CC2               	rrf	__Umul8_16@multiplier,f
  5184  0AB2                     l2576:	
  5185  0AB2  0842               	movf	__Umul8_16@multiplier,w
  5186  0AB3  1D03               	btfss	3,2
  5187  0AB4  2AB6               	goto	u2761
  5188  0AB5  2AB7               	goto	u2760
  5189  0AB6                     u2761:	
  5190  0AB6  2A9F               	goto	l2572
  5191  0AB7                     u2760:	
  5192  0AB7                     l2578:	
  5193  0AB7  083F               	movf	__Umul8_16@product+1,w
  5194  0AB8  00BB               	movwf	?__Umul8_16+1
  5195  0AB9  083E               	movf	__Umul8_16@product,w
  5196  0ABA  00BA               	movwf	?__Umul8_16
  5197  0ABB                     l830:	
  5198  0ABB  0008               	return
  5199  0ABC                     __end_of__Umul8_16:	
  5200                           
  5201                           	psect	text18
  5202  08AE                     __ptext18:	
  5203 ;; *************** function _changeThermometerChannel *****************
  5204 ;; Defined at:
  5205 ;;		line 217 in file "termometroDiferencial.c"
  5206 ;; Parameters:    Size  Location     Type
  5207 ;;  channel         2   26[BANK0 ] int 
  5208 ;; Auto vars:     Size  Location     Type
  5209 ;;		None
  5210 ;; Return value:  Size  Location     Type
  5211 ;;                  1    wreg      void 
  5212 ;; Registers used:
  5213 ;;		wreg, status,2, status,0
  5214 ;; Tracked objects:
  5215 ;;		On entry : 0/0
  5216 ;;		On exit  : 0/0
  5217 ;;		Unchanged: 0/0
  5218 ;; Data sizes:     COMMON   BANK0   BANK1
  5219 ;;      Params:         0       2       0
  5220 ;;      Locals:         0       0       0
  5221 ;;      Temps:          0       0       0
  5222 ;;      Totals:         0       2       0
  5223 ;;Total ram usage:        2 bytes
  5224 ;; Hardware stack levels used:    1
  5225 ;; Hardware stack levels required when called:    6
  5226 ;; This function calls:
  5227 ;;		Nothing
  5228 ;; This function is called by:
  5229 ;;		_showDifferenceTemp
  5230 ;; This function uses a non-reentrant model
  5231 ;;
  5232                           
  5233                           
  5234                           ;psect for function _changeThermometerChannel
  5235  08AE                     _changeThermometerChannel:	
  5236  08AE                     l2216:	
  5237                           ;incstack = 0
  5238                           ; Regs used in _changeThermometerChannel: [wreg+status,2+status,0]
  5239                           
  5240                           
  5241                           ;termometroDiferencial.c: 218:     if (channel == 2) {
  5242  08AE  3002               	movlw	2
  5243  08AF  1283               	bcf	3,5	;RP0=0, select bank0
  5244  08B0  1303               	bcf	3,6	;RP1=0, select bank0
  5245  08B1  063A               	xorwf	changeThermometerChannel@channel,w
  5246  08B2  043B               	iorwf	changeThermometerChannel@channel+1,w
  5247  08B3  1D03               	btfss	3,2
  5248  08B4  28B6               	goto	u2371
  5249  08B5  28B7               	goto	u2370
  5250  08B6                     u2371:	
  5251  08B6  28B9               	goto	l147
  5252  08B7                     u2370:	
  5253  08B7                     l2218:	
  5254                           
  5255                           ;termometroDiferencial.c: 219:         CHS0 = 1;
  5256  08B7  159F               	bsf	31,3	;volatile
  5257                           
  5258                           ;termometroDiferencial.c: 220:     } else {
  5259  08B8  28BA               	goto	l149
  5260  08B9                     l147:	
  5261                           
  5262                           ;termometroDiferencial.c: 221:         CHS0 = 0;
  5263  08B9  119F               	bcf	31,3	;volatile
  5264  08BA                     l149:	
  5265  08BA  0008               	return
  5266  08BB                     __end_of_changeThermometerChannel:	
  5267                           
  5268                           	psect	text19
  5269  096B                     __ptext19:	
  5270 ;; *************** function _configThermo *****************
  5271 ;; Defined at:
  5272 ;;		line 118 in file "termometroDiferencial.c"
  5273 ;; Parameters:    Size  Location     Type
  5274 ;;		None
  5275 ;; Auto vars:     Size  Location     Type
  5276 ;;		None
  5277 ;; Return value:  Size  Location     Type
  5278 ;;                  1    wreg      void 
  5279 ;; Registers used:
  5280 ;;		wreg, status,2, status,0, pclath, cstack
  5281 ;; Tracked objects:
  5282 ;;		On entry : 0/0
  5283 ;;		On exit  : 0/0
  5284 ;;		Unchanged: 0/0
  5285 ;; Data sizes:     COMMON   BANK0   BANK1
  5286 ;;      Params:         0       0       0
  5287 ;;      Locals:         0       0       0
  5288 ;;      Temps:          0       0       0
  5289 ;;      Totals:         0       0       0
  5290 ;;Total ram usage:        0 bytes
  5291 ;; Hardware stack levels used:    1
  5292 ;; Hardware stack levels required when called:    8
  5293 ;; This function calls:
  5294 ;;		_sendNibble
  5295 ;; This function is called by:
  5296 ;;		_main
  5297 ;; This function uses a non-reentrant model
  5298 ;;
  5299                           
  5300                           
  5301                           ;psect for function _configThermo
  5302  096B                     _configThermo:	
  5303  096B                     l2286:	
  5304                           ;incstack = 0
  5305 ;; hardware stack exceeded
  5306                           ; Regs used in _configThermo: [wreg+status,2+status,0+pclath+cstack]
  5307                           
  5308                           
  5309                           ;termometroDiferencial.c: 119:     TRISC = 128;
  5310  096B  3080               	movlw	128
  5311  096C  1683               	bsf	3,5	;RP0=1, select bank1
  5312  096D  1303               	bcf	3,6	;RP1=0, select bank1
  5313  096E  0087               	movwf	7	;volatile
  5314                           
  5315                           ;termometroDiferencial.c: 120:     TRISA = 1;
  5316  096F  3001               	movlw	1
  5317  0970  0085               	movwf	5	;volatile
  5318                           
  5319                           ;termometroDiferencial.c: 121:     ADCON1 = 128;
  5320  0971  3080               	movlw	128
  5321  0972  009F               	movwf	31	;volatile
  5322                           
  5323                           ;termometroDiferencial.c: 122:     ADCON0 = 1;
  5324  0973  3001               	movlw	1
  5325  0974  1283               	bcf	3,5	;RP0=0, select bank0
  5326  0975  1303               	bcf	3,6	;RP1=0, select bank0
  5327  0976  009F               	movwf	31	;volatile
  5328  0977                     l2288:	
  5329                           
  5330                           ;termometroDiferencial.c: 123:     ADCS0 = 1;
  5331  0977  171F               	bsf	31,6	;volatile
  5332  0978                     l2290:	
  5333                           
  5334                           ;termometroDiferencial.c: 124:     sendNibble(8, 0);
  5335  0978  3008               	movlw	8
  5336  0979  00BB               	movwf	sendNibble@n
  5337  097A  3000               	movlw	0
  5338  097B  00BC               	movwf	sendNibble@n+1
  5339  097C  3000               	movlw	0
  5340  097D  00BD               	movwf	sendNibble@rs
  5341  097E  00BE               	movwf	sendNibble@rs+1
  5342  097F  158A  244F  158A   	fcall	_sendNibble
  5343  0982                     l119:	
  5344  0982  0008               	return
  5345  0983                     __end_of_configThermo:	
  5346                           
  5347                           	psect	text20
  5348  0B40                     __ptext20:	
  5349 ;; *************** function _configTempMode *****************
  5350 ;; Defined at:
  5351 ;;		line 332 in file "termometroDiferencial.c"
  5352 ;; Parameters:    Size  Location     Type
  5353 ;;		None
  5354 ;; Auto vars:     Size  Location     Type
  5355 ;;		None
  5356 ;; Return value:  Size  Location     Type
  5357 ;;                  1    wreg      void 
  5358 ;; Registers used:
  5359 ;;		wreg, fsr0l, fsr0h, status,2, status,0, btemp+1, pclath, cstack
  5360 ;; Tracked objects:
  5361 ;;		On entry : 0/0
  5362 ;;		On exit  : 0/0
  5363 ;;		Unchanged: 0/0
  5364 ;; Data sizes:     COMMON   BANK0   BANK1
  5365 ;;      Params:         0       0       0
  5366 ;;      Locals:         0       0       0
  5367 ;;      Temps:          0       0       0
  5368 ;;      Totals:         0       0       0
  5369 ;;Total ram usage:        0 bytes
  5370 ;; Hardware stack levels used:    1
  5371 ;; Hardware stack levels required when called:   11
  5372 ;; This function calls:
  5373 ;;		_ZeroSequenceKeyboard
  5374 ;;		_writeOnLCD
  5375 ;; This function is called by:
  5376 ;;		_main
  5377 ;; This function uses a non-reentrant model
  5378 ;;
  5379                           
  5380                           
  5381                           ;psect for function _configTempMode
  5382  0B40                     _configTempMode:	
  5383  0B40                     l2392:	
  5384                           ;incstack = 0
  5385 ;; hardware stack exceeded
  5386                           ; Regs used in _configTempMode: [wreg-fsr0h+status,2+status,0+btemp+1+pclath+cstack]
  5387                           
  5388                           
  5389                           ;termometroDiferencial.c: 334:     writeOnLCD("Ingrese temp MAXIMA");
  5390  0B40  300B               	movlw	(low ((STR_3-__stringbase)| (0+32768)))& (0+255)
  5391  0B41  1683               	bsf	3,5	;RP0=1, select bank1
  5392  0B42  1303               	bcf	3,6	;RP1=0, select bank1
  5393  0B43  00CD               	movwf	writeOnLCD@word^(0+128)
  5394  0B44  3080               	movlw	128
  5395  0B45  00CE               	movwf	(writeOnLCD@word+1)^(0+128)
  5396  0B46  158A  20EB  158A   	fcall	_writeOnLCD
  5397                           
  5398                           ;termometroDiferencial.c: 335:     writeOnLCD("Ingrese temp MAXIMA");
  5399  0B49  300B               	movlw	(low ((STR_3-__stringbase)| (0+32768)))& (0+255)
  5400  0B4A  1683               	bsf	3,5	;RP0=1, select bank1
  5401  0B4B  1303               	bcf	3,6	;RP1=0, select bank1
  5402  0B4C  00CD               	movwf	writeOnLCD@word^(0+128)
  5403  0B4D  3080               	movlw	128
  5404  0B4E  00CE               	movwf	(writeOnLCD@word+1)^(0+128)
  5405  0B4F  158A  20EB  158A   	fcall	_writeOnLCD
  5406                           
  5407                           ;termometroDiferencial.c: 337:     while (waiting == 1) {
  5408  0B52  2B56               	goto	l2396
  5409  0B53                     l2394:	
  5410                           
  5411                           ;termometroDiferencial.c: 338:         ZeroSequenceKeyboard();
  5412  0B53  118A  27F5  158A   	fcall	_ZeroSequenceKeyboard
  5413  0B56                     l2396:	
  5414                           
  5415                           ;termometroDiferencial.c: 337:     while (waiting == 1) {
  5416  0B56  1283               	bcf	3,5	;RP0=0, select bank0
  5417  0B57  1303               	bcf	3,6	;RP1=0, select bank0
  5418  0B58  035B               	decf	_waiting,w
  5419  0B59  045C               	iorwf	_waiting+1,w
  5420  0B5A  1903               	btfsc	3,2
  5421  0B5B  2B5D               	goto	u2511
  5422  0B5C  2B5E               	goto	u2510
  5423  0B5D                     u2511:	
  5424  0B5D  2B53               	goto	l2394
  5425  0B5E                     u2510:	
  5426  0B5E                     l2398:	
  5427                           
  5428                           ;termometroDiferencial.c: 341:     if (maxTemp > 150) {
  5429  0B5E  3000               	movlw	0
  5430  0B5F  1683               	bsf	3,5	;RP0=1, select bank1
  5431  0B60  1303               	bcf	3,6	;RP1=0, select bank1
  5432  0B61  0267               	subwf	(_maxTemp+1)^(0+128),w
  5433  0B62  3097               	movlw	151
  5434  0B63  1903               	skipnz
  5435  0B64  0266               	subwf	_maxTemp^(0+128),w
  5436  0B65  1C03               	skipc
  5437  0B66  2B68               	goto	u2521
  5438  0B67  2B69               	goto	u2520
  5439  0B68                     u2521:	
  5440  0B68  2B6D               	goto	l187
  5441  0B69                     u2520:	
  5442  0B69                     l2400:	
  5443                           
  5444                           ;termometroDiferencial.c: 342:         maxTemp = 150;
  5445  0B69  3096               	movlw	150
  5446  0B6A  00E6               	movwf	_maxTemp^(0+128)
  5447  0B6B  3000               	movlw	0
  5448  0B6C  00E7               	movwf	(_maxTemp^(0+128)+1)
  5449  0B6D                     l187:	
  5450  0B6D  0008               	return
  5451  0B6E                     __end_of_configTempMode:	
  5452                           
  5453                           	psect	text21
  5454  08EB                     __ptext21:	
  5455 ;; *************** function _writeOnLCD *****************
  5456 ;; Defined at:
  5457 ;;		line 104 in file "termometroDiferencial.c"
  5458 ;; Parameters:    Size  Location     Type
  5459 ;;  word            2   45[BANK1 ] PTR unsigned char 
  5460 ;;		 -> RAM(512), showDifferenceTemp@tempDifference(5), STR_4(20), STR_3(20), 
  5461 ;; Auto vars:     Size  Location     Type
  5462 ;;		None
  5463 ;; Return value:  Size  Location     Type
  5464 ;;                  1    wreg      void 
  5465 ;; Registers used:
  5466 ;;		wreg, fsr0l, fsr0h, status,2, status,0, btemp+1, pclath, cstack
  5467 ;; Tracked objects:
  5468 ;;		On entry : 0/0
  5469 ;;		On exit  : 0/0
  5470 ;;		Unchanged: 0/0
  5471 ;; Data sizes:     COMMON   BANK0   BANK1
  5472 ;;      Params:         0       0       2
  5473 ;;      Locals:         0       0       0
  5474 ;;      Temps:          0       0       0
  5475 ;;      Totals:         0       0       2
  5476 ;;Total ram usage:        2 bytes
  5477 ;; Hardware stack levels used:    1
  5478 ;; Hardware stack levels required when called:   10
  5479 ;; This function calls:
  5480 ;;		_writeWord
  5481 ;; This function is called by:
  5482 ;;		_configTempMode
  5483 ;;		_showDifferenceTemp
  5484 ;;		_showTemp
  5485 ;; This function uses a non-reentrant model
  5486 ;;
  5487                           
  5488                           
  5489                           ;psect for function _writeOnLCD
  5490  08EB                     _writeOnLCD:	
  5491  08EB                     l2190:	
  5492                           ;incstack = 0
  5493 ;; hardware stack exceeded
  5494                           ; Regs used in _writeOnLCD: [wreg-fsr0h+status,2+status,0+btemp+1+pclath+cstack]
  5495                           
  5496                           
  5497                           ;termometroDiferencial.c: 105:     writeWord(word);
  5498  08EB  1683               	bsf	3,5	;RP0=1, select bank1
  5499  08EC  1303               	bcf	3,6	;RP1=0, select bank1
  5500  08ED  084D               	movf	writeOnLCD@word^(0+128),w
  5501  08EE  1283               	bcf	3,5	;RP0=0, select bank0
  5502  08EF  1303               	bcf	3,6	;RP1=0, select bank0
  5503  08F0  00CA               	movwf	writeWord@word
  5504  08F1  1683               	bsf	3,5	;RP0=1, select bank1
  5505  08F2  1303               	bcf	3,6	;RP1=0, select bank1
  5506  08F3  084E               	movf	(writeOnLCD@word+1)^(0+128),w
  5507  08F4  1283               	bcf	3,5	;RP0=0, select bank0
  5508  08F5  1303               	bcf	3,6	;RP1=0, select bank0
  5509  08F6  00CB               	movwf	writeWord@word+1
  5510  08F7  158A  236E  158A   	fcall	_writeWord
  5511  08FA                     l113:	
  5512  08FA  0008               	return
  5513  08FB                     __end_of_writeOnLCD:	
  5514                           
  5515                           	psect	text22
  5516  0B6E                     __ptext22:	
  5517 ;; *************** function _writeWord *****************
  5518 ;; Defined at:
  5519 ;;		line 94 in file "termometroDiferencial.c"
  5520 ;; Parameters:    Size  Location     Type
  5521 ;;  word            2   42[BANK0 ] PTR unsigned char 
  5522 ;;		 -> RAM(512), showDifferenceTemp@tempDifference(5), STR_4(20), STR_3(20), 
  5523 ;; Auto vars:     Size  Location     Type
  5524 ;;  i               2   44[BANK0 ] unsigned int 
  5525 ;; Return value:  Size  Location     Type
  5526 ;;                  1    wreg      void 
  5527 ;; Registers used:
  5528 ;;		wreg, fsr0l, fsr0h, status,2, status,0, btemp+1, pclath, cstack
  5529 ;; Tracked objects:
  5530 ;;		On entry : 0/0
  5531 ;;		On exit  : 0/0
  5532 ;;		Unchanged: 0/0
  5533 ;; Data sizes:     COMMON   BANK0   BANK1
  5534 ;;      Params:         0       2       0
  5535 ;;      Locals:         0       2       0
  5536 ;;      Temps:          0       0       0
  5537 ;;      Totals:         0       4       0
  5538 ;;Total ram usage:        4 bytes
  5539 ;; Hardware stack levels used:    1
  5540 ;; Hardware stack levels required when called:    9
  5541 ;; This function calls:
  5542 ;;		_putCharacter
  5543 ;;		_strlen
  5544 ;; This function is called by:
  5545 ;;		_writeOnLCD
  5546 ;; This function uses a non-reentrant model
  5547 ;;
  5548                           
  5549                           
  5550                           ;psect for function _writeWord
  5551  0B6E                     _writeWord:	
  5552  0B6E                     l1846:	
  5553                           ;incstack = 0
  5554 ;; hardware stack exceeded
  5555                           ; Regs used in _writeWord: [wreg-fsr0h+status,2+status,0+btemp+1+pclath+cstack]
  5556                           
  5557                           
  5558                           ;termometroDiferencial.c: 95:     for (unsigned int i = 0; i < strlen(word); i++) {
  5559  0B6E  1283               	bcf	3,5	;RP0=0, select bank0
  5560  0B6F  1303               	bcf	3,6	;RP1=0, select bank0
  5561  0B70  01CC               	clrf	writeWord@i
  5562  0B71  01CD               	clrf	writeWord@i+1
  5563  0B72  2B8D               	goto	l1852
  5564  0B73                     l1848:	
  5565                           
  5566                           ;termometroDiferencial.c: 96:         putCharacter(word[i], i);
  5567  0B73  084D               	movf	writeWord@i+1,w
  5568  0B74  00C6               	movwf	putCharacter@position+1
  5569  0B75  084C               	movf	writeWord@i,w
  5570  0B76  00C5               	movwf	putCharacter@position
  5571  0B77  084C               	movf	writeWord@i,w
  5572  0B78  074A               	addwf	writeWord@word,w
  5573  0B79  0084               	movwf	4
  5574  0B7A  084D               	movf	writeWord@i+1,w
  5575  0B7B  1803               	skipnc
  5576  0B7C  0A4D               	incf	writeWord@i+1,w
  5577  0B7D  074B               	addwf	writeWord@word+1,w
  5578  0B7E  00FF               	movwf	btemp+1
  5579  0B7F  158A  2000  158A   	fcall	stringtab
  5580  0B82  158A  2247  158A   	fcall	_putCharacter
  5581  0B85                     l1850:	
  5582                           
  5583                           ;termometroDiferencial.c: 97:     }
  5584  0B85  3001               	movlw	1
  5585  0B86  1283               	bcf	3,5	;RP0=0, select bank0
  5586  0B87  1303               	bcf	3,6	;RP1=0, select bank0
  5587  0B88  07CC               	addwf	writeWord@i,f
  5588  0B89  1803               	skipnc
  5589  0B8A  0ACD               	incf	writeWord@i+1,f
  5590  0B8B  3000               	movlw	0
  5591  0B8C  07CD               	addwf	writeWord@i+1,f
  5592  0B8D                     l1852:	
  5593  0B8D  084A               	movf	writeWord@word,w
  5594  0B8E  00BA               	movwf	strlen@s
  5595  0B8F  084B               	movf	writeWord@word+1,w
  5596  0B90  00BB               	movwf	strlen@s+1
  5597  0B91  158A  2200  158A   	fcall	_strlen
  5598  0B94  1283               	bcf	3,5	;RP0=0, select bank0
  5599  0B95  1303               	bcf	3,6	;RP1=0, select bank0
  5600  0B96  083B               	movf	?_strlen+1,w
  5601  0B97  024D               	subwf	writeWord@i+1,w
  5602  0B98  1D03               	skipz
  5603  0B99  2B9C               	goto	u1565
  5604  0B9A  083A               	movf	?_strlen,w
  5605  0B9B  024C               	subwf	writeWord@i,w
  5606  0B9C                     u1565:	
  5607  0B9C  1C03               	skipc
  5608  0B9D  2B9F               	goto	u1561
  5609  0B9E  2BA0               	goto	u1560
  5610  0B9F                     u1561:	
  5611  0B9F  2B73               	goto	l1848
  5612  0BA0                     u1560:	
  5613  0BA0                     l110:	
  5614  0BA0  0008               	return
  5615  0BA1                     __end_of_writeWord:	
  5616                           
  5617                           	psect	text23
  5618  0A00                     __ptext23:	
  5619 ;; *************** function _strlen *****************
  5620 ;; Defined at:
  5621 ;;		line 4 in file "C:\Program Files (x86)\Microchip\xc8\v2.10\pic\sources\c90\common\strlen.c"
  5622 ;; Parameters:    Size  Location     Type
  5623 ;;  s               2   26[BANK0 ] PTR const unsigned char 
  5624 ;;		 -> RAM(512), showDifferenceTemp@tempDifference(5), send@msg(8), STR_4(20), 
  5625 ;;		 -> STR_3(20), 
  5626 ;; Auto vars:     Size  Location     Type
  5627 ;;  cp              2   28[BANK0 ] PTR const unsigned char 
  5628 ;;		 -> RAM(512), showDifferenceTemp@tempDifference(5), send@msg(8), STR_4(20), 
  5629 ;;		 -> STR_3(20), 
  5630 ;; Return value:  Size  Location     Type
  5631 ;;                  2   26[BANK0 ] unsigned int 
  5632 ;; Registers used:
  5633 ;;		wreg, fsr0l, fsr0h, status,2, status,0, btemp+1, pclath
  5634 ;; Tracked objects:
  5635 ;;		On entry : 0/0
  5636 ;;		On exit  : 0/0
  5637 ;;		Unchanged: 0/0
  5638 ;; Data sizes:     COMMON   BANK0   BANK1
  5639 ;;      Params:         0       2       0
  5640 ;;      Locals:         0       2       0
  5641 ;;      Temps:          0       0       0
  5642 ;;      Totals:         0       4       0
  5643 ;;Total ram usage:        4 bytes
  5644 ;; Hardware stack levels used:    1
  5645 ;; Hardware stack levels required when called:    6
  5646 ;; This function calls:
  5647 ;;		Nothing
  5648 ;; This function is called by:
  5649 ;;		_writeWord
  5650 ;;		_turnOnSerialAlarm
  5651 ;; This function uses a non-reentrant model
  5652 ;;
  5653                           
  5654                           
  5655                           ;psect for function _strlen
  5656  0A00                     _strlen:	
  5657  0A00                     l1746:	
  5658                           ;incstack = 0
  5659 ;; hardware stack exceeded
  5660                           ; Regs used in _strlen: [wreg-fsr0h+status,2+status,0+btemp+1+pclath]
  5661                           
  5662  0A00  1283               	bcf	3,5	;RP0=0, select bank0
  5663  0A01  1303               	bcf	3,6	;RP1=0, select bank0
  5664  0A02  083A               	movf	strlen@s,w
  5665  0A03  00BC               	movwf	strlen@cp
  5666  0A04  083B               	movf	strlen@s+1,w
  5667  0A05  00BD               	movwf	strlen@cp+1
  5668  0A06  2A0D               	goto	l1750
  5669  0A07                     l1748:	
  5670  0A07  3001               	movlw	1
  5671  0A08  07BC               	addwf	strlen@cp,f
  5672  0A09  1803               	skipnc
  5673  0A0A  0ABD               	incf	strlen@cp+1,f
  5674  0A0B  3000               	movlw	0
  5675  0A0C  07BD               	addwf	strlen@cp+1,f
  5676  0A0D                     l1750:	
  5677  0A0D  083D               	movf	strlen@cp+1,w
  5678  0A0E  00FF               	movwf	btemp+1
  5679  0A0F  083C               	movf	strlen@cp,w
  5680  0A10  0084               	movwf	4
  5681  0A11  158A  2000  158A   	fcall	stringtab
  5682  0A14  3A00               	xorlw	0
  5683  0A15  1D03               	skipz
  5684  0A16  2A18               	goto	u1351
  5685  0A17  2A19               	goto	u1350
  5686  0A18                     u1351:	
  5687  0A18  2A07               	goto	l1748
  5688  0A19                     u1350:	
  5689  0A19                     l1752:	
  5690  0A19  083A               	movf	strlen@s,w
  5691  0A1A  023C               	subwf	strlen@cp,w
  5692  0A1B  00BA               	movwf	?_strlen
  5693  0A1C  083B               	movf	strlen@s+1,w
  5694  0A1D  1C03               	skipc
  5695  0A1E  0A3B               	incf	strlen@s+1,w
  5696  0A1F  023D               	subwf	strlen@cp+1,w
  5697  0A20  00BB               	movwf	?_strlen+1
  5698  0A21                     l824:	
  5699  0A21  0008               	return
  5700  0A22                     __end_of_strlen:	
  5701                           
  5702                           	psect	text24
  5703  0A47                     __ptext24:	
  5704 ;; *************** function _putCharacter *****************
  5705 ;; Defined at:
  5706 ;;		line 81 in file "termometroDiferencial.c"
  5707 ;; Parameters:    Size  Location     Type
  5708 ;;  character       1    wreg     unsigned char 
  5709 ;;  position        2   37[BANK0 ] int 
  5710 ;; Auto vars:     Size  Location     Type
  5711 ;;  character       1   41[BANK0 ] unsigned char 
  5712 ;; Return value:  Size  Location     Type
  5713 ;;                  1    wreg      void 
  5714 ;; Registers used:
  5715 ;;		wreg, status,2, status,0, pclath, cstack
  5716 ;; Tracked objects:
  5717 ;;		On entry : 0/0
  5718 ;;		On exit  : 0/0
  5719 ;;		Unchanged: 0/0
  5720 ;; Data sizes:     COMMON   BANK0   BANK1
  5721 ;;      Params:         0       2       0
  5722 ;;      Locals:         0       1       0
  5723 ;;      Temps:          0       2       0
  5724 ;;      Totals:         0       5       0
  5725 ;;Total ram usage:        5 bytes
  5726 ;; Hardware stack levels used:    1
  5727 ;; Hardware stack levels required when called:    8
  5728 ;; This function calls:
  5729 ;;		_sendNibble
  5730 ;;		_turnOnLCD
  5731 ;; This function is called by:
  5732 ;;		_writeWord
  5733 ;; This function uses a non-reentrant model
  5734 ;;
  5735                           
  5736                           
  5737                           ;psect for function _putCharacter
  5738  0A47                     _putCharacter:	
  5739                           
  5740                           ;incstack = 0
  5741 ;; hardware stack exceeded
  5742                           ; Regs used in _putCharacter: [wreg+status,2+status,0+pclath+cstack]
  5743                           ;putCharacter@character stored from wreg
  5744  0A47  1283               	bcf	3,5	;RP0=0, select bank0
  5745  0A48  1303               	bcf	3,6	;RP1=0, select bank0
  5746  0A49  00C9               	movwf	putCharacter@character
  5747  0A4A                     l1744:	
  5748                           
  5749                           ;termometroDiferencial.c: 83:     sendNibble(128 + position, 0);
  5750  0A4A  0845               	movf	putCharacter@position,w
  5751  0A4B  3E80               	addlw	128
  5752  0A4C  00BB               	movwf	sendNibble@n
  5753  0A4D  0846               	movf	putCharacter@position+1,w
  5754  0A4E  1803               	skipnc
  5755  0A4F  3E01               	addlw	1
  5756  0A50  3E00               	addlw	0
  5757  0A51  00BC               	movwf	sendNibble@n+1
  5758  0A52  3000               	movlw	0
  5759  0A53  00BD               	movwf	sendNibble@rs
  5760  0A54  00BE               	movwf	sendNibble@rs+1
  5761  0A55  158A  244F  158A   	fcall	_sendNibble
  5762                           
  5763                           ;termometroDiferencial.c: 85:     sendNibble(character, 1);
  5764  0A58  1283               	bcf	3,5	;RP0=0, select bank0
  5765  0A59  1303               	bcf	3,6	;RP1=0, select bank0
  5766  0A5A  0849               	movf	putCharacter@character,w
  5767  0A5B  00C7               	movwf	??_putCharacter
  5768  0A5C  01C8               	clrf	??_putCharacter+1
  5769  0A5D  0847               	movf	??_putCharacter,w
  5770  0A5E  00BB               	movwf	sendNibble@n
  5771  0A5F  0848               	movf	??_putCharacter+1,w
  5772  0A60  00BC               	movwf	sendNibble@n+1
  5773  0A61  3001               	movlw	1
  5774  0A62  00BD               	movwf	sendNibble@rs
  5775  0A63  3000               	movlw	0
  5776  0A64  00BE               	movwf	sendNibble@rs+1
  5777  0A65  158A  244F  158A   	fcall	_sendNibble
  5778                           
  5779                           ;termometroDiferencial.c: 87:     turnOnLCD();
  5780  0A68  158A  2156  158A   	fcall	_turnOnLCD
  5781  0A6B                     l104:	
  5782  0A6B  0008               	return
  5783  0A6C                     __end_of_putCharacter:	
  5784                           
  5785                           	psect	text25
  5786  0956                     __ptext25:	
  5787 ;; *************** function _turnOnLCD *****************
  5788 ;; Defined at:
  5789 ;;		line 64 in file "termometroDiferencial.c"
  5790 ;; Parameters:    Size  Location     Type
  5791 ;;		None
  5792 ;; Auto vars:     Size  Location     Type
  5793 ;;  turnOn          2    0        int 
  5794 ;;  d2              2    0        int 
  5795 ;;  d1              2   27[BANK0 ] int 
  5796 ;; Return value:  Size  Location     Type
  5797 ;;                  1    wreg      void 
  5798 ;; Registers used:
  5799 ;;		wreg, status,2, status,0, pclath, cstack
  5800 ;; Tracked objects:
  5801 ;;		On entry : 0/0
  5802 ;;		On exit  : 0/0
  5803 ;;		Unchanged: 0/0
  5804 ;; Data sizes:     COMMON   BANK0   BANK1
  5805 ;;      Params:         0       0       0
  5806 ;;      Locals:         0       6       0
  5807 ;;      Temps:          0       0       0
  5808 ;;      Totals:         0       6       0
  5809 ;;Total ram usage:        6 bytes
  5810 ;; Hardware stack levels used:    1
  5811 ;; Hardware stack levels required when called:    7
  5812 ;; This function calls:
  5813 ;;		_flank
  5814 ;; This function is called by:
  5815 ;;		_putCharacter
  5816 ;; This function uses a non-reentrant model
  5817 ;;
  5818                           
  5819                           
  5820                           ;psect for function _turnOnLCD
  5821  0956                     _turnOnLCD:	
  5822  0956                     l1724:	
  5823                           ;incstack = 0
  5824 ;; hardware stack exceeded
  5825                           ; Regs used in _turnOnLCD: [wreg+status,2+status,0+pclath+cstack]
  5826                           
  5827                           
  5828                           ;termometroDiferencial.c: 66:     int d1 = turnOn >> 2;
  5829  0956  3003               	movlw	3
  5830  0957  1283               	bcf	3,5	;RP0=0, select bank0
  5831  0958  1303               	bcf	3,6	;RP1=0, select bank0
  5832  0959  00BB               	movwf	turnOnLCD@d1
  5833  095A  3000               	movlw	0
  5834  095B  00BC               	movwf	turnOnLCD@d1+1
  5835                           
  5836                           ;termometroDiferencial.c: 67:     PORTC = d1;
  5837  095C  3003               	movlw	3
  5838  095D  0087               	movwf	7	;volatile
  5839  095E                     l1726:	
  5840                           
  5841                           ;termometroDiferencial.c: 68:     RC0 = 0;
  5842  095E  1007               	bcf	7,0	;volatile
  5843  095F                     l1728:	
  5844                           
  5845                           ;termometroDiferencial.c: 69:     flank();
  5846  095F  158A  20DB  158A   	fcall	_flank
  5847  0962                     l1730:	
  5848  0962                     l1732:	
  5849                           
  5850                           ;termometroDiferencial.c: 71:     PORTC = d2;
  5851  0962  3038               	movlw	56
  5852  0963  1283               	bcf	3,5	;RP0=0, select bank0
  5853  0964  1303               	bcf	3,6	;RP1=0, select bank0
  5854  0965  0087               	movwf	7	;volatile
  5855  0966                     l1734:	
  5856                           
  5857                           ;termometroDiferencial.c: 72:     RC0 = 0;
  5858  0966  1007               	bcf	7,0	;volatile
  5859  0967                     l1736:	
  5860                           
  5861                           ;termometroDiferencial.c: 73:     flank();
  5862  0967  158A  20DB  158A   	fcall	_flank
  5863  096A                     l101:	
  5864  096A  0008               	return
  5865  096B                     __end_of_turnOnLCD:	
  5866                           
  5867                           	psect	text26
  5868  07F5                     __ptext26:	
  5869 ;; *************** function _ZeroSequenceKeyboard *****************
  5870 ;; Defined at:
  5871 ;;		line 196 in file "termometroDiferencial.c"
  5872 ;; Parameters:    Size  Location     Type
  5873 ;;		None
  5874 ;; Auto vars:     Size  Location     Type
  5875 ;;		None
  5876 ;; Return value:  Size  Location     Type
  5877 ;;                  1    wreg      void 
  5878 ;; Registers used:
  5879 ;;		wreg
  5880 ;; Tracked objects:
  5881 ;;		On entry : 0/0
  5882 ;;		On exit  : 0/0
  5883 ;;		Unchanged: 0/0
  5884 ;; Data sizes:     COMMON   BANK0   BANK1
  5885 ;;      Params:         0       0       0
  5886 ;;      Locals:         0       0       0
  5887 ;;      Temps:          0       0       0
  5888 ;;      Totals:         0       0       0
  5889 ;;Total ram usage:        0 bytes
  5890 ;; Hardware stack levels used:    1
  5891 ;; Hardware stack levels required when called:    6
  5892 ;; This function calls:
  5893 ;;		Nothing
  5894 ;; This function is called by:
  5895 ;;		_configTempMode
  5896 ;;		_showDifferenceTemp
  5897 ;;		_showTemp
  5898 ;; This function uses a non-reentrant model
  5899 ;;
  5900                           
  5901                           
  5902                           ;psect for function _ZeroSequenceKeyboard
  5903  07F5                     _ZeroSequenceKeyboard:	
  5904  07F5                     l2208:	
  5905                           ;incstack = 0
  5906                           ; Regs used in _ZeroSequenceKeyboard: [wreg]
  5907                           
  5908                           
  5909                           ;termometroDiferencial.c: 197:     PORTB = 254;
  5910  07F5  30FE               	movlw	254
  5911  07F6  1283               	bcf	3,5	;RP0=0, select bank0
  5912  07F7  1303               	bcf	3,6	;RP1=0, select bank0
  5913  07F8  0086               	movwf	6	;volatile
  5914                           
  5915                           ;termometroDiferencial.c: 198:     PORTB = 253;
  5916  07F9  30FD               	movlw	253
  5917  07FA  0086               	movwf	6	;volatile
  5918                           
  5919                           ;termometroDiferencial.c: 199:     PORTB = 251;
  5920  07FB  30FB               	movlw	251
  5921  07FC  0086               	movwf	6	;volatile
  5922                           
  5923                           ;termometroDiferencial.c: 200:     PORTB = 247;
  5924  07FD  30F7               	movlw	247
  5925  07FE  0086               	movwf	6	;volatile
  5926  07FF                     l140:	
  5927  07FF  0008               	return
  5928  0800                     __end_of_ZeroSequenceKeyboard:	
  5929                           
  5930                           	psect	text27
  5931  090B                     __ptext27:	
  5932 ;; *************** function _configSerialPort *****************
  5933 ;; Defined at:
  5934 ;;		line 141 in file "termometroDiferencial.c"
  5935 ;; Parameters:    Size  Location     Type
  5936 ;;		None
  5937 ;; Auto vars:     Size  Location     Type
  5938 ;;		None
  5939 ;; Return value:  Size  Location     Type
  5940 ;;                  1    wreg      void 
  5941 ;; Registers used:
  5942 ;;		wreg, status,2
  5943 ;; Tracked objects:
  5944 ;;		On entry : 0/0
  5945 ;;		On exit  : 0/0
  5946 ;;		Unchanged: 0/0
  5947 ;; Data sizes:     COMMON   BANK0   BANK1
  5948 ;;      Params:         0       0       0
  5949 ;;      Locals:         0       0       0
  5950 ;;      Temps:          0       0       0
  5951 ;;      Totals:         0       0       0
  5952 ;;Total ram usage:        0 bytes
  5953 ;; Hardware stack levels used:    1
  5954 ;; Hardware stack levels required when called:    6
  5955 ;; This function calls:
  5956 ;;		Nothing
  5957 ;; This function is called by:
  5958 ;;		_main
  5959 ;; This function uses a non-reentrant model
  5960 ;;
  5961                           
  5962                           
  5963                           ;psect for function _configSerialPort
  5964  090B                     _configSerialPort:	
  5965  090B                     l2300:	
  5966                           ;incstack = 0
  5967                           ; Regs used in _configSerialPort: [wreg+status,2]
  5968                           
  5969                           
  5970                           ;termometroDiferencial.c: 142:     TRISC = 0;
  5971  090B  1683               	bsf	3,5	;RP0=1, select bank1
  5972  090C  1303               	bcf	3,6	;RP1=0, select bank1
  5973  090D  0187               	clrf	7	;volatile
  5974  090E                     l2302:	
  5975                           
  5976                           ;termometroDiferencial.c: 143:     SPEN = 1;
  5977  090E  1283               	bcf	3,5	;RP0=0, select bank0
  5978  090F  1303               	bcf	3,6	;RP1=0, select bank0
  5979  0910  1798               	bsf	24,7	;volatile
  5980  0911                     l2304:	
  5981                           
  5982                           ;termometroDiferencial.c: 144:     CREN = 0;
  5983  0911  1218               	bcf	24,4	;volatile
  5984  0912                     l2306:	
  5985                           
  5986                           ;termometroDiferencial.c: 145:     TXEN = 1;
  5987  0912  1683               	bsf	3,5	;RP0=1, select bank1
  5988  0913  1303               	bcf	3,6	;RP1=0, select bank1
  5989  0914  1698               	bsf	24,5	;volatile
  5990  0915                     l2308:	
  5991                           
  5992                           ;termometroDiferencial.c: 146:     SYNC = 0;
  5993  0915  1218               	bcf	24,4	;volatile
  5994  0916                     l2310:	
  5995                           
  5996                           ;termometroDiferencial.c: 147:     BRGH = 1;
  5997  0916  1518               	bsf	24,2	;volatile
  5998  0917                     l2312:	
  5999                           
  6000                           ;termometroDiferencial.c: 149:     TXIE = 1;
  6001  0917  160C               	bsf	12,4	;volatile
  6002  0918                     l2314:	
  6003                           
  6004                           ;termometroDiferencial.c: 150:     RCIE = 0;
  6005  0918  128C               	bcf	12,5	;volatile
  6006  0919                     l2316:	
  6007                           
  6008                           ;termometroDiferencial.c: 152:     SPBRG = 25.04166667;
  6009  0919  3019               	movlw	25
  6010  091A  0099               	movwf	25	;volatile
  6011  091B                     l125:	
  6012  091B  0008               	return
  6013  091C                     __end_of_configSerialPort:	
  6014                           
  6015                           	psect	text28
  6016  0871                     __ptext28:	
  6017 ;; *************** function _configKeyboard *****************
  6018 ;; Defined at:
  6019 ;;		line 130 in file "termometroDiferencial.c"
  6020 ;; Parameters:    Size  Location     Type
  6021 ;;		None
  6022 ;; Auto vars:     Size  Location     Type
  6023 ;;		None
  6024 ;; Return value:  Size  Location     Type
  6025 ;;                  1    wreg      void 
  6026 ;; Registers used:
  6027 ;;		wreg
  6028 ;; Tracked objects:
  6029 ;;		On entry : 0/0
  6030 ;;		On exit  : 0/0
  6031 ;;		Unchanged: 0/0
  6032 ;; Data sizes:     COMMON   BANK0   BANK1
  6033 ;;      Params:         0       0       0
  6034 ;;      Locals:         0       0       0
  6035 ;;      Temps:          0       0       0
  6036 ;;      Totals:         0       0       0
  6037 ;;Total ram usage:        0 bytes
  6038 ;; Hardware stack levels used:    1
  6039 ;; Hardware stack levels required when called:    6
  6040 ;; This function calls:
  6041 ;;		Nothing
  6042 ;; This function is called by:
  6043 ;;		_main
  6044 ;; This function uses a non-reentrant model
  6045 ;;
  6046                           
  6047                           
  6048                           ;psect for function _configKeyboard
  6049  0871                     _configKeyboard:	
  6050  0871                     l2292:	
  6051                           ;incstack = 0
  6052                           ; Regs used in _configKeyboard: [wreg]
  6053                           
  6054                           
  6055                           ;termometroDiferencial.c: 131:     OPTION_REG = 7;
  6056  0871  3007               	movlw	7
  6057  0872  1683               	bsf	3,5	;RP0=1, select bank1
  6058  0873  1303               	bcf	3,6	;RP1=0, select bank1
  6059  0874  0081               	movwf	1	;volatile
  6060                           
  6061                           ;termometroDiferencial.c: 132:     TRISB = 240;
  6062  0875  30F0               	movlw	240
  6063  0876  0086               	movwf	6	;volatile
  6064  0877                     l2294:	
  6065                           
  6066                           ;termometroDiferencial.c: 133:     RBIE = 1;
  6067  0877  158B               	bsf	11,3	;volatile
  6068  0878                     l2296:	
  6069                           
  6070                           ;termometroDiferencial.c: 134:     GIE = 1;
  6071  0878  178B               	bsf	11,7	;volatile
  6072  0879                     l2298:	
  6073                           
  6074                           ;termometroDiferencial.c: 135:     RBIF = 1;
  6075  0879  140B               	bsf	11,0	;volatile
  6076  087A                     l122:	
  6077  087A  0008               	return
  6078  087B                     __end_of_configKeyboard:	
  6079                           
  6080                           	psect	text29
  6081  08A1                     __ptext29:	
  6082 ;; *************** function _clearLCD *****************
  6083 ;; Defined at:
  6084 ;;		line 111 in file "termometroDiferencial.c"
  6085 ;; Parameters:    Size  Location     Type
  6086 ;;		None
  6087 ;; Auto vars:     Size  Location     Type
  6088 ;;		None
  6089 ;; Return value:  Size  Location     Type
  6090 ;;                  1    wreg      void 
  6091 ;; Registers used:
  6092 ;;		wreg, status,2, status,0, pclath, cstack
  6093 ;; Tracked objects:
  6094 ;;		On entry : 0/0
  6095 ;;		On exit  : 0/0
  6096 ;;		Unchanged: 0/0
  6097 ;; Data sizes:     COMMON   BANK0   BANK1
  6098 ;;      Params:         0       0       0
  6099 ;;      Locals:         0       0       0
  6100 ;;      Temps:          0       0       0
  6101 ;;      Totals:         0       0       0
  6102 ;;Total ram usage:        0 bytes
  6103 ;; Hardware stack levels used:    1
  6104 ;; Hardware stack levels required when called:    8
  6105 ;; This function calls:
  6106 ;;		_sendNibble
  6107 ;; This function is called by:
  6108 ;;		_main
  6109 ;; This function uses a non-reentrant model
  6110 ;;
  6111                           
  6112                           
  6113                           ;psect for function _clearLCD
  6114  08A1                     _clearLCD:	
  6115  08A1                     l2284:	
  6116                           ;incstack = 0
  6117 ;; hardware stack exceeded
  6118                           ; Regs used in _clearLCD: [wreg+status,2+status,0+pclath+cstack]
  6119                           
  6120                           
  6121                           ;termometroDiferencial.c: 112:     sendNibble(1, 0);
  6122  08A1  3001               	movlw	1
  6123  08A2  1283               	bcf	3,5	;RP0=0, select bank0
  6124  08A3  1303               	bcf	3,6	;RP1=0, select bank0
  6125  08A4  00BB               	movwf	sendNibble@n
  6126  08A5  3000               	movlw	0
  6127  08A6  00BC               	movwf	sendNibble@n+1
  6128  08A7  3000               	movlw	0
  6129  08A8  00BD               	movwf	sendNibble@rs
  6130  08A9  00BE               	movwf	sendNibble@rs+1
  6131  08AA  158A  244F  158A   	fcall	_sendNibble
  6132  08AD                     l116:	
  6133  08AD  0008               	return
  6134  08AE                     __end_of_clearLCD:	
  6135                           
  6136                           	psect	text30
  6137  0C4F                     __ptext30:	
  6138 ;; *************** function _sendNibble *****************
  6139 ;; Defined at:
  6140 ;;		line 47 in file "termometroDiferencial.c"
  6141 ;; Parameters:    Size  Location     Type
  6142 ;;  n               2   27[BANK0 ] int 
  6143 ;;  rs              2   29[BANK0 ] int 
  6144 ;; Auto vars:     Size  Location     Type
  6145 ;;  d2              2   35[BANK0 ] int 
  6146 ;;  d1              2   33[BANK0 ] int 
  6147 ;; Return value:  Size  Location     Type
  6148 ;;                  1    wreg      void 
  6149 ;; Registers used:
  6150 ;;		wreg, status,2, status,0, pclath, cstack
  6151 ;; Tracked objects:
  6152 ;;		On entry : 0/0
  6153 ;;		On exit  : 0/0
  6154 ;;		Unchanged: 0/0
  6155 ;; Data sizes:     COMMON   BANK0   BANK1
  6156 ;;      Params:         0       4       0
  6157 ;;      Locals:         0       4       0
  6158 ;;      Temps:          0       2       0
  6159 ;;      Totals:         0      10       0
  6160 ;;Total ram usage:       10 bytes
  6161 ;; Hardware stack levels used:    1
  6162 ;; Hardware stack levels required when called:    7
  6163 ;; This function calls:
  6164 ;;		_flank
  6165 ;; This function is called by:
  6166 ;;		_putCharacter
  6167 ;;		_clearLCD
  6168 ;;		_configThermo
  6169 ;; This function uses a non-reentrant model
  6170 ;;
  6171                           
  6172                           
  6173                           ;psect for function _sendNibble
  6174  0C4F                     _sendNibble:	
  6175  0C4F                     l1710:	
  6176                           ;incstack = 0
  6177 ;; hardware stack exceeded
  6178                           ; Regs used in _sendNibble: [wreg+status,2+status,0+pclath+cstack]
  6179                           
  6180                           
  6181                           ;termometroDiferencial.c: 50:     int d1 = n >> 2;
  6182  0C4F  1283               	bcf	3,5	;RP0=0, select bank0
  6183  0C50  1303               	bcf	3,6	;RP1=0, select bank0
  6184  0C51  083C               	movf	sendNibble@n+1,w
  6185  0C52  00C0               	movwf	??_sendNibble+1
  6186  0C53  083B               	movf	sendNibble@n,w
  6187  0C54  00BF               	movwf	??_sendNibble
  6188  0C55  0D40               	rlf	??_sendNibble+1,w
  6189  0C56  0CC0               	rrf	??_sendNibble+1,f
  6190  0C57  0CBF               	rrf	??_sendNibble,f
  6191  0C58  0D40               	rlf	??_sendNibble+1,w
  6192  0C59  0CC0               	rrf	??_sendNibble+1,f
  6193  0C5A  0CBF               	rrf	??_sendNibble,f
  6194  0C5B  083F               	movf	??_sendNibble,w
  6195  0C5C  00C1               	movwf	sendNibble@d1
  6196  0C5D  0840               	movf	??_sendNibble+1,w
  6197  0C5E  00C2               	movwf	sendNibble@d1+1
  6198                           
  6199                           ;termometroDiferencial.c: 51:     PORTC = d1;
  6200  0C5F  0841               	movf	sendNibble@d1,w
  6201  0C60  0087               	movwf	7	;volatile
  6202  0C61                     l1712:	
  6203                           
  6204                           ;termometroDiferencial.c: 52:     RC0 = rs;
  6205  0C61  183D               	btfsc	sendNibble@rs,0
  6206  0C62  2C64               	goto	u1311
  6207  0C63  2C68               	goto	u1310
  6208  0C64                     u1311:	
  6209  0C64  1283               	bcf	3,5	;RP0=0, select bank0
  6210  0C65  1303               	bcf	3,6	;RP1=0, select bank0
  6211  0C66  1407               	bsf	7,0	;volatile
  6212  0C67  2C6B               	goto	u1324
  6213  0C68                     u1310:	
  6214  0C68  1283               	bcf	3,5	;RP0=0, select bank0
  6215  0C69  1303               	bcf	3,6	;RP1=0, select bank0
  6216  0C6A  1007               	bcf	7,0	;volatile
  6217  0C6B                     u1324:	
  6218  0C6B                     l1714:	
  6219                           
  6220                           ;termometroDiferencial.c: 53:     flank();
  6221  0C6B  158A  20DB  158A   	fcall	_flank
  6222  0C6E                     l1716:	
  6223                           
  6224                           ;termometroDiferencial.c: 55:     int d2 = n << 2;
  6225  0C6E  1283               	bcf	3,5	;RP0=0, select bank0
  6226  0C6F  1303               	bcf	3,6	;RP1=0, select bank0
  6227  0C70  083C               	movf	sendNibble@n+1,w
  6228  0C71  00C0               	movwf	??_sendNibble+1
  6229  0C72  083B               	movf	sendNibble@n,w
  6230  0C73  00BF               	movwf	??_sendNibble
  6231  0C74  1003               	clrc
  6232  0C75  0DBF               	rlf	??_sendNibble,f
  6233  0C76  0DC0               	rlf	??_sendNibble+1,f
  6234  0C77  1003               	clrc
  6235  0C78  0DBF               	rlf	??_sendNibble,f
  6236  0C79  0DC0               	rlf	??_sendNibble+1,f
  6237  0C7A  083F               	movf	??_sendNibble,w
  6238  0C7B  00C3               	movwf	sendNibble@d2
  6239  0C7C  0840               	movf	??_sendNibble+1,w
  6240  0C7D  00C4               	movwf	sendNibble@d2+1
  6241  0C7E                     l1718:	
  6242                           
  6243                           ;termometroDiferencial.c: 56:     PORTC = d2;
  6244  0C7E  0843               	movf	sendNibble@d2,w
  6245  0C7F  0087               	movwf	7	;volatile
  6246  0C80                     l1720:	
  6247                           
  6248                           ;termometroDiferencial.c: 57:     RC0 = rs;
  6249  0C80  183D               	btfsc	sendNibble@rs,0
  6250  0C81  2C83               	goto	u1331
  6251  0C82  2C87               	goto	u1330
  6252  0C83                     u1331:	
  6253  0C83  1283               	bcf	3,5	;RP0=0, select bank0
  6254  0C84  1303               	bcf	3,6	;RP1=0, select bank0
  6255  0C85  1407               	bsf	7,0	;volatile
  6256  0C86  2C8A               	goto	u1344
  6257  0C87                     u1330:	
  6258  0C87  1283               	bcf	3,5	;RP0=0, select bank0
  6259  0C88  1303               	bcf	3,6	;RP1=0, select bank0
  6260  0C89  1007               	bcf	7,0	;volatile
  6261  0C8A                     u1344:	
  6262  0C8A                     l1722:	
  6263                           
  6264                           ;termometroDiferencial.c: 58:     flank();
  6265  0C8A  158A  20DB  158A   	fcall	_flank
  6266  0C8D                     l98:	
  6267  0C8D  0008               	return
  6268  0C8E                     __end_of_sendNibble:	
  6269                           
  6270                           	psect	text31
  6271  08DB                     __ptext31:	
  6272 ;; *************** function _flank *****************
  6273 ;; Defined at:
  6274 ;;		line 36 in file "termometroDiferencial.c"
  6275 ;; Parameters:    Size  Location     Type
  6276 ;;		None
  6277 ;; Auto vars:     Size  Location     Type
  6278 ;;		None
  6279 ;; Return value:  Size  Location     Type
  6280 ;;                  1    wreg      void 
  6281 ;; Registers used:
  6282 ;;		wreg
  6283 ;; Tracked objects:
  6284 ;;		On entry : 0/0
  6285 ;;		On exit  : 0/0
  6286 ;;		Unchanged: 0/0
  6287 ;; Data sizes:     COMMON   BANK0   BANK1
  6288 ;;      Params:         0       0       0
  6289 ;;      Locals:         0       0       0
  6290 ;;      Temps:          0       1       0
  6291 ;;      Totals:         0       1       0
  6292 ;;Total ram usage:        1 bytes
  6293 ;; Hardware stack levels used:    1
  6294 ;; Hardware stack levels required when called:    6
  6295 ;; This function calls:
  6296 ;;		Nothing
  6297 ;; This function is called by:
  6298 ;;		_sendNibble
  6299 ;;		_turnOnLCD
  6300 ;; This function uses a non-reentrant model
  6301 ;;
  6302                           
  6303                           
  6304                           ;psect for function _flank
  6305  08DB                     _flank:	
  6306  08DB                     l1704:	
  6307                           ;incstack = 0
  6308 ;; hardware stack exceeded
  6309                           ; Regs used in _flank: [wreg]
  6310                           
  6311                           
  6312                           ;termometroDiferencial.c: 37:     RC1 = 1;
  6313  08DB  1283               	bcf	3,5	;RP0=0, select bank0
  6314  08DC  1303               	bcf	3,6	;RP1=0, select bank0
  6315  08DD  1487               	bsf	7,1	;volatile
  6316  08DE                     l1706:	
  6317                           
  6318                           ;termometroDiferencial.c: 38:     _delay((unsigned long)((1)*(4000000/4000.0)));
  6319  08DE  30C7               	movlw	199
  6320  08DF  1283               	bcf	3,5	;RP0=0, select bank0
  6321  08E0  1303               	bcf	3,6	;RP1=0, select bank0
  6322  08E1  00BA               	movwf	??_flank
  6323  08E2                     u3427:	
  6324  08E2  28E3               	nop2
  6325  08E3  0BBA               	decfsz	??_flank,f
  6326  08E4  28E2               	goto	u3427
  6327  08E5  28E6               	nop2
  6328  08E6  0000               	nop
  6329  08E7                     l1708:	
  6330                           
  6331                           ;termometroDiferencial.c: 39:     RC1 = 0;
  6332  08E7  1283               	bcf	3,5	;RP0=0, select bank0
  6333  08E8  1303               	bcf	3,6	;RP1=0, select bank0
  6334  08E9  1087               	bcf	7,1	;volatile
  6335  08EA                     l95:	
  6336  08EA  0008               	return
  6337  08EB                     __end_of_flank:	
  6338                           
  6339                           	psect	text32
  6340  09DE                     __ptext32:	
  6341 ;; *************** function _globalInterruption *****************
  6342 ;; Defined at:
  6343 ;;		line 316 in file "termometroDiferencial.c"
  6344 ;; Parameters:    Size  Location     Type
  6345 ;;		None
  6346 ;; Auto vars:     Size  Location     Type
  6347 ;;		None
  6348 ;; Return value:  Size  Location     Type
  6349 ;;                  1    wreg      void 
  6350 ;; Registers used:
  6351 ;;		wreg, fsr0l, fsr0h, status,2, status,0, pclath, cstack
  6352 ;; Tracked objects:
  6353 ;;		On entry : 0/0
  6354 ;;		On exit  : 0/0
  6355 ;;		Unchanged: 0/0
  6356 ;; Data sizes:     COMMON   BANK0   BANK1
  6357 ;;      Params:         0       0       0
  6358 ;;      Locals:         0       0       0
  6359 ;;      Temps:          0       6       0
  6360 ;;      Totals:         0       6       0
  6361 ;;Total ram usage:        6 bytes
  6362 ;; Hardware stack levels used:    1
  6363 ;; Hardware stack levels required when called:    5
  6364 ;; This function calls:
  6365 ;;		_keyboard
  6366 ;; This function is called by:
  6367 ;;		Interrupt level 1
  6368 ;; This function uses a non-reentrant model
  6369 ;;
  6370                           
  6371                           
  6372                           ;psect for function _globalInterruption
  6373  09DE                     _globalInterruption:	
  6374  09DE                     i1l2436:	
  6375                           
  6376                           ;termometroDiferencial.c: 318:     if (INTCONbits.RBIF) {
  6377  09DE  1C0B               	btfss	11,0	;volatile
  6378  09DF  29E1               	goto	u256_21
  6379  09E0  29E2               	goto	u256_20
  6380  09E1                     u256_21:	
  6381  09E1  29F4               	goto	i1l2444
  6382  09E2                     u256_20:	
  6383  09E2                     i1l2438:	
  6384                           
  6385                           ;termometroDiferencial.c: 320:         keyboard();
  6386  09E2  118A  26AC  158A   	fcall	_keyboard
  6387  09E5                     i1l2440:	
  6388                           
  6389                           ;termometroDiferencial.c: 321:         _delay((unsigned long)((200)*(4000000/4000.0)));
  6390  09E5  3002               	movlw	2
  6391  09E6  1283               	bcf	3,5	;RP0=0, select bank0
  6392  09E7  1303               	bcf	3,6	;RP1=0, select bank0
  6393  09E8  00B6               	movwf	??_globalInterruption+2
  6394  09E9  3004               	movlw	4
  6395  09EA  00B5               	movwf	??_globalInterruption+1
  6396  09EB  30BA               	movlw	186
  6397  09EC  00B4               	movwf	??_globalInterruption
  6398  09ED                     u343_27:	
  6399  09ED  0BB4               	decfsz	??_globalInterruption,f
  6400  09EE  29ED               	goto	u343_27
  6401  09EF  0BB5               	decfsz	??_globalInterruption+1,f
  6402  09F0  29ED               	goto	u343_27
  6403  09F1  0BB6               	decfsz	??_globalInterruption+2,f
  6404  09F2  29ED               	goto	u343_27
  6405  09F3                     i1l2442:	
  6406                           
  6407                           ;termometroDiferencial.c: 323:         INTCONbits.RBIF = 0;
  6408  09F3  100B               	bcf	11,0	;volatile
  6409  09F4                     i1l2444:	
  6410                           
  6411                           ;termometroDiferencial.c: 326:     GIE = 1;
  6412  09F4  178B               	bsf	11,7	;volatile
  6413  09F5                     i1l180:	
  6414  09F5  1283               	bcf	3,5	;RP0=0, select bank0
  6415  09F6  1303               	bcf	3,6	;RP1=0, select bank0
  6416  09F7  0839               	movf	??_globalInterruption+5,w
  6417  09F8  008A               	movwf	10
  6418  09F9  0838               	movf	??_globalInterruption+4,w
  6419  09FA  0084               	movwf	4
  6420  09FB  0E37               	swapf	(??_globalInterruption+3)^0,w
  6421  09FC  0083               	movwf	3
  6422  09FD  0EFE               	swapf	btemp,f
  6423  09FE  0E7E               	swapf	btemp,w
  6424  09FF  0009               	retfie
  6425  0A00                     __end_of_globalInterruption:	
  6426                           
  6427                           	psect	intentry
  6428  0004                     __pintentry:	
  6429                           ;incstack = 0
  6430 ;; hardware stack exceeded
  6431                           ; Regs used in _globalInterruption: [wreg-fsr0h+status,2+status,0+pclath+cstack]
  6432                           
  6433  0004                     interrupt_function:	
  6434  007E                     saved_w	set	btemp
  6435  0004  00FE               	movwf	btemp
  6436  0005  0E03               	swapf	3,w
  6437  0006  1283               	bcf	3,5	;RP0=0, select bank0
  6438  0007  1303               	bcf	3,6	;RP1=0, select bank0
  6439  0008  00B7               	movwf	??_globalInterruption+3
  6440  0009  0804               	movf	4,w
  6441  000A  00B8               	movwf	??_globalInterruption+4
  6442  000B  080A               	movf	10,w
  6443  000C  00B9               	movwf	??_globalInterruption+5
  6444  000D  158A  29DE         	ljmp	_globalInterruption
  6445                           
  6446                           	psect	text33
  6447  06AC                     __ptext33:	
  6448 ;; *************** function _keyboard *****************
  6449 ;; Defined at:
  6450 ;;		line 243 in file "termometroDiferencial.c"
  6451 ;; Parameters:    Size  Location     Type
  6452 ;;		None
  6453 ;; Auto vars:     Size  Location     Type
  6454 ;;		None
  6455 ;; Return value:  Size  Location     Type
  6456 ;;                  1    wreg      void 
  6457 ;; Registers used:
  6458 ;;		wreg, fsr0l, fsr0h, status,2, status,0, pclath, cstack
  6459 ;; Tracked objects:
  6460 ;;		On entry : 0/0
  6461 ;;		On exit  : 0/0
  6462 ;;		Unchanged: 0/0
  6463 ;; Data sizes:     COMMON   BANK0   BANK1
  6464 ;;      Params:         0       0       0
  6465 ;;      Locals:         0       0       0
  6466 ;;      Temps:          0       2       0
  6467 ;;      Totals:         0       2       0
  6468 ;;Total ram usage:        2 bytes
  6469 ;; Hardware stack levels used:    1
  6470 ;; Hardware stack levels required when called:    4
  6471 ;; This function calls:
  6472 ;;		_addCharToMaxTemp
  6473 ;;		_atoi
  6474 ;;		_clearIfFirst
  6475 ;;		_memset
  6476 ;;		i1_changeThermometerChannel
  6477 ;; This function is called by:
  6478 ;;		_globalInterruption
  6479 ;; This function uses a non-reentrant model
  6480 ;;
  6481                           
  6482                           
  6483                           ;psect for function _keyboard
  6484  06AC                     _keyboard:	
  6485  06AC                     i1l2318:	
  6486                           ;incstack = 0
  6487 ;; hardware stack exceeded
  6488                           ; Regs used in _keyboard: [wreg-fsr0h+status,2+status,0+pclath+cstack]
  6489                           
  6490                           
  6491                           ;termometroDiferencial.c: 244:     switch (PORTB) {
  6492  06AC  2F5C               	goto	i1l2386
  6493  06AD                     i1l2320:	
  6494                           
  6495                           ;termometroDiferencial.c: 246:             clearIfFirst();
  6496  06AD  158A  20CB  118A   	fcall	_clearIfFirst
  6497  06B0                     i1l2322:	
  6498                           
  6499                           ;termometroDiferencial.c: 247:             addCharToMaxTemp('7');
  6500  06B0  3037               	movlw	55
  6501  06B1  158A  22BC  118A   	fcall	_addCharToMaxTemp
  6502                           
  6503                           ;termometroDiferencial.c: 248:             break;
  6504  06B4  2F95               	goto	i1l174
  6505  06B5                     i1l2324:	
  6506                           
  6507                           ;termometroDiferencial.c: 250:             clearIfFirst();
  6508  06B5  158A  20CB  118A   	fcall	_clearIfFirst
  6509  06B8                     i1l2326:	
  6510                           
  6511                           ;termometroDiferencial.c: 251:             addCharToMaxTemp('8');
  6512  06B8  3038               	movlw	56
  6513  06B9  158A  22BC  118A   	fcall	_addCharToMaxTemp
  6514                           
  6515                           ;termometroDiferencial.c: 252:             break;
  6516  06BC  2F95               	goto	i1l174
  6517  06BD                     i1l2328:	
  6518                           
  6519                           ;termometroDiferencial.c: 254:             clearIfFirst();
  6520  06BD  158A  20CB  118A   	fcall	_clearIfFirst
  6521  06C0                     i1l2330:	
  6522                           
  6523                           ;termometroDiferencial.c: 255:             addCharToMaxTemp('9');
  6524  06C0  3039               	movlw	57
  6525  06C1  158A  22BC  118A   	fcall	_addCharToMaxTemp
  6526                           
  6527                           ;termometroDiferencial.c: 256:             break;
  6528  06C4  2F95               	goto	i1l174
  6529  06C5                     i1l2332:	
  6530                           
  6531                           ;termometroDiferencial.c: 258:             clearIfFirst();
  6532  06C5  158A  20CB  118A   	fcall	_clearIfFirst
  6533  06C8                     i1l2334:	
  6534                           
  6535                           ;termometroDiferencial.c: 259:             addCharToMaxTemp('4');
  6536  06C8  3034               	movlw	52
  6537  06C9  158A  22BC  118A   	fcall	_addCharToMaxTemp
  6538                           
  6539                           ;termometroDiferencial.c: 260:             break;
  6540  06CC  2F95               	goto	i1l174
  6541  06CD                     i1l2336:	
  6542                           
  6543                           ;termometroDiferencial.c: 262:             clearIfFirst();
  6544  06CD  158A  20CB  118A   	fcall	_clearIfFirst
  6545  06D0                     i1l2338:	
  6546                           
  6547                           ;termometroDiferencial.c: 263:             addCharToMaxTemp('5');
  6548  06D0  3035               	movlw	53
  6549  06D1  158A  22BC  118A   	fcall	_addCharToMaxTemp
  6550                           
  6551                           ;termometroDiferencial.c: 264:             break;
  6552  06D4  2F95               	goto	i1l174
  6553  06D5                     i1l2340:	
  6554                           
  6555                           ;termometroDiferencial.c: 266:             clearIfFirst();
  6556  06D5  158A  20CB  118A   	fcall	_clearIfFirst
  6557  06D8                     i1l2342:	
  6558                           
  6559                           ;termometroDiferencial.c: 267:             addCharToMaxTemp('6');
  6560  06D8  3036               	movlw	54
  6561  06D9  158A  22BC  118A   	fcall	_addCharToMaxTemp
  6562                           
  6563                           ;termometroDiferencial.c: 268:             break;
  6564  06DC  2F95               	goto	i1l174
  6565  06DD                     i1l2344:	
  6566                           
  6567                           ;termometroDiferencial.c: 270:             clearIfFirst();
  6568  06DD  158A  20CB  118A   	fcall	_clearIfFirst
  6569  06E0                     i1l2346:	
  6570                           
  6571                           ;termometroDiferencial.c: 271:             addCharToMaxTemp('1');
  6572  06E0  3031               	movlw	49
  6573  06E1  158A  22BC  118A   	fcall	_addCharToMaxTemp
  6574                           
  6575                           ;termometroDiferencial.c: 272:             break;
  6576  06E4  2F95               	goto	i1l174
  6577  06E5                     i1l2348:	
  6578                           
  6579                           ;termometroDiferencial.c: 274:             clearIfFirst();
  6580  06E5  158A  20CB  118A   	fcall	_clearIfFirst
  6581  06E8                     i1l2350:	
  6582                           
  6583                           ;termometroDiferencial.c: 275:             addCharToMaxTemp('2');
  6584  06E8  3032               	movlw	50
  6585  06E9  158A  22BC  118A   	fcall	_addCharToMaxTemp
  6586                           
  6587                           ;termometroDiferencial.c: 276:             break;
  6588  06EC  2F95               	goto	i1l174
  6589  06ED                     i1l2352:	
  6590                           
  6591                           ;termometroDiferencial.c: 278:             clearIfFirst();
  6592  06ED  158A  20CB  118A   	fcall	_clearIfFirst
  6593  06F0                     i1l2354:	
  6594                           
  6595                           ;termometroDiferencial.c: 279:             addCharToMaxTemp('3');
  6596  06F0  3033               	movlw	51
  6597  06F1  158A  22BC  118A   	fcall	_addCharToMaxTemp
  6598                           
  6599                           ;termometroDiferencial.c: 280:             break;
  6600  06F4  2F95               	goto	i1l174
  6601  06F5                     i1l2356:	
  6602                           
  6603                           ;termometroDiferencial.c: 282:             addCharToMaxTemp('0');
  6604  06F5  3030               	movlw	48
  6605  06F6  158A  22BC  118A   	fcall	_addCharToMaxTemp
  6606                           
  6607                           ;termometroDiferencial.c: 283:             break;
  6608  06F9  2F95               	goto	i1l174
  6609  06FA                     i1l2358:	
  6610                           
  6611                           ;termometroDiferencial.c: 286:             onConfTempMode = 1;
  6612  06FA  3001               	movlw	1
  6613  06FB  1683               	bsf	3,5	;RP0=1, select bank1
  6614  06FC  1303               	bcf	3,6	;RP1=0, select bank1
  6615  06FD  00E4               	movwf	_onConfTempMode^(0+128)
  6616  06FE  3000               	movlw	0
  6617  06FF  00E5               	movwf	(_onConfTempMode^(0+128)+1)
  6618                           
  6619                           ;termometroDiferencial.c: 287:             waiting = 1;
  6620  0700  3001               	movlw	1
  6621  0701  1283               	bcf	3,5	;RP0=0, select bank0
  6622  0702  1303               	bcf	3,6	;RP1=0, select bank0
  6623  0703  00DB               	movwf	_waiting
  6624  0704  3000               	movlw	0
  6625  0705  00DC               	movwf	_waiting+1
  6626                           
  6627                           ;termometroDiferencial.c: 288:             clear = 1;
  6628  0706  3001               	movlw	1
  6629  0707  00D9               	movwf	_clear
  6630  0708  3000               	movlw	0
  6631  0709  00DA               	movwf	_clear+1
  6632  070A                     i1l2360:	
  6633                           
  6634                           ;termometroDiferencial.c: 289:             memset(maxTempString, 0, sizeof maxTempString
      +                          );
  6635  070A  3000               	movlw	0
  6636  070B  00A0               	movwf	memset@c
  6637  070C  00A1               	movwf	memset@c+1
  6638  070D  3005               	movlw	5
  6639  070E  00A2               	movwf	memset@n
  6640  070F  3000               	movlw	0
  6641  0710  00A3               	movwf	memset@n+1
  6642  0711  305F               	movlw	(low (_maxTempString| 0))& (0+255)
  6643  0712  158A  21BC  118A   	fcall	_memset
  6644  0715                     i1l2362:	
  6645                           
  6646                           ;termometroDiferencial.c: 290:             cont = 0;
  6647  0715  1283               	bcf	3,5	;RP0=0, select bank0
  6648  0716  1303               	bcf	3,6	;RP1=0, select bank0
  6649  0717  01DD               	clrf	_cont
  6650  0718  01DE               	clrf	_cont+1
  6651                           
  6652                           ;termometroDiferencial.c: 291:             break;
  6653  0719  2F95               	goto	i1l174
  6654  071A                     i1l2364:	
  6655                           
  6656                           ;termometroDiferencial.c: 293:             showDiferenceTemp = 1;
  6657  071A  3001               	movlw	1
  6658  071B  1683               	bsf	3,5	;RP0=1, select bank1
  6659  071C  1303               	bcf	3,6	;RP1=0, select bank1
  6660  071D  00E2               	movwf	_showDiferenceTemp^(0+128)
  6661  071E  3000               	movlw	0
  6662  071F  00E3               	movwf	(_showDiferenceTemp^(0+128)+1)
  6663  0720                     i1l2366:	
  6664                           
  6665                           ;termometroDiferencial.c: 294:             readTem = 0;
  6666  0720  01E0               	clrf	_readTem^(0+128)
  6667  0721  01E1               	clrf	(_readTem+1)^(0+128)
  6668                           
  6669                           ;termometroDiferencial.c: 295:             break;
  6670  0722  2F95               	goto	i1l174
  6671  0723                     i1l2368:	
  6672                           
  6673                           ;termometroDiferencial.c: 297:             showDiferenceTemp = 0;
  6674  0723  1683               	bsf	3,5	;RP0=1, select bank1
  6675  0724  1303               	bcf	3,6	;RP1=0, select bank1
  6676  0725  01E2               	clrf	_showDiferenceTemp^(0+128)
  6677  0726  01E3               	clrf	(_showDiferenceTemp+1)^(0+128)
  6678  0727                     i1l2370:	
  6679                           
  6680                           ;termometroDiferencial.c: 298:             readTem = 1;
  6681  0727  3001               	movlw	1
  6682  0728  00E0               	movwf	_readTem^(0+128)
  6683  0729  3000               	movlw	0
  6684  072A  00E1               	movwf	(_readTem^(0+128)+1)
  6685  072B                     i1l2372:	
  6686                           
  6687                           ;termometroDiferencial.c: 299:             changeThermometerChannel(1);
  6688  072B  3001               	movlw	1
  6689  072C  1283               	bcf	3,5	;RP0=0, select bank0
  6690  072D  1303               	bcf	3,6	;RP1=0, select bank0
  6691  072E  00A0               	movwf	i1changeThermometerChannel@channel
  6692  072F  3000               	movlw	0
  6693  0730  00A1               	movwf	i1changeThermometerChannel@channel+1
  6694  0731  158A  2094  118A   	fcall	i1_changeThermometerChannel
  6695                           
  6696                           ;termometroDiferencial.c: 300:             break;
  6697  0734  2F95               	goto	i1l174
  6698  0735                     i1l2374:	
  6699                           
  6700                           ;termometroDiferencial.c: 302:             showDiferenceTemp = 0;
  6701  0735  1683               	bsf	3,5	;RP0=1, select bank1
  6702  0736  1303               	bcf	3,6	;RP1=0, select bank1
  6703  0737  01E2               	clrf	_showDiferenceTemp^(0+128)
  6704  0738  01E3               	clrf	(_showDiferenceTemp+1)^(0+128)
  6705  0739                     i1l2376:	
  6706                           
  6707                           ;termometroDiferencial.c: 303:             readTem = 1;
  6708  0739  3001               	movlw	1
  6709  073A  00E0               	movwf	_readTem^(0+128)
  6710  073B  3000               	movlw	0
  6711  073C  00E1               	movwf	(_readTem^(0+128)+1)
  6712  073D                     i1l2378:	
  6713                           
  6714                           ;termometroDiferencial.c: 304:             changeThermometerChannel(2);
  6715  073D  3002               	movlw	2
  6716  073E  1283               	bcf	3,5	;RP0=0, select bank0
  6717  073F  1303               	bcf	3,6	;RP1=0, select bank0
  6718  0740  00A0               	movwf	i1changeThermometerChannel@channel
  6719  0741  3000               	movlw	0
  6720  0742  00A1               	movwf	i1changeThermometerChannel@channel+1
  6721  0743  158A  2094  118A   	fcall	i1_changeThermometerChannel
  6722                           
  6723                           ;termometroDiferencial.c: 305:             break;
  6724  0746  2F95               	goto	i1l174
  6725  0747                     i1l2380:	
  6726                           
  6727                           ;termometroDiferencial.c: 307:             maxTemp = atoi(maxTempString);
  6728  0747  305F               	movlw	(low (_maxTempString| 0))& (0+255)
  6729  0748  158A  258D  118A   	fcall	_atoi
  6730  074B  1283               	bcf	3,5	;RP0=0, select bank0
  6731  074C  1303               	bcf	3,6	;RP1=0, select bank0
  6732  074D  0827               	movf	?_atoi+1,w
  6733  074E  1683               	bsf	3,5	;RP0=1, select bank1
  6734  074F  1303               	bcf	3,6	;RP1=0, select bank1
  6735  0750  00E7               	movwf	(_maxTemp+1)^(0+128)
  6736  0751  1283               	bcf	3,5	;RP0=0, select bank0
  6737  0752  1303               	bcf	3,6	;RP1=0, select bank0
  6738  0753  0826               	movf	?_atoi,w
  6739  0754  1683               	bsf	3,5	;RP0=1, select bank1
  6740  0755  1303               	bcf	3,6	;RP1=0, select bank1
  6741  0756  00E6               	movwf	_maxTemp^(0+128)
  6742  0757                     i1l2382:	
  6743                           
  6744                           ;termometroDiferencial.c: 308:             waiting = 0;
  6745  0757  1283               	bcf	3,5	;RP0=0, select bank0
  6746  0758  1303               	bcf	3,6	;RP1=0, select bank0
  6747  0759  01DB               	clrf	_waiting
  6748  075A  01DC               	clrf	_waiting+1
  6749                           
  6750                           ;termometroDiferencial.c: 309:             break;
  6751  075B  2F95               	goto	i1l174
  6752  075C                     i1l2386:	
  6753  075C  1283               	bcf	3,5	;RP0=0, select bank0
  6754  075D  1303               	bcf	3,6	;RP1=0, select bank0
  6755  075E  0806               	movf	6,w	;volatile
  6756  075F  00B2               	movwf	??_keyboard
  6757  0760  01B3               	clrf	??_keyboard+1
  6758                           
  6759                           ; Switch on 2 bytes has been partitioned into a top level switch of size 1, and 1 sub-sw
      +                          itches
  6760                           ; Switch size 1, requested type "simple"
  6761                           ; Number of cases is 1, Range of values is 0 to 0
  6762                           ; switch strategies available:
  6763                           ; Name         Instructions Cycles
  6764                           ; simple_byte            4     3 (average)
  6765                           ; direct_byte            9     7 (fixed)
  6766                           ; jumptable            260     6 (fixed)
  6767                           ;	Chosen strategy is simple_byte
  6768  0761  0833               	movf	??_keyboard+1,w
  6769  0762  3A00               	xorlw	0	; case 0
  6770  0763  1903               	skipnz
  6771  0764  2F66               	goto	i1l2946
  6772  0765  2F95               	goto	i1l174
  6773  0766                     i1l2946:	
  6774                           
  6775                           ; Switch size 1, requested type "simple"
  6776                           ; Number of cases is 15, Range of values is 119 to 238
  6777                           ; switch strategies available:
  6778                           ; Name         Instructions Cycles
  6779                           ; simple_byte           46    24 (average)
  6780                           ; direct_byte          250    10 (fixed)
  6781                           ; jumptable            263     9 (fixed)
  6782                           ;	Chosen strategy is simple_byte
  6783  0766  0832               	movf	??_keyboard,w
  6784  0767  3A77               	xorlw	119	; case 119
  6785  0768  1903               	skipnz
  6786  0769  2F35               	goto	i1l2374
  6787  076A  3A0C               	xorlw	12	; case 123
  6788  076B  1903               	skipnz
  6789  076C  2F23               	goto	i1l2368
  6790  076D  3A06               	xorlw	6	; case 125
  6791  076E  1903               	skipnz
  6792  076F  2F1A               	goto	i1l2364
  6793  0770  3A03               	xorlw	3	; case 126
  6794  0771  1903               	skipnz
  6795  0772  2EFA               	goto	i1l2358
  6796  0773  3AC9               	xorlw	201	; case 183
  6797  0774  1903               	skipnz
  6798  0775  2F47               	goto	i1l2380
  6799  0776  3A0C               	xorlw	12	; case 187
  6800  0777  1903               	skipnz
  6801  0778  2EED               	goto	i1l2352
  6802  0779  3A06               	xorlw	6	; case 189
  6803  077A  1903               	skipnz
  6804  077B  2ED5               	goto	i1l2340
  6805  077C  3A03               	xorlw	3	; case 190
  6806  077D  1903               	skipnz
  6807  077E  2EBD               	goto	i1l2328
  6808  077F  3A69               	xorlw	105	; case 215
  6809  0780  1903               	skipnz
  6810  0781  2EF5               	goto	i1l2356
  6811  0782  3A0C               	xorlw	12	; case 219
  6812  0783  1903               	skipnz
  6813  0784  2EE5               	goto	i1l2348
  6814  0785  3A06               	xorlw	6	; case 221
  6815  0786  1903               	skipnz
  6816  0787  2ECD               	goto	i1l2336
  6817  0788  3A03               	xorlw	3	; case 222
  6818  0789  1903               	skipnz
  6819  078A  2EB5               	goto	i1l2324
  6820  078B  3A35               	xorlw	53	; case 235
  6821  078C  1903               	skipnz
  6822  078D  2EDD               	goto	i1l2344
  6823  078E  3A06               	xorlw	6	; case 237
  6824  078F  1903               	skipnz
  6825  0790  2EC5               	goto	i1l2332
  6826  0791  3A03               	xorlw	3	; case 238
  6827  0792  1903               	skipnz
  6828  0793  2EAD               	goto	i1l2320
  6829  0794  2F95               	goto	i1l174
  6830  0795                     i1l174:	
  6831  0795  0008               	return
  6832  0796                     __end_of_keyboard:	
  6833                           
  6834                           	psect	text34
  6835  0894                     __ptext34:	
  6836 ;; *************** function i1_changeThermometerChannel *****************
  6837 ;; Defined at:
  6838 ;;		line 217 in file "termometroDiferencial.c"
  6839 ;; Parameters:    Size  Location     Type
  6840 ;;  channel         2    0[BANK0 ] int 
  6841 ;; Auto vars:     Size  Location     Type
  6842 ;;		None
  6843 ;; Return value:  Size  Location     Type
  6844 ;;                  1    wreg      void 
  6845 ;; Registers used:
  6846 ;;		wreg, status,2, status,0
  6847 ;; Tracked objects:
  6848 ;;		On entry : 0/0
  6849 ;;		On exit  : 0/0
  6850 ;;		Unchanged: 0/0
  6851 ;; Data sizes:     COMMON   BANK0   BANK1
  6852 ;;      Params:         0       2       0
  6853 ;;      Locals:         0       0       0
  6854 ;;      Temps:          0       0       0
  6855 ;;      Totals:         0       2       0
  6856 ;;Total ram usage:        2 bytes
  6857 ;; Hardware stack levels used:    1
  6858 ;; This function calls:
  6859 ;;		Nothing
  6860 ;; This function is called by:
  6861 ;;		_keyboard
  6862 ;; This function uses a non-reentrant model
  6863 ;;
  6864                           
  6865                           
  6866                           ;psect for function i1_changeThermometerChannel
  6867  0894                     i1_changeThermometerChannel:	
  6868  0894                     i1l2280:	
  6869                           ;incstack = 0
  6870 ;; hardware stack exceeded
  6871                           ; Regs used in i1_changeThermometerChannel: [wreg+status,2+status,0]
  6872                           
  6873                           
  6874                           ;termometroDiferencial.c: 218:     if (channel == 2) {
  6875  0894  3002               	movlw	2
  6876  0895  1283               	bcf	3,5	;RP0=0, select bank0
  6877  0896  1303               	bcf	3,6	;RP1=0, select bank0
  6878  0897  0620               	xorwf	i1changeThermometerChannel@channel,w
  6879  0898  0421               	iorwf	i1changeThermometerChannel@channel+1,w
  6880  0899  1D03               	btfss	3,2
  6881  089A  289C               	goto	u250_21
  6882  089B  289D               	goto	u250_20
  6883  089C                     u250_21:	
  6884  089C  289F               	goto	i1l147
  6885  089D                     u250_20:	
  6886  089D                     i1l2282:	
  6887                           
  6888                           ;termometroDiferencial.c: 219:         CHS0 = 1;
  6889  089D  159F               	bsf	31,3	;volatile
  6890                           
  6891                           ;termometroDiferencial.c: 220:     } else {
  6892  089E  28A0               	goto	i1l149
  6893  089F                     i1l147:	
  6894                           
  6895                           ;termometroDiferencial.c: 221:         CHS0 = 0;
  6896  089F  119F               	bcf	31,3	;volatile
  6897  08A0                     i1l149:	
  6898  08A0  0008               	return
  6899  08A1                     __end_ofi1_changeThermometerChannel:	
  6900                           
  6901                           	psect	text35
  6902  09BC                     __ptext35:	
  6903 ;; *************** function _memset *****************
  6904 ;; Defined at:
  6905 ;;		line 8 in file "C:\Program Files (x86)\Microchip\xc8\v2.10\pic\sources\c90\common\memset.c"
  6906 ;; Parameters:    Size  Location     Type
  6907 ;;  p1              1    wreg     PTR void 
  6908 ;;		 -> maxTempString(5), 
  6909 ;;  c               2    0[BANK0 ] int 
  6910 ;;  n               2    2[BANK0 ] unsigned int 
  6911 ;; Auto vars:     Size  Location     Type
  6912 ;;  p1              1    5[BANK0 ] PTR void 
  6913 ;;		 -> maxTempString(5), 
  6914 ;;  p               1    6[BANK0 ] PTR unsigned char 
  6915 ;;		 -> maxTempString(5), 
  6916 ;; Return value:  Size  Location     Type
  6917 ;;                  1    wreg      PTR void 
  6918 ;; Registers used:
  6919 ;;		wreg, fsr0l, fsr0h, status,2, status,0
  6920 ;; Tracked objects:
  6921 ;;		On entry : 0/0
  6922 ;;		On exit  : 0/0
  6923 ;;		Unchanged: 0/0
  6924 ;; Data sizes:     COMMON   BANK0   BANK1
  6925 ;;      Params:         0       4       0
  6926 ;;      Locals:         0       2       0
  6927 ;;      Temps:          0       1       0
  6928 ;;      Totals:         0       7       0
  6929 ;;Total ram usage:        7 bytes
  6930 ;; Hardware stack levels used:    1
  6931 ;; This function calls:
  6932 ;;		Nothing
  6933 ;; This function is called by:
  6934 ;;		_keyboard
  6935 ;; This function uses a non-reentrant model
  6936 ;;
  6937                           
  6938                           
  6939                           ;psect for function _memset
  6940  09BC                     _memset:	
  6941                           
  6942                           ;incstack = 0
  6943 ;; hardware stack exceeded
  6944                           ; Regs used in _memset: [wreg-fsr0h+status,2+status,0]
  6945                           ;memset@p1 stored from wreg
  6946  09BC  1283               	bcf	3,5	;RP0=0, select bank0
  6947  09BD  1303               	bcf	3,6	;RP1=0, select bank0
  6948  09BE  00A5               	movwf	memset@p1
  6949  09BF                     i1l2230:	
  6950  09BF  0825               	movf	memset@p1,w
  6951  09C0  00A4               	movwf	??_memset
  6952  09C1  0824               	movf	??_memset,w
  6953  09C2  00A6               	movwf	memset@p
  6954  09C3  29CF               	goto	i1l2236
  6955  09C4                     i1l2232:	
  6956  09C4  0820               	movf	memset@c,w
  6957  09C5  00A4               	movwf	??_memset
  6958  09C6  0826               	movf	memset@p,w
  6959  09C7  0084               	movwf	4
  6960  09C8  0824               	movf	??_memset,w
  6961  09C9  1383               	bcf	3,7	;select IRP bank0
  6962  09CA  0080               	movwf	0
  6963  09CB                     i1l2234:	
  6964  09CB  3001               	movlw	1
  6965  09CC  00A4               	movwf	??_memset
  6966  09CD  0824               	movf	??_memset,w
  6967  09CE  07A6               	addwf	memset@p,f
  6968  09CF                     i1l2236:	
  6969  09CF  3001               	movlw	1
  6970  09D0  02A2               	subwf	memset@n,f
  6971  09D1  3000               	movlw	0
  6972  09D2  1C03               	skipc
  6973  09D3  03A3               	decf	memset@n+1,f
  6974  09D4  02A3               	subwf	memset@n+1,f
  6975  09D5  0A22               	incf	memset@n,w
  6976  09D6  1D03               	skipz
  6977  09D7  29DC               	goto	u240_21
  6978  09D8  0A23               	incf	memset@n+1,w
  6979  09D9  1D03               	btfss	3,2
  6980  09DA  29DC               	goto	u240_21
  6981  09DB  29DD               	goto	u240_20
  6982  09DC                     u240_21:	
  6983  09DC  29C4               	goto	i1l2232
  6984  09DD                     u240_20:	
  6985  09DD                     i1l809:	
  6986  09DD  0008               	return
  6987  09DE                     __end_of_memset:	
  6988                           
  6989                           	psect	text36
  6990  08CB                     __ptext36:	
  6991 ;; *************** function _clearIfFirst *****************
  6992 ;; Defined at:
  6993 ;;		line 206 in file "termometroDiferencial.c"
  6994 ;; Parameters:    Size  Location     Type
  6995 ;;		None
  6996 ;; Auto vars:     Size  Location     Type
  6997 ;;		None
  6998 ;; Return value:  Size  Location     Type
  6999 ;;                  1    wreg      void 
  7000 ;; Registers used:
  7001 ;;		wreg, status,2, status,0, pclath, cstack
  7002 ;; Tracked objects:
  7003 ;;		On entry : 0/0
  7004 ;;		On exit  : 0/0
  7005 ;;		Unchanged: 0/0
  7006 ;; Data sizes:     COMMON   BANK0   BANK1
  7007 ;;      Params:         0       0       0
  7008 ;;      Locals:         0       0       0
  7009 ;;      Temps:          0       0       0
  7010 ;;      Totals:         0       0       0
  7011 ;;Total ram usage:        0 bytes
  7012 ;; Hardware stack levels used:    1
  7013 ;; Hardware stack levels required when called:    3
  7014 ;; This function calls:
  7015 ;;		i1_clearLCD
  7016 ;; This function is called by:
  7017 ;;		_keyboard
  7018 ;; This function uses a non-reentrant model
  7019 ;;
  7020                           
  7021                           
  7022                           ;psect for function _clearIfFirst
  7023  08CB                     _clearIfFirst:	
  7024  08CB                     i1l2210:	
  7025                           ;incstack = 0
  7026 ;; hardware stack exceeded
  7027                           ; Regs used in _clearIfFirst: [wreg+status,2+status,0+pclath+cstack]
  7028                           
  7029                           
  7030                           ;termometroDiferencial.c: 207:     if (clear == 1) {
  7031  08CB  1283               	bcf	3,5	;RP0=0, select bank0
  7032  08CC  1303               	bcf	3,6	;RP1=0, select bank0
  7033  08CD  0359               	decf	_clear,w
  7034  08CE  045A               	iorwf	_clear+1,w
  7035  08CF  1D03               	btfss	3,2
  7036  08D0  28D2               	goto	u236_21
  7037  08D1  28D3               	goto	u236_20
  7038  08D2                     u236_21:	
  7039  08D2  28DA               	goto	i1l144
  7040  08D3                     u236_20:	
  7041  08D3                     i1l2212:	
  7042                           
  7043                           ;termometroDiferencial.c: 208:         clearLCD();
  7044  08D3  158A  2087  158A   	fcall	i1_clearLCD
  7045  08D6                     i1l2214:	
  7046                           
  7047                           ;termometroDiferencial.c: 209:         clear = 0;
  7048  08D6  1283               	bcf	3,5	;RP0=0, select bank0
  7049  08D7  1303               	bcf	3,6	;RP1=0, select bank0
  7050  08D8  01D9               	clrf	_clear
  7051  08D9  01DA               	clrf	_clear+1
  7052  08DA                     i1l144:	
  7053  08DA  0008               	return
  7054  08DB                     __end_of_clearIfFirst:	
  7055                           
  7056                           	psect	text37
  7057  0887                     __ptext37:	
  7058 ;; *************** function i1_clearLCD *****************
  7059 ;; Defined at:
  7060 ;;		line 111 in file "termometroDiferencial.c"
  7061 ;; Parameters:    Size  Location     Type
  7062 ;;		None
  7063 ;; Auto vars:     Size  Location     Type
  7064 ;;		None
  7065 ;; Return value:  Size  Location     Type
  7066 ;;                  1    wreg      void 
  7067 ;; Registers used:
  7068 ;;		wreg, status,2, status,0, pclath, cstack
  7069 ;; Tracked objects:
  7070 ;;		On entry : 0/0
  7071 ;;		On exit  : 0/0
  7072 ;;		Unchanged: 0/0
  7073 ;; Data sizes:     COMMON   BANK0   BANK1
  7074 ;;      Params:         0       0       0
  7075 ;;      Locals:         0       0       0
  7076 ;;      Temps:          0       0       0
  7077 ;;      Totals:         0       0       0
  7078 ;;Total ram usage:        0 bytes
  7079 ;; Hardware stack levels used:    1
  7080 ;; Hardware stack levels required when called:    2
  7081 ;; This function calls:
  7082 ;;		i1_sendNibble
  7083 ;; This function is called by:
  7084 ;;		_clearIfFirst
  7085 ;; This function uses a non-reentrant model
  7086 ;;
  7087                           
  7088                           
  7089                           ;psect for function i1_clearLCD
  7090  0887                     i1_clearLCD:	
  7091  0887                     i1l2188:	
  7092                           ;incstack = 0
  7093 ;; hardware stack exceeded
  7094                           ; Regs used in i1_clearLCD: [wreg+status,2+status,0+pclath+cstack]
  7095                           
  7096                           
  7097                           ;termometroDiferencial.c: 112:     sendNibble(1, 0);
  7098  0887  3001               	movlw	1
  7099  0888  1283               	bcf	3,5	;RP0=0, select bank0
  7100  0889  1303               	bcf	3,6	;RP1=0, select bank0
  7101  088A  00A1               	movwf	i1sendNibble@n
  7102  088B  3000               	movlw	0
  7103  088C  00A2               	movwf	i1sendNibble@n+1
  7104  088D  3000               	movlw	0
  7105  088E  00A3               	movwf	i1sendNibble@rs
  7106  088F  00A4               	movwf	i1sendNibble@rs+1
  7107  0890  158A  2410  158A   	fcall	i1_sendNibble
  7108  0893                     i1l116:	
  7109  0893  0008               	return
  7110  0894                     __end_ofi1_clearLCD:	
  7111                           
  7112                           	psect	text38
  7113  0D8D                     __ptext38:	
  7114 ;; *************** function _atoi *****************
  7115 ;; Defined at:
  7116 ;;		line 5 in file "C:\Program Files (x86)\Microchip\xc8\v2.10\pic\sources\c90\common\atoi.c"
  7117 ;; Parameters:    Size  Location     Type
  7118 ;;  s               1    wreg     PTR const unsigned char 
  7119 ;;		 -> maxTempString(5), 
  7120 ;; Auto vars:     Size  Location     Type
  7121 ;;  s               1   13[BANK0 ] PTR const unsigned char 
  7122 ;;		 -> maxTempString(5), 
  7123 ;;  a               2   11[BANK0 ] int 
  7124 ;;  sign            1   10[BANK0 ] unsigned char 
  7125 ;; Return value:  Size  Location     Type
  7126 ;;                  2    6[BANK0 ] int 
  7127 ;; Registers used:
  7128 ;;		wreg, fsr0l, fsr0h, status,2, status,0, pclath, cstack
  7129 ;; Tracked objects:
  7130 ;;		On entry : 0/0
  7131 ;;		On exit  : 0/0
  7132 ;;		Unchanged: 0/0
  7133 ;; Data sizes:     COMMON   BANK0   BANK1
  7134 ;;      Params:         0       2       0
  7135 ;;      Locals:         0       4       0
  7136 ;;      Temps:          0       2       0
  7137 ;;      Totals:         0       8       0
  7138 ;;Total ram usage:        8 bytes
  7139 ;; Hardware stack levels used:    1
  7140 ;; Hardware stack levels required when called:    1
  7141 ;; This function calls:
  7142 ;;		___wmul
  7143 ;;		_isdigit
  7144 ;; This function is called by:
  7145 ;;		_keyboard
  7146 ;; This function uses a non-reentrant model
  7147 ;;
  7148                           
  7149                           
  7150                           ;psect for function _atoi
  7151  0D8D                     _atoi:	
  7152                           
  7153                           ;incstack = 0
  7154 ;; hardware stack exceeded
  7155                           ; Regs used in _atoi: [wreg-fsr0h+status,2+status,0+pclath+cstack]
  7156                           ;atoi@s stored from wreg
  7157  0D8D  1283               	bcf	3,5	;RP0=0, select bank0
  7158  0D8E  1303               	bcf	3,6	;RP1=0, select bank0
  7159  0D8F  00AD               	movwf	atoi@s
  7160  0D90                     i1l2238:	
  7161  0D90  2D95               	goto	i1l2242
  7162  0D91                     i1l2240:	
  7163  0D91  3001               	movlw	1
  7164  0D92  00A8               	movwf	??_atoi
  7165  0D93  0828               	movf	??_atoi,w
  7166  0D94  07AD               	addwf	atoi@s,f
  7167  0D95                     i1l2242:	
  7168  0D95  082D               	movf	atoi@s,w
  7169  0D96  0084               	movwf	4
  7170  0D97  3020               	movlw	32
  7171  0D98  1383               	bcf	3,7	;select IRP bank0
  7172  0D99  0600               	xorwf	0,w
  7173  0D9A  1903               	btfsc	3,2
  7174  0D9B  2D9D               	goto	u241_21
  7175  0D9C  2D9E               	goto	u241_20
  7176  0D9D                     u241_21:	
  7177  0D9D  2D91               	goto	i1l2240
  7178  0D9E                     u241_20:	
  7179  0D9E                     i1l2244:	
  7180  0D9E  082D               	movf	atoi@s,w
  7181  0D9F  0084               	movwf	4
  7182  0DA0  3009               	movlw	9
  7183  0DA1  0600               	xorwf	0,w
  7184  0DA2  1903               	btfsc	3,2
  7185  0DA3  2DA5               	goto	u242_21
  7186  0DA4  2DA6               	goto	u242_20
  7187  0DA5                     u242_21:	
  7188  0DA5  2D91               	goto	i1l2240
  7189  0DA6                     u242_20:	
  7190  0DA6                     i1l2246:	
  7191  0DA6  01AB               	clrf	atoi@a
  7192  0DA7  01AC               	clrf	atoi@a+1
  7193  0DA8  01AA               	clrf	atoi@sign
  7194  0DA9                     i1l2248:	
  7195  0DA9  082D               	movf	atoi@s,w
  7196  0DAA  0084               	movwf	4
  7197  0DAB  302D               	movlw	45
  7198  0DAC  0600               	xorwf	0,w
  7199  0DAD  1D03               	btfss	3,2
  7200  0DAE  2DB0               	goto	u243_21
  7201  0DAF  2DB1               	goto	u243_20
  7202  0DB0                     u243_21:	
  7203  0DB0  2DBA               	goto	i1l2252
  7204  0DB1                     u243_20:	
  7205  0DB1                     i1l2250:	
  7206  0DB1  3001               	movlw	1
  7207  0DB2  00A8               	movwf	??_atoi
  7208  0DB3  0828               	movf	??_atoi,w
  7209  0DB4  07AA               	addwf	atoi@sign,f
  7210  0DB5  3001               	movlw	1
  7211  0DB6  00A8               	movwf	??_atoi
  7212  0DB7  0828               	movf	??_atoi,w
  7213  0DB8  07AD               	addwf	atoi@s,f
  7214  0DB9  2DEA               	goto	i1l2260
  7215  0DBA                     i1l2252:	
  7216  0DBA  082D               	movf	atoi@s,w
  7217  0DBB  0084               	movwf	4
  7218  0DBC  302B               	movlw	43
  7219  0DBD  0600               	xorwf	0,w
  7220  0DBE  1D03               	btfss	3,2
  7221  0DBF  2DC1               	goto	u244_21
  7222  0DC0  2DC2               	goto	u244_20
  7223  0DC1                     u244_21:	
  7224  0DC1  2DEA               	goto	i1l2260
  7225  0DC2                     u244_20:	
  7226  0DC2                     i1l2254:	
  7227  0DC2  3001               	movlw	1
  7228  0DC3  00A8               	movwf	??_atoi
  7229  0DC4  0828               	movf	??_atoi,w
  7230  0DC5  07AD               	addwf	atoi@s,f
  7231  0DC6  2DEA               	goto	i1l2260
  7232  0DC7                     i1l2256:	
  7233  0DC7  1283               	bcf	3,5	;RP0=0, select bank0
  7234  0DC8  1303               	bcf	3,6	;RP1=0, select bank0
  7235  0DC9  082D               	movf	atoi@s,w
  7236  0DCA  0084               	movwf	4
  7237  0DCB  082C               	movf	atoi@a+1,w
  7238  0DCC  00A1               	movwf	___wmul@multiplier+1
  7239  0DCD  082B               	movf	atoi@a,w
  7240  0DCE  00A0               	movwf	___wmul@multiplier
  7241  0DCF  300A               	movlw	10
  7242  0DD0  00A2               	movwf	___wmul@multiplicand
  7243  0DD1  3000               	movlw	0
  7244  0DD2  00A3               	movwf	___wmul@multiplicand+1
  7245  0DD3  158A  226C  158A   	fcall	___wmul
  7246  0DD6  1383               	bcf	3,7	;select IRP bank0
  7247  0DD7  0800               	movf	0,w
  7248  0DD8  1283               	bcf	3,5	;RP0=0, select bank0
  7249  0DD9  1303               	bcf	3,6	;RP1=0, select bank0
  7250  0DDA  0720               	addwf	?___wmul,w
  7251  0DDB  00A8               	movwf	??_atoi
  7252  0DDC  3000               	movlw	0
  7253  0DDD  1803               	skipnc
  7254  0DDE  3001               	movlw	1
  7255  0DDF  0721               	addwf	?___wmul+1,w
  7256  0DE0  00A9               	movwf	??_atoi+1
  7257  0DE1  0828               	movf	??_atoi,w
  7258  0DE2  3ED0               	addlw	208
  7259  0DE3  00AB               	movwf	atoi@a
  7260  0DE4  0829               	movf	??_atoi+1,w
  7261  0DE5  1803               	skipnc
  7262  0DE6  3E01               	addlw	1
  7263  0DE7  3EFF               	addlw	255
  7264  0DE8  00AC               	movwf	atoi@a+1
  7265  0DE9  2DC2               	goto	i1l2254
  7266  0DEA                     i1l2260:	
  7267  0DEA  082D               	movf	atoi@s,w
  7268  0DEB  0084               	movwf	4
  7269  0DEC  0800               	movf	0,w
  7270  0DED  158A  212D  158A   	fcall	_isdigit
  7271  0DF0  1803               	btfsc	3,0
  7272  0DF1  2DF3               	goto	u245_21
  7273  0DF2  2DF4               	goto	u245_20
  7274  0DF3                     u245_21:	
  7275  0DF3  2DC7               	goto	i1l2256
  7276  0DF4                     u245_20:	
  7277  0DF4                     i1l2262:	
  7278  0DF4  1283               	bcf	3,5	;RP0=0, select bank0
  7279  0DF5  1303               	bcf	3,6	;RP1=0, select bank0
  7280  0DF6  082A               	movf	atoi@sign,w
  7281  0DF7  1903               	btfsc	3,2
  7282  0DF8  2DFA               	goto	u246_21
  7283  0DF9  2DFB               	goto	u246_20
  7284  0DFA                     u246_21:	
  7285  0DFA  2E07               	goto	i1l2268
  7286  0DFB                     u246_20:	
  7287  0DFB                     i1l2264:	
  7288  0DFB  092B               	comf	atoi@a,w
  7289  0DFC  00A8               	movwf	??_atoi
  7290  0DFD  092C               	comf	atoi@a+1,w
  7291  0DFE  00A9               	movwf	??_atoi+1
  7292  0DFF  0AA8               	incf	??_atoi,f
  7293  0E00  1903               	skipnz
  7294  0E01  0AA9               	incf	??_atoi+1,f
  7295  0E02  0828               	movf	??_atoi,w
  7296  0E03  00A6               	movwf	?_atoi
  7297  0E04  0829               	movf	??_atoi+1,w
  7298  0E05  00A7               	movwf	?_atoi+1
  7299  0E06  2E0B               	goto	i1l798
  7300  0E07                     i1l2268:	
  7301  0E07  082C               	movf	atoi@a+1,w
  7302  0E08  00A7               	movwf	?_atoi+1
  7303  0E09  082B               	movf	atoi@a,w
  7304  0E0A  00A6               	movwf	?_atoi
  7305  0E0B                     i1l798:	
  7306  0E0B  0008               	return
  7307  0E0C                     __end_of_atoi:	
  7308                           
  7309                           	psect	text39
  7310  092D                     __ptext39:	
  7311 ;; *************** function _isdigit *****************
  7312 ;; Defined at:
  7313 ;;		line 8 in file "C:\Program Files (x86)\Microchip\xc8\v2.10\pic\sources\c90\common\isdigit.c"
  7314 ;; Parameters:    Size  Location     Type
  7315 ;;  c               1    wreg     unsigned char 
  7316 ;; Auto vars:     Size  Location     Type
  7317 ;;  c               1    1[BANK0 ] unsigned char 
  7318 ;; Return value:  Size  Location     Type
  7319 ;;		None               void
  7320 ;; Registers used:
  7321 ;;		wreg, status,2, status,0
  7322 ;; Tracked objects:
  7323 ;;		On entry : 0/0
  7324 ;;		On exit  : 0/0
  7325 ;;		Unchanged: 0/0
  7326 ;; Data sizes:     COMMON   BANK0   BANK1
  7327 ;;      Params:         0       0       0
  7328 ;;      Locals:         0       2       0
  7329 ;;      Temps:          0       0       0
  7330 ;;      Totals:         0       2       0
  7331 ;;Total ram usage:        2 bytes
  7332 ;; Hardware stack levels used:    1
  7333 ;; This function calls:
  7334 ;;		Nothing
  7335 ;; This function is called by:
  7336 ;;		_atoi
  7337 ;; This function uses a non-reentrant model
  7338 ;;
  7339                           
  7340                           
  7341                           ;psect for function _isdigit
  7342  092D                     _isdigit:	
  7343                           
  7344                           ;incstack = 0
  7345 ;; hardware stack exceeded
  7346                           ; Regs used in _isdigit: [wreg+status,2+status,0]
  7347                           ;isdigit@c stored from wreg
  7348  092D  1283               	bcf	3,5	;RP0=0, select bank0
  7349  092E  1303               	bcf	3,6	;RP1=0, select bank0
  7350  092F  00A1               	movwf	isdigit@c
  7351  0930                     i1l2174:	
  7352  0930  01A0               	clrf	_isdigit$679
  7353  0931                     i1l2176:	
  7354  0931  303A               	movlw	58
  7355  0932  0221               	subwf	isdigit@c,w
  7356  0933  1803               	skipnc
  7357  0934  2936               	goto	u234_21
  7358  0935  2937               	goto	u234_20
  7359  0936                     u234_21:	
  7360  0936  293F               	goto	i1l2182
  7361  0937                     u234_20:	
  7362  0937                     i1l2178:	
  7363  0937  3030               	movlw	48
  7364  0938  0221               	subwf	isdigit@c,w
  7365  0939  1C03               	skipc
  7366  093A  293C               	goto	u235_21
  7367  093B  293D               	goto	u235_20
  7368  093C                     u235_21:	
  7369  093C  293F               	goto	i1l2182
  7370  093D                     u235_20:	
  7371  093D                     i1l2180:	
  7372  093D  01A0               	clrf	_isdigit$679
  7373  093E  0AA0               	incf	_isdigit$679,f
  7374  093F                     i1l2182:	
  7375  093F  0C20               	rrf	_isdigit$679,w
  7376  0940                     i1l803:	
  7377  0940  0008               	return
  7378  0941                     __end_of_isdigit:	
  7379                           
  7380                           	psect	text40
  7381  0A6C                     __ptext40:	
  7382 ;; *************** function ___wmul *****************
  7383 ;; Defined at:
  7384 ;;		line 15 in file "C:\Program Files (x86)\Microchip\xc8\v2.10\pic\sources\c90\common\Umul16.c"
  7385 ;; Parameters:    Size  Location     Type
  7386 ;;  multiplier      2    0[BANK0 ] unsigned int 
  7387 ;;  multiplicand    2    2[BANK0 ] unsigned int 
  7388 ;; Auto vars:     Size  Location     Type
  7389 ;;  product         2    4[BANK0 ] unsigned int 
  7390 ;; Return value:  Size  Location     Type
  7391 ;;                  2    0[BANK0 ] unsigned int 
  7392 ;; Registers used:
  7393 ;;		wreg, status,2, status,0
  7394 ;; Tracked objects:
  7395 ;;		On entry : 0/0
  7396 ;;		On exit  : 0/0
  7397 ;;		Unchanged: 0/0
  7398 ;; Data sizes:     COMMON   BANK0   BANK1
  7399 ;;      Params:         0       4       0
  7400 ;;      Locals:         0       2       0
  7401 ;;      Temps:          0       0       0
  7402 ;;      Totals:         0       6       0
  7403 ;;Total ram usage:        6 bytes
  7404 ;; Hardware stack levels used:    1
  7405 ;; This function calls:
  7406 ;;		Nothing
  7407 ;; This function is called by:
  7408 ;;		_atoi
  7409 ;; This function uses a non-reentrant model
  7410 ;;
  7411                           
  7412                           
  7413                           ;psect for function ___wmul
  7414  0A6C                     ___wmul:	
  7415  0A6C                     i1l1940:	
  7416                           ;incstack = 0
  7417 ;; hardware stack exceeded
  7418                           ; Regs used in ___wmul: [wreg+status,2+status,0]
  7419                           
  7420  0A6C  1283               	bcf	3,5	;RP0=0, select bank0
  7421  0A6D  1303               	bcf	3,6	;RP1=0, select bank0
  7422  0A6E  01A4               	clrf	___wmul@product
  7423  0A6F  01A5               	clrf	___wmul@product+1
  7424  0A70                     i1l1942:	
  7425  0A70  1C20               	btfss	___wmul@multiplier,0
  7426  0A71  2A73               	goto	u169_21
  7427  0A72  2A74               	goto	u169_20
  7428  0A73                     u169_21:	
  7429  0A73  2A7A               	goto	i1l341
  7430  0A74                     u169_20:	
  7431  0A74                     i1l1944:	
  7432  0A74  0822               	movf	___wmul@multiplicand,w
  7433  0A75  07A4               	addwf	___wmul@product,f
  7434  0A76  1803               	skipnc
  7435  0A77  0AA5               	incf	___wmul@product+1,f
  7436  0A78  0823               	movf	___wmul@multiplicand+1,w
  7437  0A79  07A5               	addwf	___wmul@product+1,f
  7438  0A7A                     i1l341:	
  7439  0A7A  3001               	movlw	1
  7440  0A7B                     u170_25:	
  7441  0A7B  1003               	clrc
  7442  0A7C  0DA2               	rlf	___wmul@multiplicand,f
  7443  0A7D  0DA3               	rlf	___wmul@multiplicand+1,f
  7444  0A7E  3EFF               	addlw	-1
  7445  0A7F  1D03               	skipz
  7446  0A80  2A7B               	goto	u170_25
  7447  0A81                     i1l1946:	
  7448  0A81  3001               	movlw	1
  7449  0A82                     u171_25:	
  7450  0A82  1003               	clrc
  7451  0A83  0CA1               	rrf	___wmul@multiplier+1,f
  7452  0A84  0CA0               	rrf	___wmul@multiplier,f
  7453  0A85  3EFF               	addlw	-1
  7454  0A86  1D03               	skipz
  7455  0A87  2A82               	goto	u171_25
  7456  0A88                     i1l1948:	
  7457  0A88  0820               	movf	___wmul@multiplier,w
  7458  0A89  0421               	iorwf	___wmul@multiplier+1,w
  7459  0A8A  1D03               	btfss	3,2
  7460  0A8B  2A8D               	goto	u172_21
  7461  0A8C  2A8E               	goto	u172_20
  7462  0A8D                     u172_21:	
  7463  0A8D  2A70               	goto	i1l1942
  7464  0A8E                     u172_20:	
  7465  0A8E                     i1l1950:	
  7466  0A8E  0825               	movf	___wmul@product+1,w
  7467  0A8F  00A1               	movwf	?___wmul+1
  7468  0A90  0824               	movf	___wmul@product,w
  7469  0A91  00A0               	movwf	?___wmul
  7470  0A92                     i1l343:	
  7471  0A92  0008               	return
  7472  0A93                     __end_of___wmul:	
  7473                           
  7474                           	psect	text41
  7475  0ABC                     __ptext41:	
  7476 ;; *************** function _addCharToMaxTemp *****************
  7477 ;; Defined at:
  7478 ;;		line 229 in file "termometroDiferencial.c"
  7479 ;; Parameters:    Size  Location     Type
  7480 ;;  character       1    wreg     unsigned char 
  7481 ;; Auto vars:     Size  Location     Type
  7482 ;;  character       1   17[BANK0 ] unsigned char 
  7483 ;; Return value:  Size  Location     Type
  7484 ;;                  1    wreg      void 
  7485 ;; Registers used:
  7486 ;;		wreg, fsr0l, fsr0h, status,2, status,0, pclath, cstack
  7487 ;; Tracked objects:
  7488 ;;		On entry : 0/0
  7489 ;;		On exit  : 0/0
  7490 ;;		Unchanged: 0/0
  7491 ;; Data sizes:     COMMON   BANK0   BANK1
  7492 ;;      Params:         0       0       0
  7493 ;;      Locals:         0       1       0
  7494 ;;      Temps:          0       1       0
  7495 ;;      Totals:         0       2       0
  7496 ;;Total ram usage:        2 bytes
  7497 ;; Hardware stack levels used:    1
  7498 ;; Hardware stack levels required when called:    3
  7499 ;; This function calls:
  7500 ;;		i1_putCharacter
  7501 ;; This function is called by:
  7502 ;;		_keyboard
  7503 ;; This function uses a non-reentrant model
  7504 ;;
  7505                           
  7506                           
  7507                           ;psect for function _addCharToMaxTemp
  7508  0ABC                     _addCharToMaxTemp:	
  7509                           
  7510                           ;incstack = 0
  7511 ;; hardware stack exceeded
  7512                           ; Regs used in _addCharToMaxTemp: [wreg-fsr0h+status,2+status,0+pclath+cstack]
  7513                           ;addCharToMaxTemp@character stored from wreg
  7514  0ABC  1283               	bcf	3,5	;RP0=0, select bank0
  7515  0ABD  1303               	bcf	3,6	;RP1=0, select bank0
  7516  0ABE  00B1               	movwf	addCharToMaxTemp@character
  7517  0ABF                     i1l2220:	
  7518                           
  7519                           ;termometroDiferencial.c: 231:     if (waiting) {
  7520  0ABF  085B               	movf	_waiting,w
  7521  0AC0  045C               	iorwf	_waiting+1,w
  7522  0AC1  1903               	btfsc	3,2
  7523  0AC2  2AC4               	goto	u238_21
  7524  0AC3  2AC5               	goto	u238_20
  7525  0AC4                     u238_21:	
  7526  0AC4  2AE6               	goto	i1l154
  7527  0AC5                     u238_20:	
  7528  0AC5                     i1l2222:	
  7529                           
  7530                           ;termometroDiferencial.c: 232:         if (cont < 3) {
  7531  0AC5  3000               	movlw	0
  7532  0AC6  025E               	subwf	_cont+1,w
  7533  0AC7  3003               	movlw	3
  7534  0AC8  1903               	skipnz
  7535  0AC9  025D               	subwf	_cont,w
  7536  0ACA  1803               	skipnc
  7537  0ACB  2ACD               	goto	u239_21
  7538  0ACC  2ACE               	goto	u239_20
  7539  0ACD                     u239_21:	
  7540  0ACD  2AE6               	goto	i1l154
  7541  0ACE                     u239_20:	
  7542  0ACE                     i1l2224:	
  7543                           
  7544                           ;termometroDiferencial.c: 233:             maxTempString[cont] = character;
  7545  0ACE  0831               	movf	addCharToMaxTemp@character,w
  7546  0ACF  00B0               	movwf	??_addCharToMaxTemp
  7547  0AD0  085D               	movf	_cont,w
  7548  0AD1  3E5F               	addlw	(low (_maxTempString| 0))& (0+255)
  7549  0AD2  0084               	movwf	4
  7550  0AD3  0830               	movf	??_addCharToMaxTemp,w
  7551  0AD4  1383               	bcf	3,7	;select IRP bank0
  7552  0AD5  0080               	movwf	0
  7553  0AD6                     i1l2226:	
  7554                           
  7555                           ;termometroDiferencial.c: 234:             putCharacter(character, cont);
  7556  0AD6  085E               	movf	_cont+1,w
  7557  0AD7  00AC               	movwf	i1putCharacter@position+1
  7558  0AD8  085D               	movf	_cont,w
  7559  0AD9  00AB               	movwf	i1putCharacter@position
  7560  0ADA  0831               	movf	addCharToMaxTemp@character,w
  7561  0ADB  158A  2222  158A   	fcall	i1_putCharacter
  7562  0ADE                     i1l2228:	
  7563                           
  7564                           ;termometroDiferencial.c: 235:             cont++;
  7565  0ADE  3001               	movlw	1
  7566  0ADF  1283               	bcf	3,5	;RP0=0, select bank0
  7567  0AE0  1303               	bcf	3,6	;RP1=0, select bank0
  7568  0AE1  07DD               	addwf	_cont,f
  7569  0AE2  1803               	skipnc
  7570  0AE3  0ADE               	incf	_cont+1,f
  7571  0AE4  3000               	movlw	0
  7572  0AE5  07DE               	addwf	_cont+1,f
  7573  0AE6                     i1l154:	
  7574  0AE6  0008               	return
  7575  0AE7                     __end_of_addCharToMaxTemp:	
  7576                           
  7577                           	psect	text42
  7578  0A22                     __ptext42:	
  7579 ;; *************** function i1_putCharacter *****************
  7580 ;; Defined at:
  7581 ;;		line 81 in file "termometroDiferencial.c"
  7582 ;; Parameters:    Size  Location     Type
  7583 ;;  character       1    wreg     unsigned char 
  7584 ;;  position        2   11[BANK0 ] int 
  7585 ;; Auto vars:     Size  Location     Type
  7586 ;;  character       1   15[BANK0 ] unsigned char 
  7587 ;; Return value:  Size  Location     Type
  7588 ;;                  1    wreg      void 
  7589 ;; Registers used:
  7590 ;;		wreg, status,2, status,0, pclath, cstack
  7591 ;; Tracked objects:
  7592 ;;		On entry : 0/0
  7593 ;;		On exit  : 0/0
  7594 ;;		Unchanged: 0/0
  7595 ;; Data sizes:     COMMON   BANK0   BANK1
  7596 ;;      Params:         0       2       0
  7597 ;;      Locals:         0       1       0
  7598 ;;      Temps:          0       2       0
  7599 ;;      Totals:         0       5       0
  7600 ;;Total ram usage:        5 bytes
  7601 ;; Hardware stack levels used:    1
  7602 ;; Hardware stack levels required when called:    2
  7603 ;; This function calls:
  7604 ;;		i1_sendNibble
  7605 ;;		i1_turnOnLCD
  7606 ;; This function is called by:
  7607 ;;		_addCharToMaxTemp
  7608 ;; This function uses a non-reentrant model
  7609 ;;
  7610                           
  7611                           
  7612                           ;psect for function i1_putCharacter
  7613  0A22                     i1_putCharacter:	
  7614                           
  7615                           ;incstack = 0
  7616 ;; hardware stack exceeded
  7617                           ; Regs used in i1_putCharacter: [wreg+status,2+status,0+pclath+cstack]
  7618                           ;i1putCharacter@character stored from wreg
  7619  0A22  1283               	bcf	3,5	;RP0=0, select bank0
  7620  0A23  1303               	bcf	3,6	;RP1=0, select bank0
  7621  0A24  00AF               	movwf	i1putCharacter@character
  7622  0A25                     i1l2186:	
  7623                           
  7624                           ;termometroDiferencial.c: 83:     sendNibble(128 + position, 0);
  7625  0A25  082B               	movf	i1putCharacter@position,w
  7626  0A26  3E80               	addlw	128
  7627  0A27  00A1               	movwf	i1sendNibble@n
  7628  0A28  082C               	movf	i1putCharacter@position+1,w
  7629  0A29  1803               	skipnc
  7630  0A2A  3E01               	addlw	1
  7631  0A2B  3E00               	addlw	0
  7632  0A2C  00A2               	movwf	i1sendNibble@n+1
  7633  0A2D  3000               	movlw	0
  7634  0A2E  00A3               	movwf	i1sendNibble@rs
  7635  0A2F  00A4               	movwf	i1sendNibble@rs+1
  7636  0A30  158A  2410  158A   	fcall	i1_sendNibble
  7637                           
  7638                           ;termometroDiferencial.c: 85:     sendNibble(character, 1);
  7639  0A33  1283               	bcf	3,5	;RP0=0, select bank0
  7640  0A34  1303               	bcf	3,6	;RP1=0, select bank0
  7641  0A35  082F               	movf	i1putCharacter@character,w
  7642  0A36  00AD               	movwf	??i1_putCharacter
  7643  0A37  01AE               	clrf	??i1_putCharacter+1
  7644  0A38  082D               	movf	??i1_putCharacter,w
  7645  0A39  00A1               	movwf	i1sendNibble@n
  7646  0A3A  082E               	movf	??i1_putCharacter+1,w
  7647  0A3B  00A2               	movwf	i1sendNibble@n+1
  7648  0A3C  3001               	movlw	1
  7649  0A3D  00A3               	movwf	i1sendNibble@rs
  7650  0A3E  3000               	movlw	0
  7651  0A3F  00A4               	movwf	i1sendNibble@rs+1
  7652  0A40  158A  2410  158A   	fcall	i1_sendNibble
  7653                           
  7654                           ;termometroDiferencial.c: 87:     turnOnLCD();
  7655  0A43  158A  2141  158A   	fcall	i1_turnOnLCD
  7656  0A46                     i1l104:	
  7657  0A46  0008               	return
  7658  0A47                     __end_ofi1_putCharacter:	
  7659                           
  7660                           	psect	text43
  7661  0941                     __ptext43:	
  7662 ;; *************** function i1_turnOnLCD *****************
  7663 ;; Defined at:
  7664 ;;		line 64 in file "termometroDiferencial.c"
  7665 ;; Parameters:    Size  Location     Type
  7666 ;;		None
  7667 ;; Auto vars:     Size  Location     Type
  7668 ;;  turnOnLCD       2    0        int 
  7669 ;;  turnOnLCD       2    0        int 
  7670 ;;  turnOnLCD       2    1[BANK0 ] int 
  7671 ;; Return value:  Size  Location     Type
  7672 ;;                  1    wreg      void 
  7673 ;; Registers used:
  7674 ;;		wreg, status,2, status,0, pclath, cstack
  7675 ;; Tracked objects:
  7676 ;;		On entry : 0/0
  7677 ;;		On exit  : 0/0
  7678 ;;		Unchanged: 0/0
  7679 ;; Data sizes:     COMMON   BANK0   BANK1
  7680 ;;      Params:         0       0       0
  7681 ;;      Locals:         0       6       0
  7682 ;;      Temps:          0       0       0
  7683 ;;      Totals:         0       6       0
  7684 ;;Total ram usage:        6 bytes
  7685 ;; Hardware stack levels used:    1
  7686 ;; Hardware stack levels required when called:    1
  7687 ;; This function calls:
  7688 ;;		i1_flank
  7689 ;; This function is called by:
  7690 ;;		i1_putCharacter
  7691 ;; This function uses a non-reentrant model
  7692 ;;
  7693                           
  7694                           
  7695                           ;psect for function i1_turnOnLCD
  7696  0941                     i1_turnOnLCD:	
  7697  0941                     i1l1832:	
  7698                           ;incstack = 0
  7699 ;; hardware stack exceeded
  7700                           ; Regs used in i1_turnOnLCD: [wreg+status,2+status,0+pclath+cstack]
  7701                           
  7702                           
  7703                           ;termometroDiferencial.c: 66:     int d1 = turnOn >> 2;
  7704  0941  3003               	movlw	3
  7705  0942  1283               	bcf	3,5	;RP0=0, select bank0
  7706  0943  1303               	bcf	3,6	;RP1=0, select bank0
  7707  0944  00A1               	movwf	i1turnOnLCD@d1
  7708  0945  3000               	movlw	0
  7709  0946  00A2               	movwf	i1turnOnLCD@d1+1
  7710                           
  7711                           ;termometroDiferencial.c: 67:     PORTC = d1;
  7712  0947  3003               	movlw	3
  7713  0948  0087               	movwf	7	;volatile
  7714  0949                     i1l1834:	
  7715                           
  7716                           ;termometroDiferencial.c: 68:     RC0 = 0;
  7717  0949  1007               	bcf	7,0	;volatile
  7718  094A                     i1l1836:	
  7719                           
  7720                           ;termometroDiferencial.c: 69:     flank();
  7721  094A  158A  20BB  158A   	fcall	i1_flank
  7722  094D                     i1l1838:	
  7723  094D                     i1l1840:	
  7724                           
  7725                           ;termometroDiferencial.c: 71:     PORTC = d2;
  7726  094D  3038               	movlw	56
  7727  094E  1283               	bcf	3,5	;RP0=0, select bank0
  7728  094F  1303               	bcf	3,6	;RP1=0, select bank0
  7729  0950  0087               	movwf	7	;volatile
  7730  0951                     i1l1842:	
  7731                           
  7732                           ;termometroDiferencial.c: 72:     RC0 = 0;
  7733  0951  1007               	bcf	7,0	;volatile
  7734  0952                     i1l1844:	
  7735                           
  7736                           ;termometroDiferencial.c: 73:     flank();
  7737  0952  158A  20BB  158A   	fcall	i1_flank
  7738  0955                     i1l101:	
  7739  0955  0008               	return
  7740  0956                     __end_ofi1_turnOnLCD:	
  7741                           
  7742                           	psect	text44
  7743  0C10                     __ptext44:	
  7744 ;; *************** function i1_sendNibble *****************
  7745 ;; Defined at:
  7746 ;;		line 47 in file "termometroDiferencial.c"
  7747 ;; Parameters:    Size  Location     Type
  7748 ;;  n               2    1[BANK0 ] int 
  7749 ;;  rs              2    3[BANK0 ] int 
  7750 ;; Auto vars:     Size  Location     Type
  7751 ;;  sendNibble      2    9[BANK0 ] int 
  7752 ;;  sendNibble      2    7[BANK0 ] int 
  7753 ;; Return value:  Size  Location     Type
  7754 ;;                  1    wreg      void 
  7755 ;; Registers used:
  7756 ;;		wreg, status,2, status,0, pclath, cstack
  7757 ;; Tracked objects:
  7758 ;;		On entry : 0/0
  7759 ;;		On exit  : 0/0
  7760 ;;		Unchanged: 0/0
  7761 ;; Data sizes:     COMMON   BANK0   BANK1
  7762 ;;      Params:         0       4       0
  7763 ;;      Locals:         0       4       0
  7764 ;;      Temps:          0       2       0
  7765 ;;      Totals:         0      10       0
  7766 ;;Total ram usage:       10 bytes
  7767 ;; Hardware stack levels used:    1
  7768 ;; Hardware stack levels required when called:    1
  7769 ;; This function calls:
  7770 ;;		i1_flank
  7771 ;; This function is called by:
  7772 ;;		i1_putCharacter
  7773 ;;		i1_clearLCD
  7774 ;; This function uses a non-reentrant model
  7775 ;;
  7776                           
  7777                           
  7778                           ;psect for function i1_sendNibble
  7779  0C10                     i1_sendNibble:	
  7780  0C10                     i1l1818:	
  7781                           ;incstack = 0
  7782 ;; hardware stack exceeded
  7783                           ; Regs used in i1_sendNibble: [wreg+status,2+status,0+pclath+cstack]
  7784                           
  7785                           
  7786                           ;termometroDiferencial.c: 50:     int d1 = n >> 2;
  7787  0C10  1283               	bcf	3,5	;RP0=0, select bank0
  7788  0C11  1303               	bcf	3,6	;RP1=0, select bank0
  7789  0C12  0822               	movf	i1sendNibble@n+1,w
  7790  0C13  00A6               	movwf	??i1_sendNibble+1
  7791  0C14  0821               	movf	i1sendNibble@n,w
  7792  0C15  00A5               	movwf	??i1_sendNibble
  7793  0C16  0D26               	rlf	??i1_sendNibble+1,w
  7794  0C17  0CA6               	rrf	??i1_sendNibble+1,f
  7795  0C18  0CA5               	rrf	??i1_sendNibble,f
  7796  0C19  0D26               	rlf	??i1_sendNibble+1,w
  7797  0C1A  0CA6               	rrf	??i1_sendNibble+1,f
  7798  0C1B  0CA5               	rrf	??i1_sendNibble,f
  7799  0C1C  0825               	movf	??i1_sendNibble,w
  7800  0C1D  00A7               	movwf	i1sendNibble@d1
  7801  0C1E  0826               	movf	??i1_sendNibble+1,w
  7802  0C1F  00A8               	movwf	i1sendNibble@d1+1
  7803                           
  7804                           ;termometroDiferencial.c: 51:     PORTC = d1;
  7805  0C20  0827               	movf	i1sendNibble@d1,w
  7806  0C21  0087               	movwf	7	;volatile
  7807  0C22                     i1l1820:	
  7808                           
  7809                           ;termometroDiferencial.c: 52:     RC0 = rs;
  7810  0C22  1823               	btfsc	i1sendNibble@rs,0
  7811  0C23  2C25               	goto	u152_21
  7812  0C24  2C29               	goto	u152_20
  7813  0C25                     u152_21:	
  7814  0C25  1283               	bcf	3,5	;RP0=0, select bank0
  7815  0C26  1303               	bcf	3,6	;RP1=0, select bank0
  7816  0C27  1407               	bsf	7,0	;volatile
  7817  0C28  2C2C               	goto	u153_24
  7818  0C29                     u152_20:	
  7819  0C29  1283               	bcf	3,5	;RP0=0, select bank0
  7820  0C2A  1303               	bcf	3,6	;RP1=0, select bank0
  7821  0C2B  1007               	bcf	7,0	;volatile
  7822  0C2C                     u153_24:	
  7823  0C2C                     i1l1822:	
  7824                           
  7825                           ;termometroDiferencial.c: 53:     flank();
  7826  0C2C  158A  20BB  158A   	fcall	i1_flank
  7827  0C2F                     i1l1824:	
  7828                           
  7829                           ;termometroDiferencial.c: 55:     int d2 = n << 2;
  7830  0C2F  1283               	bcf	3,5	;RP0=0, select bank0
  7831  0C30  1303               	bcf	3,6	;RP1=0, select bank0
  7832  0C31  0822               	movf	i1sendNibble@n+1,w
  7833  0C32  00A6               	movwf	??i1_sendNibble+1
  7834  0C33  0821               	movf	i1sendNibble@n,w
  7835  0C34  00A5               	movwf	??i1_sendNibble
  7836  0C35  1003               	clrc
  7837  0C36  0DA5               	rlf	??i1_sendNibble,f
  7838  0C37  0DA6               	rlf	??i1_sendNibble+1,f
  7839  0C38  1003               	clrc
  7840  0C39  0DA5               	rlf	??i1_sendNibble,f
  7841  0C3A  0DA6               	rlf	??i1_sendNibble+1,f
  7842  0C3B  0825               	movf	??i1_sendNibble,w
  7843  0C3C  00A9               	movwf	i1sendNibble@d2
  7844  0C3D  0826               	movf	??i1_sendNibble+1,w
  7845  0C3E  00AA               	movwf	i1sendNibble@d2+1
  7846  0C3F                     i1l1826:	
  7847                           
  7848                           ;termometroDiferencial.c: 56:     PORTC = d2;
  7849  0C3F  0829               	movf	i1sendNibble@d2,w
  7850  0C40  0087               	movwf	7	;volatile
  7851  0C41                     i1l1828:	
  7852                           
  7853                           ;termometroDiferencial.c: 57:     RC0 = rs;
  7854  0C41  1823               	btfsc	i1sendNibble@rs,0
  7855  0C42  2C44               	goto	u154_21
  7856  0C43  2C48               	goto	u154_20
  7857  0C44                     u154_21:	
  7858  0C44  1283               	bcf	3,5	;RP0=0, select bank0
  7859  0C45  1303               	bcf	3,6	;RP1=0, select bank0
  7860  0C46  1407               	bsf	7,0	;volatile
  7861  0C47  2C4B               	goto	u155_24
  7862  0C48                     u154_20:	
  7863  0C48  1283               	bcf	3,5	;RP0=0, select bank0
  7864  0C49  1303               	bcf	3,6	;RP1=0, select bank0
  7865  0C4A  1007               	bcf	7,0	;volatile
  7866  0C4B                     u155_24:	
  7867  0C4B                     i1l1830:	
  7868                           
  7869                           ;termometroDiferencial.c: 58:     flank();
  7870  0C4B  158A  20BB  158A   	fcall	i1_flank
  7871  0C4E                     i1l98:	
  7872  0C4E  0008               	return
  7873  0C4F                     __end_ofi1_sendNibble:	
  7874                           
  7875                           	psect	text45
  7876  08BB                     __ptext45:	
  7877 ;; *************** function i1_flank *****************
  7878 ;; Defined at:
  7879 ;;		line 36 in file "termometroDiferencial.c"
  7880 ;; Parameters:    Size  Location     Type
  7881 ;;		None
  7882 ;; Auto vars:     Size  Location     Type
  7883 ;;		None
  7884 ;; Return value:  Size  Location     Type
  7885 ;;                  1    wreg      void 
  7886 ;; Registers used:
  7887 ;;		wreg
  7888 ;; Tracked objects:
  7889 ;;		On entry : 0/0
  7890 ;;		On exit  : 0/0
  7891 ;;		Unchanged: 0/0
  7892 ;; Data sizes:     COMMON   BANK0   BANK1
  7893 ;;      Params:         0       0       0
  7894 ;;      Locals:         0       0       0
  7895 ;;      Temps:          0       1       0
  7896 ;;      Totals:         0       1       0
  7897 ;;Total ram usage:        1 bytes
  7898 ;; Hardware stack levels used:    1
  7899 ;; This function calls:
  7900 ;;		Nothing
  7901 ;; This function is called by:
  7902 ;;		i1_sendNibble
  7903 ;;		i1_turnOnLCD
  7904 ;; This function uses a non-reentrant model
  7905 ;;
  7906                           
  7907                           
  7908                           ;psect for function i1_flank
  7909  08BB                     i1_flank:	
  7910  08BB                     i1l1738:	
  7911                           ;incstack = 0
  7912 ;; hardware stack exceeded
  7913                           ; Regs used in i1_flank: [wreg]
  7914                           
  7915                           
  7916                           ;termometroDiferencial.c: 37:     RC1 = 1;
  7917  08BB  1283               	bcf	3,5	;RP0=0, select bank0
  7918  08BC  1303               	bcf	3,6	;RP1=0, select bank0
  7919  08BD  1487               	bsf	7,1	;volatile
  7920  08BE                     i1l1740:	
  7921                           
  7922                           ;termometroDiferencial.c: 38:     _delay((unsigned long)((1)*(4000000/4000.0)));
  7923  08BE  30C7               	movlw	199
  7924  08BF  1283               	bcf	3,5	;RP0=0, select bank0
  7925  08C0  1303               	bcf	3,6	;RP1=0, select bank0
  7926  08C1  00A0               	movwf	??i1_flank
  7927  08C2                     u344_27:	
  7928  08C2  28C3               	nop2
  7929  08C3  0BA0               	decfsz	??i1_flank,f
  7930  08C4  28C2               	goto	u344_27
  7931  08C5  28C6               	nop2
  7932  08C6  0000               	nop
  7933  08C7                     i1l1742:	
  7934                           
  7935                           ;termometroDiferencial.c: 39:     RC1 = 0;
  7936  08C7  1283               	bcf	3,5	;RP0=0, select bank0
  7937  08C8  1303               	bcf	3,6	;RP1=0, select bank0
  7938  08C9  1087               	bcf	7,1	;volatile
  7939  08CA                     i1l95:	
  7940  08CA  0008               	return
  7941  08CB                     __end_ofi1_flank:	
  7942  007E                     btemp	set	126	;btemp
  7943  007E                     wtemp0	set	126


Data Sizes:
    Strings     28
    Constant    10
    Data        16
    BSS         11
    Persistent  0
    Stack       0

Auto Spaces:
    Space          Size  Autos    Used
    COMMON            0      0       0
    BANK0            94     49      68
    BANK1            94     64      72

Pointer List with Targets:

    strlen@s	PTR const unsigned char  size(2) Largest target is 512
		 -> RAM(DATA[512]), showDifferenceTemp@tempDifference(BANK1[5]), send@msg(BANK0[8]), STR_4(CODE[20]), 
		 -> STR_3(CODE[20]), 

    strlen@cp	PTR const unsigned char  size(2) Largest target is 512
		 -> RAM(DATA[512]), showDifferenceTemp@tempDifference(BANK1[5]), send@msg(BANK0[8]), STR_4(CODE[20]), 
		 -> STR_3(CODE[20]), 

    strcat@from	PTR const unsigned char  size(1) Largest target is 3
		 -> STR_2(CODE[3]), 

    strcat@to	PTR unsigned char  size(1) Largest target is 12
		 -> getTemperatureString@str(BANK1[12]), 

    strcat@cp	PTR unsigned char  size(1) Largest target is 12
		 -> getTemperatureString@str(BANK1[12]), 

    memset@p1	PTR void  size(1) Largest target is 5
		 -> maxTempString(BANK0[5]), 

    memset@p	PTR unsigned char  size(1) Largest target is 5
		 -> maxTempString(BANK0[5]), 

    atoi@s	PTR const unsigned char  size(1) Largest target is 5
		 -> maxTempString(BANK0[5]), 

    sprintf@f	PTR const unsigned char  size(1) Largest target is 5
		 -> STR_6(CODE[5]), STR_5(CODE[5]), STR_1(CODE[3]), 

    sprintf@sp	PTR unsigned char  size(1) Largest target is 12
		 -> showDifferenceTemp@tempDifference(BANK1[5]), getTemperatureString@str(BANK1[12]), 

    sprintf@ap	PTR void [1] size(1) Largest target is 2
		 -> ?_sprintf(BANK0[2]), 

    turnOnSerialAlarm@message	PTR unsigned char  size(1) Largest target is 8
		 -> send@msg(BANK0[8]), 

    sp__memset	PTR void  size(1) Largest target is 5
		 -> maxTempString(BANK0[5]), 

    sp__strcat	PTR unsigned char  size(1) Largest target is 12
		 -> getTemperatureString@str(BANK1[12]), 

    writeOnLCD@word	PTR unsigned char  size(2) Largest target is 512
		 -> RAM(DATA[512]), showDifferenceTemp@tempDifference(BANK1[5]), STR_4(CODE[20]), STR_3(CODE[20]), 

    writeWord@word	PTR unsigned char  size(2) Largest target is 512
		 -> RAM(DATA[512]), showDifferenceTemp@tempDifference(BANK1[5]), STR_4(CODE[20]), STR_3(CODE[20]), 


Critical Paths under _main in COMMON

    None.

Critical Paths under _globalInterruption in COMMON

    None.

Critical Paths under _main in BANK0

    _getTemperatureString->___fltol
    _sprintf->___lwmod
    ___lwmod->___lwdiv
    _send->_turnOnSerialAlarm
    _turnOnSerialAlarm->_strlen
    _getTemperatureInt->___fltol
    ___xxtofl->_getVoltaje
    ___fltol->___flmul
    ___flmul->___xxtofl
    _configThermo->_sendNibble
    _writeWord->_putCharacter
    _putCharacter->_sendNibble
    _turnOnLCD->_flank
    _clearLCD->_sendNibble
    _sendNibble->_flank

Critical Paths under _globalInterruption in BANK0

    _globalInterruption->_keyboard
    _keyboard->_addCharToMaxTemp
    i1_clearLCD->i1_sendNibble
    _atoi->___wmul
    _addCharToMaxTemp->i1_putCharacter
    i1_putCharacter->i1_sendNibble
    i1_turnOnLCD->i1_flank
    i1_sendNibble->i1_flank

Critical Paths under _main in BANK1

    _main->_showDifferenceTemp
    _showTemp->_writeOnLCD
    _getTemperatureString->___fltol
    _showDifferenceTemp->_writeOnLCD
    _getTemperatureInt->___fltol
    ___fltol->___flmul
    _configTempMode->_writeOnLCD
    _writeOnLCD->_getTemperatureString

Critical Paths under _globalInterruption in BANK1

    None.

Call Graph Tables:

 ---------------------------------------------------------------------------------
 (Depth) Function   	        Calls       Base Space   Used Autos Params    Refs
 ---------------------------------------------------------------------------------
 (0) _main                                                 4     4      0   26466
                                             60 BANK1      4     4      0
                           _clearLCD
                     _configKeyboard
                   _configSerialPort
                     _configTempMode
                       _configThermo
                 _showDifferenceTemp
                           _showTemp
                               _wait
 ---------------------------------------------------------------------------------
 (1) _wait                                                 0     0      0       0
 ---------------------------------------------------------------------------------
 (1) _showTemp                                             4     4      0   13713
                                             47 BANK1      4     4      0
               _ZeroSequenceKeyboard
                  _getTemperatureInt
               _getTemperatureString
                            _isItHot
                               _send
                         _writeOnLCD
 ---------------------------------------------------------------------------------
 (2) _getTemperatureString                                15    15      0    6798
                                             30 BANK1     15    15      0
                            ___flmul
                            ___fltol
                           ___xxtofl
                         _getVoltaje
                            _sprintf
                             _strcat
 ---------------------------------------------------------------------------------
 (3) _strcat                                               4     3      1     207
                                             26 BANK0      4     3      1
 ---------------------------------------------------------------------------------
 (1) _showDifferenceTemp                                  13    13      0    9476
                                             47 BANK1     13    13      0
               _ZeroSequenceKeyboard
           _changeThermometerChannel
                  _getTemperatureInt
                            _isItHot
                               _send
                            _sprintf
                         _writeOnLCD
 ---------------------------------------------------------------------------------
 (3) _sprintf                                             21    18      3    1907
                                             40 BANK0      6     3      3
                                              0 BANK1      7     7      0
                            ___lwdiv
                            ___lwmod
 ---------------------------------------------------------------------------------
 (4) ___lwmod                                              6     2      4     412
                                             34 BANK0      6     2      4
                            ___lwdiv (ARG)
 ---------------------------------------------------------------------------------
 (4) ___lwdiv                                              8     4      4     421
                                             26 BANK0      8     4      4
 ---------------------------------------------------------------------------------
 (2) _send                                                12    12      0     390
                                             34 BANK0     12    12      0
                  _turnOnSerialAlarm
 ---------------------------------------------------------------------------------
 (3) _turnOnSerialAlarm                                    4     4      0     365
                                             30 BANK0      4     4      0
                             _strlen
 ---------------------------------------------------------------------------------
 (2) _isItHot                                              4     2      2     174
                                             26 BANK0      4     2      2
 ---------------------------------------------------------------------------------
 (2) _getTemperatureInt                                    4     2      2    4558
                                             30 BANK1      4     2      2
                            ___flmul
                            ___fltol
                           ___xxtofl
                         _getVoltaje
 ---------------------------------------------------------------------------------
 (3) _getVoltaje                                           2     0      2       0
                                             26 BANK0      2     0      2
 ---------------------------------------------------------------------------------
 (3) ___xxtofl                                            14    10      4     474
                                             28 BANK0     14    10      4
                         _getVoltaje (ARG)
 ---------------------------------------------------------------------------------
 (3) ___fltol                                             11     7      4     517
                                             47 BANK0      2     2      0
                                             21 BANK1      9     5      4
                            ___flmul (ARG)
                           ___xxtofl (ARG)
                         _getVoltaje (ARG)
 ---------------------------------------------------------------------------------
 (3) ___flmul                                             26    18      8    3533
                                             42 BANK0      5     5      0
                                              0 BANK1     21    13      8
                          __Umul8_16
                           ___xxtofl (ARG)
                         _getVoltaje (ARG)
 ---------------------------------------------------------------------------------
 (4) __Umul8_16                                            9     7      2     980
                                             26 BANK0      9     7      2
 ---------------------------------------------------------------------------------
 (2) _changeThermometerChannel                             2     0      2     274
                                             26 BANK0      2     0      2
 ---------------------------------------------------------------------------------
 (1) _configThermo                                         0     0      0     742
                         _sendNibble
 ---------------------------------------------------------------------------------
 (1) _configTempMode                                       0     0      0    1759
               _ZeroSequenceKeyboard
                         _writeOnLCD
 ---------------------------------------------------------------------------------
 (2) _writeOnLCD                                           2     0      2    1759
                                             45 BANK1      2     0      2
               _getTemperatureString (ARG)
                          _writeWord
 ---------------------------------------------------------------------------------
 (3) _writeWord                                            4     2      2    1433
                                             42 BANK0      4     2      2
                       _putCharacter
                             _strlen
 ---------------------------------------------------------------------------------
 (4) _strlen                                               4     2      2     242
                                             26 BANK0      4     2      2
 ---------------------------------------------------------------------------------
 (4) _putCharacter                                         5     3      2    1003
                                             37 BANK0      5     3      2
                         _sendNibble
                          _turnOnLCD
 ---------------------------------------------------------------------------------
 (5) _turnOnLCD                                            6     6      0      91
                                             27 BANK0      6     6      0
                              _flank
 ---------------------------------------------------------------------------------
 (2) _ZeroSequenceKeyboard                                 0     0      0       0
 ---------------------------------------------------------------------------------
 (1) _configSerialPort                                     0     0      0       0
 ---------------------------------------------------------------------------------
 (1) _configKeyboard                                       0     0      0       0
 ---------------------------------------------------------------------------------
 (1) _clearLCD                                             0     0      0     742
                         _sendNibble
 ---------------------------------------------------------------------------------
 (5) _sendNibble                                          10     6      4     742
                                             27 BANK0     10     6      4
                              _flank
 ---------------------------------------------------------------------------------
 (6) _flank                                                1     1      0       0
                                             26 BANK0      1     1      0
 ---------------------------------------------------------------------------------
 Estimated maximum stack depth 6
 ---------------------------------------------------------------------------------
 (Depth) Function   	        Calls       Base Space   Used Autos Params    Refs
 ---------------------------------------------------------------------------------
 (7) _globalInterruption                                   6     6      0    1713
                                             20 BANK0      6     6      0
                           _keyboard
 ---------------------------------------------------------------------------------
 (8) _keyboard                                             2     2      0    1713
                                             18 BANK0      2     2      0
                   _addCharToMaxTemp
                               _atoi
                       _clearIfFirst
                             _memset
         i1_changeThermometerChannel
 ---------------------------------------------------------------------------------
 (9) i1_changeThermometerChannel                           2     0      2      74
                                              0 BANK0      2     0      2
 ---------------------------------------------------------------------------------
 (9) _memset                                               7     3      4     281
                                              0 BANK0      7     3      4
 ---------------------------------------------------------------------------------
 (9) _clearIfFirst                                         0     0      0     290
                         i1_clearLCD
 ---------------------------------------------------------------------------------
 (10) i1_clearLCD                                          0     0      0     290
                       i1_sendNibble
 ---------------------------------------------------------------------------------
 (9) _atoi                                                 8     6      2     573
                                              6 BANK0      8     6      2
                             ___wmul
                            _isdigit
 ---------------------------------------------------------------------------------
 (10) _isdigit                                             2     2      0      68
                                              0 BANK0      2     2      0
 ---------------------------------------------------------------------------------
 (10) ___wmul                                              6     2      4     244
                                              0 BANK0      6     2      4
 ---------------------------------------------------------------------------------
 (9) _addCharToMaxTemp                                     2     2      0     495
                                             16 BANK0      2     2      0
                     i1_putCharacter
 ---------------------------------------------------------------------------------
 (10) i1_putCharacter                                      5     3      2     451
                                             11 BANK0      5     3      2
                       i1_sendNibble
                        i1_turnOnLCD
 ---------------------------------------------------------------------------------
 (11) i1_turnOnLCD                                         6     6      0      91
                                              1 BANK0      6     6      0
                            i1_flank
 ---------------------------------------------------------------------------------
 (11) i1_sendNibble                                       10     6      4     290
                                              1 BANK0     10     6      4
                            i1_flank
 ---------------------------------------------------------------------------------
 (12) i1_flank                                             1     1      0       0
                                              0 BANK0      1     1      0
 ---------------------------------------------------------------------------------
 Estimated maximum stack depth 12
 ---------------------------------------------------------------------------------

 Call Graph Graphs:

 _main (ROOT)
   _clearLCD
     _sendNibble
       _flank
   _configKeyboard
   _configSerialPort
   _configTempMode
     _ZeroSequenceKeyboard
     _writeOnLCD
       _getTemperatureString (ARG)
         ___flmul
           __Umul8_16
           ___xxtofl (ARG)
             _getVoltaje (ARG)
           _getVoltaje (ARG)
         ___fltol
           ___flmul (ARG)
             __Umul8_16
             ___xxtofl (ARG)
               _getVoltaje (ARG)
             _getVoltaje (ARG)
           ___xxtofl (ARG)
             _getVoltaje (ARG)
           _getVoltaje (ARG)
         ___xxtofl
           _getVoltaje (ARG)
         _getVoltaje
         _sprintf
           ___lwdiv
           ___lwmod
             ___lwdiv (ARG)
         _strcat
       _writeWord (ARG)
         _putCharacter
           _sendNibble
             _flank
           _turnOnLCD
             _flank
         _strlen
   _configThermo
     _sendNibble
       _flank
   _showDifferenceTemp
     _ZeroSequenceKeyboard
     _changeThermometerChannel
     _getTemperatureInt
       ___flmul
         __Umul8_16
         ___xxtofl (ARG)
           _getVoltaje (ARG)
         _getVoltaje (ARG)
       ___fltol
         ___flmul (ARG)
           __Umul8_16
           ___xxtofl (ARG)
             _getVoltaje (ARG)
           _getVoltaje (ARG)
         ___xxtofl (ARG)
           _getVoltaje (ARG)
         _getVoltaje (ARG)
       ___xxtofl
         _getVoltaje (ARG)
       _getVoltaje
     _isItHot
     _send
       _turnOnSerialAlarm
         _strlen
     _sprintf
       ___lwdiv
       ___lwmod
         ___lwdiv (ARG)
     _writeOnLCD
       _getTemperatureString (ARG)
         ___flmul
           __Umul8_16
           ___xxtofl (ARG)
             _getVoltaje (ARG)
           _getVoltaje (ARG)
         ___fltol
           ___flmul (ARG)
             __Umul8_16
             ___xxtofl (ARG)
               _getVoltaje (ARG)
             _getVoltaje (ARG)
           ___xxtofl (ARG)
             _getVoltaje (ARG)
           _getVoltaje (ARG)
         ___xxtofl
           _getVoltaje (ARG)
         _getVoltaje
         _sprintf
           ___lwdiv
           ___lwmod
             ___lwdiv (ARG)
         _strcat
       _writeWord (ARG)
         _putCharacter
           _sendNibble
             _flank
           _turnOnLCD
             _flank
         _strlen
   _showTemp
     _ZeroSequenceKeyboard
     _getTemperatureInt
       ___flmul
         __Umul8_16
         ___xxtofl (ARG)
           _getVoltaje (ARG)
         _getVoltaje (ARG)
       ___fltol
         ___flmul (ARG)
           __Umul8_16
           ___xxtofl (ARG)
             _getVoltaje (ARG)
           _getVoltaje (ARG)
         ___xxtofl (ARG)
           _getVoltaje (ARG)
         _getVoltaje (ARG)
       ___xxtofl
         _getVoltaje (ARG)
       _getVoltaje
     _getTemperatureString
       ___flmul
         __Umul8_16
         ___xxtofl (ARG)
           _getVoltaje (ARG)
         _getVoltaje (ARG)
       ___fltol
         ___flmul (ARG)
           __Umul8_16
           ___xxtofl (ARG)
             _getVoltaje (ARG)
           _getVoltaje (ARG)
         ___xxtofl (ARG)
           _getVoltaje (ARG)
         _getVoltaje (ARG)
       ___xxtofl
         _getVoltaje (ARG)
       _getVoltaje
       _sprintf
         ___lwdiv
         ___lwmod
           ___lwdiv (ARG)
       _strcat
     _isItHot
     _send
       _turnOnSerialAlarm
         _strlen
     _writeOnLCD
       _getTemperatureString (ARG)
         ___flmul
           __Umul8_16
           ___xxtofl (ARG)
             _getVoltaje (ARG)
           _getVoltaje (ARG)
         ___fltol
           ___flmul (ARG)
             __Umul8_16
             ___xxtofl (ARG)
               _getVoltaje (ARG)
             _getVoltaje (ARG)
           ___xxtofl (ARG)
             _getVoltaje (ARG)
           _getVoltaje (ARG)
         ___xxtofl
           _getVoltaje (ARG)
         _getVoltaje
         _sprintf
           ___lwdiv
           ___lwmod
             ___lwdiv (ARG)
         _strcat
       _writeWord (ARG)
         _putCharacter
           _sendNibble
             _flank
           _turnOnLCD
             _flank
         _strlen
   _wait

 _globalInterruption (ROOT)
   _keyboard
     _addCharToMaxTemp
       i1_putCharacter
         i1_sendNibble
           i1_flank
         i1_turnOnLCD
           i1_flank
     _atoi
       ___wmul
       _isdigit
     _clearIfFirst
       i1_clearLCD
         i1_sendNibble
           i1_flank
     _memset
     i1_changeThermometerChannel

 Address spaces:
Name               Size   Autos  Total    Cost      Usage
SFR3                 0      0       0       4        0.0%
BITSFR3              0      0       0       4        0.0%
SFR2                 0      0       0       5        0.0%
BITSFR2              0      0       0       5        0.0%
BANK1               5E     40      48       6       76.6%
BITBANK1            5E      0       0       5        0.0%
SFR1                 0      0       0       2        0.0%
BITSFR1              0      0       0       2        0.0%
BANK0               5E     31      44       4       72.3%
BITBANK0            5E      0       0       3        0.0%
SFR0                 0      0       0       1        0.0%
BITSFR0              0      0       0       1        0.0%
COMMON               0      0       0       1        0.0%
BITCOMMON            0      0       0       0        0.0%
CODE                 0      0       0       0        0.0%
DATA                 0      0      8C       8        0.0%
ABS                  0      0      8C       7        0.0%
NULL                 0      0       0       0        0.0%
STACK                0      0       0       2        0.0%
EEDATA              80      0       0       0        0.0%


Microchip Technology PIC Macro Assembler V2.10 build 88905656 
Symbol Table                                                                                   Fri Mar 13 22:35:43 2020

                                  pc 0002                                   l90 0002  
                                 l95 08EA                                   l89 0002  
                                 _GO 00FA                                   l98 0C8D  
                                 fsr 0004                  ___wmul@multiplicand 0022  
                __Umul8_16@word_mpld 0040                                  l101 096A  
                                l110 0BA0                                  l104 0A6B  
                                l113 08FA                                  l122 087A  
                                l210 0F43                                  l131 090A  
                                l116 08AD                                  l140 07FF  
                                l204 099E                                  l125 091B  
                                l213 0BC2                                  l134 0D20  
                                l214 0BD3                                  l222 07E8  
                                l119 0982                                  l128 08FE  
                                l209 0F37                                  l137 0D8C  
                                l147 08B9                                  l227 07F3  
                                l149 08BA                                  l190 09BB  
                                l337 06AB                                  l187 0B6D  
                                l195 0AED                                  l613 0CD3  
                                l534 0E86                                  l527 0E9D  
                                l199 0B12                                  l623 0C0F  
                                l537 0E9D                                  l730 057C  
                         i1_clearLCD 0887                                  l830 0ABB  
                                l742 056C                                  l824 0A21  
                                l736 04BE                                  l770 0FFF  
                                l818 0B3F                                  l828 0AA9  
                                l781 0FC9                                  l782 0FD5  
                                l774 0FAD                                  l768 0F68  
                                _GIE 005F                                  _RC0 0038  
                                _RC1 0039                                  fsr0 0004  
                                indf 0000                        writeWord@word 004A  
                       ___flmul@aexp 00A9                         ___flmul@bexp 00AE  
                __end_ofi1_turnOnLCD 0956                         ___flmul@sign 00A8  
                       ___flmul@temp 00B3                         ___flmul@prod 00AF  
                  ?_addCharToMaxTemp 0020               __end_ofi1_putCharacter 0A47  
                       ___fltol@exp1 0050                                 l2130 0F47  
                               l2300 090B                                 l2132 0F4C  
                               l2310 0916                                 l2302 090E  
                               l2150 0F96                                 l2142 0F79  
                               l2134 0F50                                 l2312 0917  
                               l2304 0911                                 l2208 07F5  
                               l2400 0B69                                 l2216 08AE  
                               l2160 0FCD                                 l2152 0FA4  
                               l2144 0F7E                                 l2136 0F60  
                               l2314 0918                                 l2306 0912  
                               l2218 08B7                                 l2170 0FF7  
                               l2162 0FD7                                 l2154 0FB4  
                               l2146 0F8B                                 l2138 0F70  
                               l2316 0919                                 l2308 0915  
                               l2164 0FED                                 l2156 0FBF  
                               l2148 0F92                                 l1710 0C4F  
                               l2190 08EB                                 l2166 0FF2  
                               l2158 0FC3                                 l1704 08DB  
                               l1720 0C80                                 l1712 0C61  
                               l2168 0FF6                                 l2272 099F  
                               l2520 0C8E                                 l2600 05D7  
                               l1706 08DE                                 l1722 0C8A  
                               l1714 0C6B                                 l1730 0962  
                               l2290 0978                                 l2530 0CA6  
                               l2522 0C92                                 l2602 05DB  
                               l1708 08E7                                 l1716 0C6E  
                               l2284 08A1                                 l2292 0871  
                               l1732 0962                                 l1724 0956  
                               l2700 0079                                 l2276 0983  
                               l2540 0CC9                                 l2532 0CAA  
                               l2524 0C98                                 l2620 061E  
                               l2612 05EA                                 l2604 05E3  
                               l1718 0C7E                                 l2294 0877  
                               l1734 0966                                 l1726 095E  
                               l1750 0A0D                                 l2286 096B  
                               l2710 0092                                 l2702 0083  
                               l2278 099A                                 l2534 0CBB  
                               l2526 0C9B                                 l2542 0CCF  
                               l2550 0BDF                                 l2630 067F  
                               l2622 062B                                 l2606 05E8  
                               l2296 0878                                 l1736 0967  
                               l1728 095F                                 l1744 0A4A  
                               l1752 0A19                                 l2392 0B40  
                               l2288 0977                                 l2800 0524  
                               l2720 00AE                                 l2712 009A  
                               l2704 0087                                 l2536 0CC1  
                               l2528 0CA2                                 l2560 0BFE  
                               l2552 0BE6                                 l2632 0685  
                               l2624 0631                                 l2616 060A  
                               l2298 0879                                 l1746 0A00  
                               l1850 0B85                                 l2394 0B53  
                               l2570 0A98                                 l2810 055C  
                               l2802 052F                                 l2730 0121  
                               l2714 009C                                 l2706 0088  
                               l2650 0E26                                 l2538 0CC2  
                               l2562 0C05                                 l2554 0BEA  
                               l2546 0BD4                                 l2626 063A  
                               l2618 0618                                 l2634 0692  
                               l1930 0B30                                 l1922 0B16  
                               l1748 0A07                                 l1852 0B8D  
                               l2396 0B56                                 l2572 0A9F  
                               l2812 0560                                 l2804 053E  
                               l2740 0208                                 l2732 0151  
                               l2724 00B7                                 l2716 00A4  
                               l2708 008D                                 l2660 0E52  
                               l2652 0E3F                                 l2644 0E0C  
                               l2820 0CD4                                 l1932 0AEA  
                               l2556 0BEE                                 l2548 0BDC  
                               l2564 0C0B                                 l2628 0672  
                               l2636 06A5                                 l1924 0B1B  
                               l2900 07F0                                 l1846 0B6E  
                               l2398 0B5E                                 l2574 0AA3  
                               l2814 0561                                 l2806 0548  
                               l2750 02CD                                 l2742 0222  
                               l2734 0199                                 l2726 00CF  
                               l2718 00A9                                 l2654 0E42  
                               l2646 0E1B                                 l1854 08FB  
                               l2822 0D1C                                 l1934 0AF1  
                               l2558 0BF8                                 l2590 05A3  
                               l2582 0580                                 l1926 0B1F  
                               l2830 0D7F                                 l1848 0B73  
                               l2576 0AB2                                 l2568 0A96  
                               l2816 0574                                 l2808 054A  
                               l2760 03F2                                 l2752 0302  
                               l2744 0257                                 l2736 01C9  
                               l2728 00EC                                 l2680 003A  
                               l2656 0E4A                                 l1856 0902  
                               l1936 0AF9                                 l2584 0589  
                               l2840 0EB1                                 l1928 0B28  
                               l2832 0D8B                                 l2578 0AB7  
                               l2770 0476                                 l2762 043A  
                               l2754 034F                                 l2746 026F  
                               l2738 01F9                                 l2690 0059  
                               l2682 0045                                 l2674 0E77  
                               l2666 0E5A                                 l2658 0E4E  
                               l1938 0AFF                                 l2594 05A4  
                               l2586 058F                                 l2850 0EE8  
                               l2842 0EBA                                 l2826 0D21  
                               l2780 0493                                 l2772 0477  
                               l2764 0449                                 l2756 0367  
                               l2748 02A4                                 l2692 005E  
                               l2684 004F                                 l2676 0E8B  
                               l2668 0E70                                 l2596 05C5  
                               l2588 059C                                 l2860 0F40  
                               l2852 0EFF                                 l2844 0EC3  
                               l2836 0E9E                                 l2828 0D69  
                               l2790 04CA                                 l2782 0497  
                               l2774 0486                                 l2766 0461  
                               l2758 03B4                                 l2694 0066  
                               l2686 0053                                 l2678 0E90  
                               l2598 05CF                                 l2854 0F07  
                               l2846 0ED6                                 l2838 0EA7  
                               l2862 0BA1                                 l2870 0796  
                               l2792 04D8                                 l2784 04B9  
                               l2768 0470                                 l2776 048E  
                               l2696 0068                                 l2688 0054  
                               l2944 05BA                                 l2856 0F1D  
                               l2848 0EE0                                 l2864 0BAA  
                               l2880 07B3                                 l2872 079F  
                               l2794 04DC                                 l2778 0492  
                               l2698 0070                                 l2858 0F34  
                               l2866 0BBF                                 l2890 07D0  
                               l2882 07B8                                 l2874 07A6  
                               l2796 0511                                 l2788 04C5  
                               l2868 0BD0                                 l2892 07D6  
                               l2884 07BE                                 l2876 07AC  
                               l2798 0517                                 l2894 07E1  
                               l2886 07C9                                 l2878 07AF  
                               l2896 07E4                                 l2888 07CC  
                               l2898 07E8                                 _CHS0 00FB  
                               STR_1 0833                                 STR_2 0830  
                               STR_3 081A                                 STR_4 081A  
                               STR_5 082E                                 STR_6 082E  
                               _BRGH 04C2                                 _CREN 00C4  
                               u1310 0C68                                 u1311 0C64  
                               u3000 00A9                                 u2200 0F4C  
                               u3001 00A8                                 u2201 0F4B  
                               u1330 0C87                                 u3010 00AE  
                               u2210 0F50                                 u1331 0C83  
                               u3011 00AD                                 u2211 0F4F  
                               u1324 0C6B                                 u2300 0FCD  
                               u2220 0F70                                 u3101 02E8  
                               u3021 0137                                 u2301 0FCC  
                               u2221 0F6F                                 u1350 0A19  
                               u3102 02F3                                 u3022 0142  
                               u2310 0FE2                                 u1351 0A18  
                               u3111 0335                                 u3103 02FE  
                               u3031 0167                                 u3023 014D  
                               u1344 0C8A                                 u3112 0340  
                               u3032 0172                                 u2320 0FF2  
                               u2240 0F91                                 u3121 0382  
                               u3113 034B                                 u3041 01AF  
                               u3033 017D                                 u2321 0FF1  
                               u2241 0F90                                 u3210 0492  
                               u3130 03C6                                 u3122 038D  
                               u3042 01BA                                 u2330 0FF6  
                               u3211 0491                                 u3123 0398  
                               u3051 01DF                                 u3043 01C5  
                               u2331 0FF5                                 u2315 0FDD  
                               u2235 0F83                                 u3300 0560  
                               u3220 0497                                 u3052 01EA  
                               u2260 0FB3                                 u3301 055F  
                               u3221 0496                                 u3205 047B  
                               u3141 03D8                                 u3053 01F5  
                               u2261 0FB2                                 u2510 0B5E  
                               u3230 04B9                                 u3150 040E  
                               u3142 03E3                                 u3310 0EE0  
                               u2511 0B5D                                 u3231 04B8  
                               u3143 03EE                                 u3135 03C1  
                               u3071 023D                                 u2255 0FA5  
                               u3311 0EDF                                 u1560 0BA0  
                               u2520 0B69                                 u3240 04C4  
                               u3072 0248                                 u2280 0FC3  
                               u3320 0F34                                 u1561 0B9F  
                               u2521 0B68                                 u3241 04C3  
                               u3161 0420                                 u3081 028A  
                               u3073 0253                                 u3065 01FD  
                               u2281 0FC2                                 u3321 0F33  
                 ??_addCharToMaxTemp 0030                                 u2370 08B7  
                               u3250 04CA                                 u3162 042B  
                               u3082 0295                                 u2290 0FC9  
                               u1570 0902                                 u2610 0C98  
                               u1650 0B27                                 u3330 0BBF  
                               u2371 08B6                                 u3251 04C9  
                               u3163 0436                                 u3155 0409  
                               u3083 02A0                                 u2291 0FC8  
                               u2275 0FB8                                 u1571 0901  
                               u2611 0C97                                 u3315 0EDC  
                               u1651 0B26                                 u3331 0BBE  
                               u3260 04DC                                 u2700 0BEE  
                               u1660 0B3F                                 u3340 07AC  
                               u1565 0B9C                                 u3261 04DB  
                               u2701 0BED                                 u1661 0B3E  
                               u3341 07AB                                 u3270 04F9  
                               u3190 0476                                 u2470 09B2  
                               u1670 0AF1                                 u2630 0CAA  
                               u2710 0BF8                                 u3350 07BE  
                               u3191 0475                                 u3175 043E  
                               u3095 02A8                                 u2471 09B0  
                               u1671 0AF0                                 u2631 0CA9  
                               u2711 0BF7                                 u3407 0EAD  
                               u3351 07BD                                 u3280 0524  
                               u2480 09B3                                 u1680 0B12  
                               u2800 0618                                 u3360 07D6  
                               u3281 0523                                 u3185 0465  
                               u1681 0B11                                 u2625 0C9C  
                               u2801 0617                                 u3417 0EC9  
                               u3361 07D5                                 u3290 053E  
                               u2490 098D                                 u2650 0CBB  
                               u2730 0C0B                                 u2810 061E  
                               u3370 07F0                                 u3427 08E2  
                               u3291 053D                                 u3275 04F4  
                               u2475 09AD                                 u2651 0CBA  
                               u2731 0C0A                                 u2715 0BF4  
                               u2811 061D                                 u3371 07EF  
                               u2740 0AA3                                 u2900 0E76  
                               u2820 0692                                 u2741 0AA2  
                               u3285 0520                                 u2901 0E75  
                               u1685 0B0E                                 u2645 0CAB  
                               u2725 0BFF                                 u2821 0691  
                               u2670 0CCF                                 u2830 06A5  
                               u3295 053A                                 u2671 0CCE  
                               u2655 0CB7                                 u2831 06A4  
                               u2760 0AB7                                 u2920 0E8B  
                               u2840 0E1B                                 u2680 0BDC  
                               u2761 0AB6                                 u2921 0E8A  
                               u2841 0E1A                                 u2665 0CC3  
                               u2681 0BDB                                 u2930 0E90  
                               u2850 0E36                                 u2770 058F  
                               u2755 0AAA                                 u2931 0E8F  
                               u2915 0E7B                                 u2771 058E  
                               u3387 07C4                                 u2940 0053  
                               u2860 0E52                                 u2780 05DB  
                               u2941 0052                                 u2861 0E51  
                               u2781 05DA                                 u3397 07DC  
                               u2950 0059                                 u2870 0E59  
                               u2790 0609                                 u2951 0058  
                               u2871 0E58                                 u2855 0E31  
                               u2695 0BE0                                 u2791 0608  
                               _RBIE 005B                                 u2960 005E  
                               _RBIF 0058                                 u2961 005D  
                               u2970 0087                                 u2890 0E6F  
                               u2971 0086                                 u2891 0E6E  
                               u2795 0605                                 _RCIE 0465  
                               u2980 008D                                 u2981 008C  
                               u2885 0E5B                                 u2990 0092  
                               u2991 0091                                 i1l95 08CA  
                               i1l98 0C4E                                 _SPEN 00C7  
                               _TXIE 0464                                 _TXEN 04C5  
                               _TXIF 0064                                 _SYNC 04C4  
                     ??_configThermo 0000                                 _atoi 0D8D  
                               _cont 005D                                 _main 0796  
                               _send 0983                                 _wait 0002  
                               btemp 007E                      __end_ofi1_flank 08CB  
                               start 000F                          main@running 00DE  
               __end_of_clearIfFirst 08DB              showDifferenceTemp@temp1 00D6  
            showDifferenceTemp@temp2 00D8                        ___fltol@sign1 004F  
                              ?_atoi 0026                                _ADCS0 00FE  
                              ?_main 0020                                ?_send 0020  
                              ?_wait 0020                      __end_of___flmul 057D  
                    __end_of___fltol 0E9E                      __end_of___lwdiv 0CD4  
                              i1l101 0955                                i1l104 0A46  
                              i1l116 0893                                i1l144 08DA  
                              i1l154 0AE6                                i1l147 089F  
                              i1l180 09F5                                i1l341 0A7A  
                              i1l149 08A0                                i1l174 0795  
                              i1l343 0A92                      __end_of___lwmod 0C10  
                              i1l803 0940                                i1l809 09DD  
                              i1l798 0E0B                                _SPBRG 0099  
                              _PORTB 0006                                _PORTC 0007  
         __size_of_turnOnSerialAlarm 002C                                _TRISA 0085  
                              _TRISB 0086                                _TRISC 0087  
                              _TXREG 0019                 _getTemperatureString 0D21  
          __size_of_configSerialPort 0011                      __end_of_isItHot 09BC  
                              _clear 0059                                _flank 08DB  
                    __end_of_dpowers 081A                      ?i1_putCharacter 002B  
                    __end_of_isdigit 0941                                atoi@a 002B  
                              atoi@s 002D                                pclath 000A  
                     _onConfTempMode 00E4                                status 0003  
                              wtemp0 007E                      __end_of_sprintf 06AC  
            getTemperatureString@str 00BF                      __initialization 0011  
                  _getTemperatureInt 0CD4                         __end_of_atoi 0E0C  
                       __end_of_main 07F5                         __end_of_send 099F  
                       __end_of_wait 0004                   ?_getTemperatureInt 00BE  
               _ZeroSequenceKeyboard 07F5                   _showDifferenceTemp 0E9E  
                        i1_turnOnLCD 0941                        _maxTempString 005F  
    changeThermometerChannel@channel 003A    i1changeThermometerChannel@channel 0020  
                             ??_atoi 0028                               ??_main 00DC  
                             ??_send 0042                               ??_wait 0000  
                        ?i1_clearLCD 0020                  ??_getTemperatureInt 0000  
              ?_getTemperatureString 0020                __size_ofi1_sendNibble 003F  
                ?_showDifferenceTemp 0020                               ?_flank 0020  
                             _ADCON0 001F                               _ADCON1 009F  
                             _ADRESH 001E                               _ADRESL 009E  
                          ??i1_flank 0020                               i1l2210 08CB  
                             i1l2220 0ABF                               i1l2212 08D3  
                             i1l2222 0AC5                               i1l2214 08D6  
                             i1l2230 09BF                               i1l2224 0ACE  
                             i1l2240 0D91                               i1l2232 09C4  
                             i1l2320 06AD                               i1l2226 0AD6  
                             i1l2250 0DB1                               i1l2242 0D95  
                             i1l2234 09CB                               i1l2330 06C0  
                             i1l2322 06B0                               i1l2228 0ADE  
                             i1l2180 093D                               i1l2260 0DEA  
                             i1l2252 0DBA                               i1l2244 0D9E  
                             i1l2236 09CF                               i1l2340 06D5  
                             i1l2332 06C5                               i1l2324 06B5  
                             i1l2182 093F                               i1l2174 0930  
                             i1l2262 0DF4                               i1l2254 0DC2  
                             i1l2246 0DA6                               i1l2238 0D90  
                             i1l2350 06E8                               i1l2342 06D8  
                             i1l2334 06C8                               i1l2326 06B8  
                             i1l2318 06AC                               i1l2176 0931  
                             i1l2264 0DFB                               i1l2256 0DC7  
                             i1l2248 0DA9                               i1l2280 0894  
                             i1l2360 070A                               i1l2352 06ED  
                             i1l2344 06DD                               i1l2336 06CD  
                             i1l2328 06BD                               i1l2440 09E5  
                             i1l2186 0A25                               i1l2178 0937  
                             i1l2282 089D                               i1l2370 0727  
                             i1l2362 0715                               i1l2354 06F0  
                             i1l2346 06E0                               i1l2338 06D0  
                             i1l2442 09F3                               i1l1740 08BE  
                             i1l1820 0C22                               i1l2268 0E07  
                             i1l2188 0887                               i1l2380 0747  
                             i1l2372 072B                               i1l2364 071A  
                             i1l2356 06F5                               i1l2348 06E5  
                             i1l2444 09F4                               i1l2436 09DE  
                             i1l1742 08C7                               i1l1830 0C4B  
                             i1l1822 0C2C                               i1l2382 0757  
                             i1l2374 0735                               i1l2366 0720  
                             i1l2358 06FA                               i1l2438 09E2  
                             i1l1824 0C2F                               i1l1840 094D  
                             i1l1832 0941                               i1l2376 0739  
                             i1l2368 0723                               i1l1738 08BB  
                             i1l1826 0C3F                               i1l1818 0C10  
                             i1l1842 0951                               i1l1834 0949  
                             i1l2378 073D                               i1l2386 075C  
                             i1l1828 0C41                               i1l1844 0952  
                             i1l1836 094A                               i1l1940 0A6C  
                             i1l1838 094D                               i1l1950 0A8E  
                             i1l1942 0A70                               i1l1944 0A74  
                             i1l1946 0A81                               i1l1948 0A88  
                             i1l2946 0766                               u152_20 0C29  
                             u240_20 09DD                               u152_21 0C25  
                             u240_21 09DC                               u241_20 0D9E  
                             u241_21 0D9D                               u153_24 0C2C  
                             u154_20 0C48                               u234_20 0937  
                             u242_20 0DA6                               u250_20 089D  
                             u154_21 0C44                               u234_21 0936  
                             u242_21 0DA5                               u250_21 089C  
                             u170_25 0A7B                               u235_20 093D  
                             u243_20 0DB1                               u235_21 093C  
                             u243_21 0DB0                               u155_24 0C4B  
                             u171_25 0A82                               u172_20 0A8E  
                             u244_20 0DC2                               u236_20 08D3  
                             u172_21 0A8D                               u244_21 0DC1  
                             u236_21 08D2                               u245_20 0DF4  
                             u245_21 0DF3                               u238_20 0AC5  
                             u246_20 0DFB                               u238_21 0AC4  
                             u246_21 0DFA                               u239_20 0ACE  
                             u239_21 0ACD                               u343_27 09ED  
                             u256_20 09E2                               u256_21 09E1  
                             u344_27 08C2                               u169_20 0A74  
                             u169_21 0A73                     __end_of___xxtofl 1000  
                   ??_configKeyboard 0000                     __end_of_clearLCD 08AE  
          __end_of_getTemperatureInt 0D21                 ??_showDifferenceTemp 00CF  
       ??i1_changeThermometerChannel 0000                   _globalInterruption 09DE  
                   ??_configTempMode 0000                               ___wmul 0A6C  
                          ??___flmul 004A                            ??___fltol 00B9  
                          ??___lwdiv 003E                            ??___lwmod 0046  
                       i1_sendNibble 0C10                ?_ZeroSequenceKeyboard 0020  
                   __end_of_keyboard 0796                               _memset 09BC  
                ?_globalInterruption 0020                            ??_isItHot 003C  
                             _strcat 0B13                               _strlen 0A00  
               __end_of_configThermo 0983                            ??_isdigit 0000  
                 __size_of__Umul8_16 0029                     __end_of_showTemp 0BD4  
                             saved_w 007E                        i1turnOnLCD@d1 0021  
                          ??_sprintf 004B                   turnOnSerialAlarm@i 003F  
               ??_globalInterruption 0034                         ___xxtofl@arg 0046  
              __size_of_clearIfFirst 0010                         ___xxtofl@exp 0045  
                       ___xxtofl@val 003C              __end_of__initialization 0037  
           getTemperatureString@temp 00CB                           ___fltol@f1 00B5  
                __size_ofi1_clearLCD 000D                       __pcstackCOMMON 0000  
                       __pidataBANK0 087B                         __pidataBANK1 086D  
                      __end_of_flank 08EB               ??_getTemperatureString 00BE  
                       _clearIfFirst 08CB                     _configSerialPort 090B  
                            ??_flank 003A                           __pbssBANK0 005D  
                         __pbssBANK1 00E0           __size_of_getTemperatureInt 004D  
                  __end_of__Umul8_16 0ABC                           __pmaintext 0796  
          __size_of_addCharToMaxTemp 002B                          sendNibble@n 003B  
             ??_ZeroSequenceKeyboard 0000                              ?___wmul 0020  
                         __pintentry 0004             _changeThermometerChannel 08AE  
                            ?_memset 0020                              ?_strcat 003A  
                            ?_strlen 003A                     ??i1_putCharacter 002D  
                         _getVoltaje 08FB                            ?___xxtofl 003C  
                          ?_clearLCD 0020                           __stringtab 0800  
                            i1_flank 08BB                   __size_of_turnOnLCD 0015  
                          ?_keyboard 0020                   __size_of_writeWord 0033  
 __end_ofi1_changeThermometerChannel 08A1           i1_changeThermometerChannel 0894  
                          ?_showTemp 0020                __size_of_configThermo 0018  
                            ___flmul 003A                              ___fltol 0E0C  
                    __size_of___wmul 0027                              ___lwdiv 0C8E  
                            ___lwmod 0BD4                      __size_of_memset 0022  
                       ?i1_turnOnLCD 0020                              __ptext1 0002  
                            __ptext2 0BA1                              __ptext3 0D21  
                            __ptext4 0B13                              __ptext5 0E9E  
                            __ptext6 057D                              __ptext7 0BD4  
                            __ptext8 0C8E                              __ptext9 0983  
                            _isItHot 099F                         ??i1_clearLCD 0000  
                    __size_of_strcat 002D                      __size_of_strlen 0022  
                            _maxTemp 00E6                              _dpowers 0810  
                            _readTem 00E0                              _isdigit 092D  
                         ??___xxtofl 0040                           ??_clearLCD 0000  
                            _waiting 005B                        ?_putCharacter 0045  
                            _sprintf 057D                           _sendNibble 0C4F  
               end_of_initialization 0037                              memset@c 0020  
                            memset@n 0022                              memset@p 0026  
                         ??_keyboard 0032                         _configThermo 096B  
                            send@msg 0046                   __end_ofi1_clearLCD 0894  
                         ??_showTemp 00CF               i1putCharacter@position 002B  
                            strlen@s 003A                    __end_of_turnOnLCD 096B  
                        ?_getVoltaje 003A                    __end_of_writeWord 0BA1  
              getTemperatureInt@temp 00C0                        ___xxtofl@sign 0044  
                     ??_putCharacter 0047                          ___flmul@grs 00AA  
        __size_of_showDifferenceTemp 00A6             __end_of_configSerialPort 091C  
                   _addCharToMaxTemp 0ABC                           _writeOnLCD 08EB  
          addCharToMaxTemp@character 0031                 putCharacter@position 0045  
                     __end_of___wmul 0A93                       __end_of_memset 09DE  
                     __end_of_strcat 0B40                       __end_of_strlen 0A22  
                start_initialization 0011                          ?_sendNibble 003B  
        __size_of_globalInterruption 0022           ??_changeThermometerChannel 0000  
   showDifferenceTemp@tempDifference 00D1                    _showDiferenceTemp 00E2  
                __size_of_getVoltaje 0010                             ??___wmul 0000  
                         init_fetch0 091C                            __Umul8_16 0A93  
                        __pdataBANK0 0051                          __pdataBANK1 00E4  
                           ??_memset 0024              __size_of_configKeyboard 000A  
                           ??_strcat 003B                             ??_strlen 0000  
            __size_of_configTempMode 002E                 __size_ofi1_turnOnLCD 0015  
                          ___flmul@a 00A4                            ___flmul@b 00A0  
                          ___latbits 0001        __size_of_getTemperatureString 006C  
                      __pcstackBANK0 0020                        __pcstackBANK1 00A0  
                  __size_of___xxtofl 00BC                    __size_of_clearLCD 000D  
                           ?i1_flank 0020                          sprintf@flag 00A1  
                        sprintf@prec 00A2          ?i1_changeThermometerChannel 0020  
                  __size_of_keyboard 00EA                     ___lwdiv@dividend 003C  
               __end_of_putCharacter 0A6C                             ?___flmul 00A0  
                       sendNibble@d1 0041                         sendNibble@d2 0043  
                        ?_writeOnLCD 00CD                             ?___fltol 00B5  
                       sendNibble@rs 003D                           ?__Umul8_16 003A  
                           ?___lwdiv 003A                             ?___lwmod 0042  
                  __size_of_showTemp 0033                  __size_of_sendNibble 003F  
      __size_of_ZeroSequenceKeyboard 000B                            __pstrings 0800  
                           ?_isItHot 003A                             ?_isdigit 0020  
                        turnOnLCD@d1 003B                     ___lwdiv@quotient 0040  
                     __size_of_flank 0010                             ?_sprintf 0048  
                  interrupt_function 0004                       ___wmul@product 0024  
                      ?i1_sendNibble 0021                       i1sendNibble@d1 0027  
                     i1sendNibble@d2 0029                       i1sendNibble@rs 0023  
                        __stringbase 080F                    ___wmul@multiplier 0020  
                       ??_getVoltaje 0000                            _turnOnLCD 0956  
           __end_of_addCharToMaxTemp 0AE7                            _writeWord 0B6E  
           turnOnSerialAlarm@message 0041                  __size_of_writeOnLCD 0010  
            __size_ofi1_putCharacter 0025                     __size_ofi1_flank 0010  
   __end_of_changeThermometerChannel 08BB                   __end_of_getVoltaje 090B  
                  ?_configSerialPort 0020                            send@F1086 0051  
                     ??i1_sendNibble 0025                          ??__Umul8_16 003C  
                 ??_configSerialPort 0000                       _configKeyboard 0871  
                   __size_of___flmul 0543                     __size_of___fltol 0092  
                   __size_of___lwdiv 0046                     __size_of___lwmod 003C  
                 __end_of__stringtab 0810                          _isdigit$679 0020  
                     _configTempMode 0B40                     __size_of_isItHot 001D  
                         sprintf@val 00A3                             ___xxtofl 0F44  
                      ?_clearIfFirst 0020                           strcat@from 003A  
                           _clearLCD 08A1                     __size_of_isdigit 0014  
                         ?_turnOnLCD 0020                      ___lwdiv@divisor 003A  
__size_ofi1_changeThermometerChannel 000D                      ___lwdiv@counter 003F  
                           __ptext10 0AE7                             __ptext11 099F  
                           __ptext20 0B40                             __ptext12 0CD4  
                           __ptext21 08EB                             __ptext13 08FB  
                           __ptext30 0C4F                             __ptext22 0B6E  
                           __ptext14 0F44                             __ptext31 08DB  
                           __ptext23 0A00                             __ptext15 0E0C  
                           __ptext40 0A6C                             __ptext32 09DE  
                           __ptext24 0A47                             __ptext16 003A  
                           __ptext41 0ABC                             __ptext33 06AC  
                           __ptext25 0956                             __ptext17 0A93  
                           __ptext42 0A22                             __ptext34 0894  
                           __ptext26 07F5                             __ptext18 08AE  
                           __ptext43 0941                             __ptext35 09BC  
                           __ptext27 090B                             __ptext19 096B  
                           __ptext44 0C10                             __ptext36 08CB  
                           __ptext28 0871                             __ptext45 08BB  
                           __ptext37 0887                             __ptext29 08A1  
                           __ptext38 0D8D                             __ptext39 092D  
                         ?_writeWord 004A                         ??_sendNibble 003F  
                   __size_of_sprintf 012F                        __size_of_atoi 007F  
                           _keyboard 06AC                        __size_of_main 005F  
                      __size_of_send 001C                        __size_of_wait 0002  
         __end_of_showDifferenceTemp 0F44                __size_of_putCharacter 0025  
            i1putCharacter@character 002F                       writeOnLCD@word 00CD  
             __end_of_configKeyboard 087B                             _showTemp 0BA1  
                      i1sendNibble@n 0021                             atoi@sign 002A  
                         writeWord@i 004C               __end_of_configTempMode 0B6E  
                 __end_of_sendNibble 0C8E                       ??_clearIfFirst 0000  
          showDifferenceTemp@tempDif 00DA                           _INTCONbits 000B  
                  _turnOnSerialAlarm 0AE7                             init_ram0 0920  
                           isdigit@c 0021                             memset@p1 0025  
         __end_of_globalInterruption 0A00                         _putCharacter 0A47  
                 ?_turnOnSerialAlarm 0020                             intlevel1 0000  
                          sprintf@ap 00A0                            sprintf@sp 00A5  
                   ___lwmod@dividend 0044                  ??_turnOnSerialAlarm 003E  
       __end_of_getTemperatureString 0D8D                            stringcode 080A  
                    ?_configKeyboard 0020                         ??_writeOnLCD 0000  
                      ??i1_turnOnLCD 0000                      ?_configTempMode 0020  
             __Umul8_16@multiplicand 003A    __size_of_changeThermometerChannel 000D  
                         _OPTION_REG 0081                             sprintf@c 00A6  
                           sprintf@f 0048            ?_changeThermometerChannel 003A  
                           strcat@cp 003D                             strcat@to 003C  
          __end_of_turnOnSerialAlarm 0B13                      ___lwmod@divisor 0042  
                           strlen@cp 003C                      ___lwmod@counter 0047  
                           stringdir 080A                             stringtab 0800  
                        ??_turnOnLCD 0000                          ??_writeWord 0000  
               __end_ofi1_sendNibble 0C4F         __end_of_ZeroSequenceKeyboard 0800  
                     i1_putCharacter 0A22                   __end_of_writeOnLCD 08FB  
                       showTemp@temp 00D1                          isItHot@temp 003A  
                      ?_configThermo 0020                 __Umul8_16@multiplier 0042  
                  __Umul8_16@product 003E                putCharacter@character 0049  
