

Microchip MPLAB XC8 Assembler V2.10 build 88905656 
                                                                                               Tue Mar 10 14:30:55 2020

Microchip MPLAB XC8 C Compiler v2.10 (Free license) build 20190730164152 Og1 
     1                           	processor	16F873A
     2                           	opt	pw 120
     3                           	opt	flic
     4                           	psect	idataBANK0,global,class=CODE,delta=2
     5                           	psect	idataBANK1,global,class=CODE,delta=2
     6                           	psect	strings,global,class=STRING,delta=2
     7                           	psect	cinit,global,class=CODE,merge=1,delta=2
     8                           	psect	bssBANK0,global,class=BANK0,space=1,delta=1
     9                           	psect	dataBANK0,global,class=BANK0,space=1,delta=1
    10                           	psect	dataBANK1,global,class=BANK1,space=1,delta=1
    11                           	psect	cstackBANK1,global,class=BANK1,space=1,delta=1
    12                           	psect	cstackCOMMON,global,class=COMMON,space=1,delta=1
    13                           	psect	cstackBANK0,global,class=BANK0,space=1,delta=1
    14                           	psect	maintext,global,class=CODE,split=1,delta=2
    15                           	psect	text1,local,class=CODE,merge=1,delta=2
    16                           	psect	text2,local,class=CODE,merge=1,delta=2
    17                           	psect	text3,local,class=CODE,merge=1,delta=2,group=2
    18                           	psect	text4,local,class=CODE,merge=1,delta=2
    19                           	psect	text5,local,class=CODE,merge=1,delta=2,group=1
    20                           	psect	text6,local,class=CODE,merge=1,delta=2,group=1
    21                           	psect	text7,local,class=CODE,merge=1,delta=2
    22                           	psect	text8,local,class=CODE,merge=1,delta=2,group=1
    23                           	psect	text9,local,class=CODE,merge=1,delta=2,group=1
    24                           	psect	text10,local,class=CODE,merge=1,delta=2,group=1
    25                           	psect	text11,local,class=CODE,merge=1,delta=2,group=1
    26                           	psect	text12,local,class=CODE,merge=1,delta=2
    27                           	psect	text13,local,class=CODE,merge=1,delta=2
    28                           	psect	text14,local,class=CODE,merge=1,delta=2
    29                           	psect	text15,local,class=CODE,merge=1,delta=2,group=2
    30                           	psect	text16,local,class=CODE,merge=1,delta=2
    31                           	psect	text17,local,class=CODE,merge=1,delta=2
    32                           	psect	text18,local,class=CODE,merge=1,delta=2
    33                           	psect	text19,local,class=CODE,merge=1,delta=2
    34                           	psect	text20,local,class=CODE,merge=1,delta=2
    35                           	psect	text21,local,class=CODE,merge=1,delta=2
    36                           	psect	text22,local,class=CODE,merge=1,delta=2
    37                           	psect	text23,local,class=CODE,merge=1,delta=2
    38                           	psect	intentry,global,class=CODE,delta=2
    39                           	psect	text24,local,class=CODE,merge=1,delta=2
    40                           	psect	text25,local,class=CODE,merge=1,delta=2
    41                           	psect	text26,local,class=CODE,merge=1,delta=2
    42                           	psect	text27,local,class=CODE,merge=1,delta=2
    43                           	psect	text28,local,class=CODE,merge=1,delta=2
    44                           	psect	text29,local,class=CODE,merge=1,delta=2
    45                           	psect	text30,local,class=CODE,merge=1,delta=2
    46                           	psect	text31,local,class=CODE,merge=1,delta=2
    47                           	psect	text32,local,class=CODE,merge=1,delta=2,group=2
    48                           	psect	text33,local,class=CODE,merge=1,delta=2,group=2
    49                           	psect	text34,local,class=CODE,merge=1,delta=2,group=1
    50                           	dabs	1,0x7E,2
    51  0000                     
    52                           ; Version 2.10
    53                           ; Generated 31/07/2019 GMT
    54                           ; 
    55                           ; Copyright © 2019, Microchip Technology Inc. and its subsidiaries ("Microchip")
    56                           ; All rights reserved.
    57                           ; 
    58                           ; This software is developed by Microchip Technology Inc. and its subsidiaries ("Microch
      +                          ip").
    59                           ; 
    60                           ; Redistribution and use in source and binary forms, with or without modification, are
    61                           ; permitted provided that the following conditions are met:
    62                           ; 
    63                           ;     1. Redistributions of source code must retain the above copyright notice, this lis
      +                          t of
    64                           ;        conditions and the following disclaimer.
    65                           ; 
    66                           ;     2. Redistributions in binary form must reproduce the above copyright notice, this 
      +                          list
    67                           ;        of conditions and the following disclaimer in the documentation and/or other
    68                           ;        materials provided with the distribution.
    69                           ; 
    70                           ;     3. Microchip's name may not be used to endorse or promote products derived from th
      +                          is
    71                           ;        software without specific prior written permission.
    72                           ; 
    73                           ; THIS SOFTWARE IS PROVIDED BY MICROCHIP "AS IS" AND ANY EXPRESS OR IMPLIED WARRANTIES,
    74                           ; INCLUDING, BUT NOT LIMITED TO, THE IMPLIED WARRANTIES OF MERCHANTABILITY AND FITNESS F
      +                          OR
    75                           ; PURPOSE ARE DISCLAIMED.  IN NO EVENT SHALL MICROCHIP BE LIABLE FOR ANY DIRECT, INDIREC
      +                          T,
    76                           ; INCIDENTAL, SPECIAL, EXEMPLARY, OR CONSEQUENTIAL DAMAGES (INCLUDING BUT NOT LIMITED TO
    77                           ; PROCUREMENT OF SUBSTITUTE GOODS OR SERVICES; LOSS OF USE, DATA OR PROFITS; OR BUSINESS
    78                           ; INTERRUPTION) HOWSOEVER CAUSED AND ON ANY THEORY OF LIABILITY, WHETHER IN CONTRACT, ST
      +                          RICT
    79                           ; LIABILITY, OR TORT (INCLUDING NEGLIGENCE OR OTHERWISE) ARISING IN ANY WAY OUT OF THE U
      +                          SE OF
    80                           ; THIS SOFTWARE, EVEN IF ADVISED OF THE POSSIBILITY OF SUCH DAMAGE.
    81                           ; 
    82                           ; 
    83                           ; Code-generator required, PIC16F873A Definitions
    84                           ; 
    85                           ; SFR Addresses
    86  0000                     	;# 
    87  0001                     	;# 
    88  0002                     	;# 
    89  0003                     	;# 
    90  0004                     	;# 
    91  0005                     	;# 
    92  0006                     	;# 
    93  0007                     	;# 
    94  000A                     	;# 
    95  000B                     	;# 
    96  000C                     	;# 
    97  000D                     	;# 
    98  000E                     	;# 
    99  000E                     	;# 
   100  000F                     	;# 
   101  0010                     	;# 
   102  0011                     	;# 
   103  0012                     	;# 
   104  0013                     	;# 
   105  0014                     	;# 
   106  0015                     	;# 
   107  0015                     	;# 
   108  0016                     	;# 
   109  0017                     	;# 
   110  0018                     	;# 
   111  0019                     	;# 
   112  001A                     	;# 
   113  001B                     	;# 
   114  001B                     	;# 
   115  001C                     	;# 
   116  001D                     	;# 
   117  001E                     	;# 
   118  001F                     	;# 
   119  0081                     	;# 
   120  0085                     	;# 
   121  0086                     	;# 
   122  0087                     	;# 
   123  008C                     	;# 
   124  008D                     	;# 
   125  008E                     	;# 
   126  0091                     	;# 
   127  0092                     	;# 
   128  0093                     	;# 
   129  0094                     	;# 
   130  0098                     	;# 
   131  0099                     	;# 
   132  009C                     	;# 
   133  009D                     	;# 
   134  009E                     	;# 
   135  009F                     	;# 
   136  010C                     	;# 
   137  010D                     	;# 
   138  010E                     	;# 
   139  010F                     	;# 
   140  018C                     	;# 
   141  018D                     	;# 
   142  0000                     	;# 
   143  0001                     	;# 
   144  0002                     	;# 
   145  0003                     	;# 
   146  0004                     	;# 
   147  0005                     	;# 
   148  0006                     	;# 
   149  0007                     	;# 
   150  000A                     	;# 
   151  000B                     	;# 
   152  000C                     	;# 
   153  000D                     	;# 
   154  000E                     	;# 
   155  000E                     	;# 
   156  000F                     	;# 
   157  0010                     	;# 
   158  0011                     	;# 
   159  0012                     	;# 
   160  0013                     	;# 
   161  0014                     	;# 
   162  0015                     	;# 
   163  0015                     	;# 
   164  0016                     	;# 
   165  0017                     	;# 
   166  0018                     	;# 
   167  0019                     	;# 
   168  001A                     	;# 
   169  001B                     	;# 
   170  001B                     	;# 
   171  001C                     	;# 
   172  001D                     	;# 
   173  001E                     	;# 
   174  001F                     	;# 
   175  0081                     	;# 
   176  0085                     	;# 
   177  0086                     	;# 
   178  0087                     	;# 
   179  008C                     	;# 
   180  008D                     	;# 
   181  008E                     	;# 
   182  0091                     	;# 
   183  0092                     	;# 
   184  0093                     	;# 
   185  0094                     	;# 
   186  0098                     	;# 
   187  0099                     	;# 
   188  009C                     	;# 
   189  009D                     	;# 
   190  009E                     	;# 
   191  009F                     	;# 
   192  010C                     	;# 
   193  010D                     	;# 
   194  010E                     	;# 
   195  010F                     	;# 
   196  018C                     	;# 
   197  018D                     	;# 
   198                           
   199                           	psect	idataBANK0
   200  09CE                     __pidataBANK0:	
   201                           
   202                           ;initializer for _clear
   203  09CE  3401               	retlw	1
   204  09CF  3400               	retlw	0
   205                           
   206                           ;initializer for _inConfTempMode
   207  09D0  3401               	retlw	1
   208  09D1  3400               	retlw	0
   209                           
   210                           ;initializer for _waiting
   211  09D2  3401               	retlw	1
   212  09D3  3400               	retlw	0
   213                           
   214                           	psect	idataBANK1
   215  0002                     __pidataBANK1:	
   216                           
   217                           ;initializer for _maxTemp
   218  0002  3496               	retlw	150
   219  0003  3400               	retlw	0
   220                           
   221                           	psect	strings
   222  0800                     __pstrings:	
   223  0800                     stringtab:	
   224  0800                     __stringtab:	
   225                           
   226                           ;	String table - string pointers are 1 byte each
   227  0800  1BFF               	btfsc	btemp+1,7
   228  0801  280A               	ljmp	stringcode
   229  0802  1383               	bcf	3,7
   230  0803  187F               	btfsc	btemp+1,0
   231  0804  1783               	bsf	3,7
   232  0805  0800               	movf	0,w
   233  0806  0A84               	incf	4,f
   234  0807  1903               	skipnz
   235  0808  0AFF               	incf	btemp+1,f
   236  0809  0008               	return
   237  080A                     stringcode:	
   238  080A                     stringdir:	
   239  080A  3008               	movlw	high stringdir
   240  080B  008A               	movwf	10
   241  080C  0804               	movf	4,w
   242  080D  0A84               	incf	4,f
   243  080E  0782               	addwf	2,f
   244  080F                     __stringbase:	
   245  080F  3400               	retlw	0
   246  0810                     __end_of__stringtab:	
   247  0810                     _dpowers:	
   248  0810  3401               	retlw	1
   249  0811  3400               	retlw	0
   250  0812  340A               	retlw	10
   251  0813  3400               	retlw	0
   252  0814  3464               	retlw	100
   253  0815  3400               	retlw	0
   254  0816  34E8               	retlw	232
   255  0817  3403               	retlw	3
   256  0818  3410               	retlw	16
   257  0819  3427               	retlw	39
   258  081A                     __end_of_dpowers:	
   259  000B                     _INTCONbits	set	11
   260  0006                     _PORTB	set	6
   261  001E                     _ADRESH	set	30
   262  001F                     _ADCON0	set	31
   263  0007                     _PORTC	set	7
   264  00FB                     _CHS0	set	251
   265  00FA                     _GO	set	250
   266  0058                     _RBIF	set	88
   267  005F                     _GIE	set	95
   268  005B                     _RBIE	set	91
   269  00FE                     _ADCS0	set	254
   270  0038                     _RC0	set	56
   271  0039                     _RC1	set	57
   272  009E                     _ADRESL	set	158
   273  0086                     _TRISB	set	134
   274  0081                     _OPTION_REG	set	129
   275  009F                     _ADCON1	set	159
   276  0085                     _TRISA	set	133
   277  0087                     _TRISC	set	135
   278  081A                     STR_3:	
   279  081A  3449               	retlw	73	;'I'
   280  081B  346E               	retlw	110	;'n'
   281  081C  3467               	retlw	103	;'g'
   282  081D  3472               	retlw	114	;'r'
   283  081E  3465               	retlw	101	;'e'
   284  081F  3473               	retlw	115	;'s'
   285  0820  3465               	retlw	101	;'e'
   286  0821  3420               	retlw	32	;' '
   287  0822  3474               	retlw	116	;'t'
   288  0823  3465               	retlw	101	;'e'
   289  0824  346D               	retlw	109	;'m'
   290  0825  3470               	retlw	112	;'p'
   291  0826  3420               	retlw	32	;' '
   292  0827  344D               	retlw	77	;'M'
   293  0828  3441               	retlw	65	;'A'
   294  0829  3458               	retlw	88	;'X'
   295  082A  3449               	retlw	73	;'I'
   296  082B  344D               	retlw	77	;'M'
   297  082C  3441               	retlw	65	;'A'
   298  082D  3400               	retlw	0
   299  082E                     STR_2:	
   300  082E  3427               	retlw	39	;'''
   301  082F  3443               	retlw	67	;'C'
   302  0830  3400               	retlw	0
   303  0831                     STR_1:	
   304  0831  3425               	retlw	37	;'%'
   305  0832  3464               	retlw	100	;'d'
   306  0833  3400               	retlw	0
   307  081A                     
   308                           	psect	cinit
   309  0013                     start_initialization:	
   310                           ; #config settings
   311                           
   312  0013                     __initialization:	
   313                           
   314                           ; Initialize objects allocated to BANK1
   315  0013  1683               	bsf	3,5	;RP0=1, select bank1
   316  0014  1303               	bcf	3,6	;RP1=0, select bank1
   317  0015  118A  2002  118A   	fcall	__pidataBANK1	;fetch initializer
   318  0018  00CA               	movwf	__pdataBANK1& (0+127)
   319  0019  118A  2003  118A   	fcall	__pidataBANK1+1	;fetch initializer
   320  001C  00CB               	movwf	(__pdataBANK1+1)& (0+127)
   321                           
   322                           ; Initialize objects allocated to BANK0
   323  001D  1283               	bcf	3,5	;RP0=0, select bank0
   324  001E  1303               	bcf	3,6	;RP1=0, select bank0
   325  001F  158A  21CE  118A   	fcall	__pidataBANK0	;fetch initializer
   326  0022  00D9               	movwf	__pdataBANK0& (0+127)
   327  0023  158A  21CF  118A   	fcall	__pidataBANK0+1	;fetch initializer
   328  0026  00DA               	movwf	(__pdataBANK0+1)& (0+127)
   329  0027  158A  21D0  118A   	fcall	__pidataBANK0+2	;fetch initializer
   330  002A  00DB               	movwf	(__pdataBANK0+2)& (0+127)
   331  002B  158A  21D1  118A   	fcall	__pidataBANK0+3	;fetch initializer
   332  002E  00DC               	movwf	(__pdataBANK0+3)& (0+127)
   333  002F  158A  21D2  118A   	fcall	__pidataBANK0+4	;fetch initializer
   334  0032  00DD               	movwf	(__pdataBANK0+4)& (0+127)
   335  0033  158A  21D3  118A   	fcall	__pidataBANK0+5	;fetch initializer
   336  0036  00DE               	movwf	(__pdataBANK0+5)& (0+127)
   337                           
   338                           ; Clear objects allocated to BANK0
   339  0037  01DF               	clrf	__pbssBANK0& (0+127)
   340  0038  01E0               	clrf	(__pbssBANK0+1)& (0+127)
   341  0039  01E1               	clrf	(__pbssBANK0+2)& (0+127)
   342  003A  01E2               	clrf	(__pbssBANK0+3)& (0+127)
   343  003B  01E3               	clrf	(__pbssBANK0+4)& (0+127)
   344  003C                     end_of_initialization:	
   345                           ;End of C runtime variable initialization code
   346                           
   347  003C                     __end_of__initialization:	
   348  003C  0183               	clrf	3
   349  003D  158A  2BA0         	ljmp	_main	;jump to C main() function
   350                           
   351                           	psect	bssBANK0
   352  005F                     __pbssBANK0:	
   353  005F                     _cont:	
   354  005F                     	ds	2
   355  0061                     _maxTempString:	
   356  0061                     	ds	3
   357                           
   358                           	psect	dataBANK0
   359  0059                     __pdataBANK0:	
   360  0059                     _clear:	
   361  0059                     	ds	2
   362  005B                     _inConfTempMode:	
   363  005B                     	ds	2
   364  005D                     _waiting:	
   365  005D                     	ds	2
   366                           
   367                           	psect	dataBANK1
   368  00CA                     __pdataBANK1:	
   369  00CA                     _maxTemp:	
   370  00CA                     	ds	2
   371                           
   372                           	psect	cstackBANK1
   373  00A0                     __pcstackBANK1:	
   374  00A0                     ___flmul@sign:	
   375                           
   376                           ; 1 bytes @ 0x0
   377  00A0                     	ds	1
   378  00A1                     ___flmul@aexp:	
   379                           
   380                           ; 1 bytes @ 0x1
   381  00A1                     	ds	1
   382  00A2                     ___flmul@grs:	
   383                           
   384                           ; 4 bytes @ 0x2
   385  00A2                     	ds	4
   386  00A6                     ___flmul@bexp:	
   387                           
   388                           ; 1 bytes @ 0x6
   389  00A6                     	ds	1
   390  00A7                     ___flmul@prod:	
   391                           
   392                           ; 4 bytes @ 0x7
   393  00A7                     	ds	4
   394  00AB                     ___flmul@temp:	
   395                           
   396                           ; 2 bytes @ 0xB
   397  00AB                     	ds	2
   398  00AD                     ?___fltol:	
   399  00AD                     ___fltol@f1:	
   400                           ; 4 bytes @ 0xD
   401                           
   402                           
   403                           ; 4 bytes @ 0xD
   404  00AD                     	ds	4
   405  00B1                     ??___fltol:	
   406                           
   407                           ; 1 bytes @ 0x11
   408  00B1                     	ds	5
   409  00B6                     getTemperature@str:	
   410                           
   411                           ; 12 bytes @ 0x16
   412  00B6                     	ds	12
   413  00C2                     getTemperature@temp:	
   414                           
   415                           ; 2 bytes @ 0x22
   416  00C2                     	ds	2
   417  00C4                     ?_writeOnLCD:	
   418  00C4                     writeOnLCD@word:	
   419                           ; 1 bytes @ 0x24
   420                           
   421                           
   422                           ; 2 bytes @ 0x24
   423  00C4                     	ds	2
   424  00C6                     ??_main:	
   425                           
   426                           ; 1 bytes @ 0x26
   427  00C6                     	ds	2
   428  00C8                     main@leerTemperatura:	
   429                           
   430                           ; 2 bytes @ 0x28
   431  00C8                     	ds	2
   432                           
   433                           	psect	cstackCOMMON
   434  0000                     __pcstackCOMMON:	
   435  0000                     ??_strlen:	
   436  0000                     ??_isdigit:	
   437                           ; 1 bytes @ 0x0
   438                           
   439  0000                     ??_wait:	
   440                           ; 1 bytes @ 0x0
   441                           
   442  0000                     ??_turnOnLCD:	
   443                           ; 1 bytes @ 0x0
   444                           
   445  0000                     ??_writeWord:	
   446                           ; 1 bytes @ 0x0
   447                           
   448  0000                     ??_writeOnLCD:	
   449                           ; 1 bytes @ 0x0
   450                           
   451  0000                     ??_clearLCD:	
   452                           ; 1 bytes @ 0x0
   453                           
   454  0000                     ??_conf:	
   455                           ; 1 bytes @ 0x0
   456                           
   457  0000                     ??_confTeclado:	
   458                           ; 1 bytes @ 0x0
   459                           
   460  0000                     ??_getVoltaje:	
   461                           ; 1 bytes @ 0x0
   462                           
   463  0000                     ??_secuencia:	
   464                           ; 1 bytes @ 0x0
   465                           
   466  0000                     ??_clearIfFirst:	
   467                           ; 1 bytes @ 0x0
   468                           
   469  0000                     ??_changeThermometerChannel:	
   470                           ; 1 bytes @ 0x0
   471                           
   472  0000                     ??_configTempMode:	
   473                           ; 1 bytes @ 0x0
   474                           
   475  0000                     ??___wmul:	
   476                           ; 1 bytes @ 0x0
   477                           
   478  0000                     ??i1_turnOnLCD:	
   479                           ; 1 bytes @ 0x0
   480                           
   481                           
   482                           	psect	cstackBANK0
   483  0020                     __pcstackBANK0:	
   484                           ; 1 bytes @ 0x0
   485                           
   486  0020                     ?_isdigit:	
   487  0020                     ?_wait:	
   488                           ; 1 bit 
   489                           
   490  0020                     ?_flank:	
   491                           ; 1 bytes @ 0x0
   492                           
   493  0020                     ?_turnOnLCD:	
   494                           ; 1 bytes @ 0x0
   495                           
   496  0020                     ?_clearLCD:	
   497                           ; 1 bytes @ 0x0
   498                           
   499  0020                     ?_conf:	
   500                           ; 1 bytes @ 0x0
   501                           
   502  0020                     ?_confTeclado:	
   503                           ; 1 bytes @ 0x0
   504                           
   505  0020                     ?_getTemperature:	
   506                           ; 1 bytes @ 0x0
   507                           
   508  0020                     ?_secuencia:	
   509                           ; 1 bytes @ 0x0
   510                           
   511  0020                     ?_clearIfFirst:	
   512                           ; 1 bytes @ 0x0
   513                           
   514  0020                     ?_changeThermometerChannel:	
   515                           ; 1 bytes @ 0x0
   516                           
   517  0020                     ?_tecla:	
   518                           ; 1 bytes @ 0x0
   519                           
   520  0020                     ?_accion:	
   521                           ; 1 bytes @ 0x0
   522                           
   523  0020                     ?_configTempMode:	
   524                           ; 1 bytes @ 0x0
   525                           
   526  0020                     ?_main:	
   527                           ; 1 bytes @ 0x0
   528                           
   529  0020                     ?i1_flank:	
   530                           ; 1 bytes @ 0x0
   531                           
   532  0020                     ??i1_flank:	
   533                           ; 1 bytes @ 0x0
   534                           
   535  0020                     ?i1_turnOnLCD:	
   536                           ; 1 bytes @ 0x0
   537                           
   538  0020                     ?___wmul:	
   539                           ; 1 bytes @ 0x0
   540                           
   541  0020                     _isdigit$630:	
   542                           ; 2 bytes @ 0x0
   543                           
   544  0020                     changeThermometerChannel@channel:	
   545                           ; 1 bytes @ 0x0
   546                           
   547  0020                     ___wmul@multiplier:	
   548                           ; 2 bytes @ 0x0
   549                           
   550                           
   551                           ; 2 bytes @ 0x0
   552  0020                     	ds	1
   553  0021                     ?i1_sendNibble:	
   554  0021                     isdigit@c:	
   555                           ; 1 bytes @ 0x1
   556                           
   557  0021                     i1sendNibble@n:	
   558                           ; 1 bytes @ 0x1
   559                           
   560  0021                     i1turnOnLCD@d1:	
   561                           ; 2 bytes @ 0x1
   562                           
   563                           
   564                           ; 2 bytes @ 0x1
   565  0021                     	ds	1
   566  0022                     ___wmul@multiplicand:	
   567                           
   568                           ; 2 bytes @ 0x2
   569  0022                     	ds	1
   570  0023                     i1sendNibble@rs:	
   571                           
   572                           ; 2 bytes @ 0x3
   573  0023                     	ds	1
   574  0024                     ___wmul@product:	
   575                           
   576                           ; 2 bytes @ 0x4
   577  0024                     	ds	1
   578  0025                     ??i1_sendNibble:	
   579                           
   580                           ; 1 bytes @ 0x5
   581  0025                     	ds	1
   582  0026                     ?_atoi:	
   583                           
   584                           ; 2 bytes @ 0x6
   585  0026                     	ds	1
   586  0027                     i1sendNibble@d1:	
   587                           
   588                           ; 2 bytes @ 0x7
   589  0027                     	ds	1
   590  0028                     ??_atoi:	
   591                           
   592                           ; 1 bytes @ 0x8
   593  0028                     	ds	1
   594  0029                     i1sendNibble@d2:	
   595                           
   596                           ; 2 bytes @ 0x9
   597  0029                     	ds	1
   598  002A                     atoi@sign:	
   599                           
   600                           ; 1 bytes @ 0xA
   601  002A                     	ds	1
   602  002B                     ?i1_putCharacter:	
   603  002B                     atoi@a:	
   604                           ; 1 bytes @ 0xB
   605                           
   606  002B                     i1putCharacter@position:	
   607                           ; 2 bytes @ 0xB
   608                           
   609                           
   610                           ; 2 bytes @ 0xB
   611  002B                     	ds	2
   612  002D                     ??i1_putCharacter:	
   613  002D                     atoi@s:	
   614                           ; 1 bytes @ 0xD
   615                           
   616                           
   617                           ; 1 bytes @ 0xD
   618  002D                     	ds	2
   619  002F                     i1putCharacter@character:	
   620                           
   621                           ; 1 bytes @ 0xF
   622  002F                     	ds	1
   623  0030                     ??_tecla:	
   624                           
   625                           ; 1 bytes @ 0x10
   626  0030                     	ds	2
   627  0032                     ??_accion:	
   628                           
   629                           ; 1 bytes @ 0x12
   630  0032                     	ds	7
   631  0039                     ?_strcat:	
   632  0039                     ??_flank:	
   633                           ; 1 bytes @ 0x19
   634                           
   635  0039                     ?_strlen:	
   636                           ; 1 bytes @ 0x19
   637                           
   638  0039                     ?__Umul8_16:	
   639                           ; 2 bytes @ 0x19
   640                           
   641  0039                     ?_getVoltaje:	
   642                           ; 2 bytes @ 0x19
   643                           
   644  0039                     ?___lwdiv:	
   645                           ; 2 bytes @ 0x19
   646                           
   647  0039                     strcat@from:	
   648                           ; 2 bytes @ 0x19
   649                           
   650  0039                     __Umul8_16@multiplicand:	
   651                           ; 1 bytes @ 0x19
   652                           
   653  0039                     ___lwdiv@divisor:	
   654                           ; 1 bytes @ 0x19
   655                           
   656  0039                     strlen@s:	
   657                           ; 2 bytes @ 0x19
   658                           
   659                           
   660                           ; 2 bytes @ 0x19
   661  0039                     	ds	1
   662  003A                     ??_strcat:	
   663  003A                     ?_sendNibble:	
   664                           ; 1 bytes @ 0x1A
   665                           
   666  003A                     sendNibble@n:	
   667                           ; 1 bytes @ 0x1A
   668                           
   669  003A                     turnOnLCD@d1:	
   670                           ; 2 bytes @ 0x1A
   671                           
   672                           
   673                           ; 2 bytes @ 0x1A
   674  003A                     	ds	1
   675  003B                     ??__Umul8_16:	
   676  003B                     ?___xxtofl:	
   677                           ; 1 bytes @ 0x1B
   678                           
   679  003B                     strcat@to:	
   680                           ; 4 bytes @ 0x1B
   681                           
   682  003B                     ___lwdiv@dividend:	
   683                           ; 1 bytes @ 0x1B
   684                           
   685  003B                     strlen@cp:	
   686                           ; 2 bytes @ 0x1B
   687                           
   688  003B                     ___xxtofl@val:	
   689                           ; 2 bytes @ 0x1B
   690                           
   691                           
   692                           ; 4 bytes @ 0x1B
   693  003B                     	ds	1
   694  003C                     strcat@cp:	
   695  003C                     sendNibble@rs:	
   696                           ; 1 bytes @ 0x1C
   697                           
   698                           
   699                           ; 2 bytes @ 0x1C
   700  003C                     	ds	1
   701  003D                     ??___lwdiv:	
   702  003D                     __Umul8_16@product:	
   703                           ; 1 bytes @ 0x1D
   704                           
   705                           
   706                           ; 2 bytes @ 0x1D
   707  003D                     	ds	1
   708  003E                     ??_sendNibble:	
   709  003E                     ___lwdiv@quotient:	
   710                           ; 1 bytes @ 0x1E
   711                           
   712                           
   713                           ; 2 bytes @ 0x1E
   714  003E                     	ds	1
   715  003F                     ??___xxtofl:	
   716  003F                     __Umul8_16@word_mpld:	
   717                           ; 1 bytes @ 0x1F
   718                           
   719                           
   720                           ; 2 bytes @ 0x1F
   721  003F                     	ds	1
   722  0040                     ___lwdiv@counter:	
   723  0040                     sendNibble@d1:	
   724                           ; 1 bytes @ 0x20
   725                           
   726                           
   727                           ; 2 bytes @ 0x20
   728  0040                     	ds	1
   729  0041                     ?___lwmod:	
   730  0041                     __Umul8_16@multiplier:	
   731                           ; 2 bytes @ 0x21
   732                           
   733  0041                     ___lwmod@divisor:	
   734                           ; 1 bytes @ 0x21
   735                           
   736                           
   737                           ; 2 bytes @ 0x21
   738  0041                     	ds	1
   739  0042                     sendNibble@d2:	
   740                           
   741                           ; 2 bytes @ 0x22
   742  0042                     	ds	1
   743  0043                     ___xxtofl@sign:	
   744  0043                     ___lwmod@dividend:	
   745                           ; 1 bytes @ 0x23
   746                           
   747                           
   748                           ; 2 bytes @ 0x23
   749  0043                     	ds	1
   750  0044                     ?_putCharacter:	
   751  0044                     ___xxtofl@exp:	
   752                           ; 1 bytes @ 0x24
   753                           
   754  0044                     putCharacter@position:	
   755                           ; 1 bytes @ 0x24
   756                           
   757                           
   758                           ; 2 bytes @ 0x24
   759  0044                     	ds	1
   760  0045                     ??___lwmod:	
   761  0045                     ___xxtofl@arg:	
   762                           ; 1 bytes @ 0x25
   763                           
   764                           
   765                           ; 4 bytes @ 0x25
   766  0045                     	ds	1
   767  0046                     ??_putCharacter:	
   768  0046                     ___lwmod@counter:	
   769                           ; 1 bytes @ 0x26
   770                           
   771                           
   772                           ; 1 bytes @ 0x26
   773  0046                     	ds	1
   774  0047                     ?_sprintf:	
   775  0047                     sprintf@f:	
   776                           ; 2 bytes @ 0x27
   777                           
   778                           
   779                           ; 1 bytes @ 0x27
   780  0047                     	ds	1
   781  0048                     putCharacter@character:	
   782                           
   783                           ; 1 bytes @ 0x28
   784  0048                     	ds	1
   785  0049                     ?_writeWord:	
   786  0049                     ?___flmul:	
   787                           ; 1 bytes @ 0x29
   788                           
   789  0049                     writeWord@word:	
   790                           ; 4 bytes @ 0x29
   791                           
   792  0049                     ___flmul@b:	
   793                           ; 2 bytes @ 0x29
   794                           
   795                           
   796                           ; 4 bytes @ 0x29
   797  0049                     	ds	1
   798  004A                     ??_sprintf:	
   799                           
   800                           ; 1 bytes @ 0x2A
   801  004A                     	ds	1
   802  004B                     writeWord@i:	
   803                           
   804                           ; 2 bytes @ 0x2B
   805  004B                     	ds	2
   806  004D                     sprintf@ap:	
   807  004D                     ___flmul@a:	
   808                           ; 1 bytes @ 0x2D
   809                           
   810                           
   811                           ; 4 bytes @ 0x2D
   812  004D                     	ds	1
   813  004E                     sprintf@flag:	
   814                           
   815                           ; 1 bytes @ 0x2E
   816  004E                     	ds	1
   817  004F                     sprintf@prec:	
   818                           
   819                           ; 1 bytes @ 0x2F
   820  004F                     	ds	1
   821  0050                     sprintf@val:	
   822                           
   823                           ; 2 bytes @ 0x30
   824  0050                     	ds	1
   825  0051                     ??___flmul:	
   826                           
   827                           ; 1 bytes @ 0x31
   828  0051                     	ds	1
   829  0052                     sprintf@sp:	
   830                           
   831                           ; 1 bytes @ 0x32
   832  0052                     	ds	1
   833  0053                     sprintf@c:	
   834                           
   835                           ; 1 bytes @ 0x33
   836  0053                     	ds	3
   837  0056                     ___fltol@sign1:	
   838                           
   839                           ; 1 bytes @ 0x36
   840  0056                     	ds	1
   841  0057                     ___fltol@exp1:	
   842                           
   843                           ; 1 bytes @ 0x37
   844  0057                     	ds	1
   845  0058                     ??_getTemperature:	
   846                           
   847                           ; 1 bytes @ 0x38
   848  0058                     	ds	1
   849                           
   850                           	psect	maintext
   851  0BA0                     __pmaintext:	
   852 ;;
   853 ;;Main: autosize = 0, tempsize = 2, incstack = 0, save=0
   854 ;;
   855 ;; *************** function _main *****************
   856 ;; Defined at:
   857 ;;		line 335 in file "termometroDiferencial.c"
   858 ;; Parameters:    Size  Location     Type
   859 ;;		None
   860 ;; Auto vars:     Size  Location     Type
   861 ;;  leerTemperat    2   40[BANK1 ] int 
   862 ;; Return value:  Size  Location     Type
   863 ;;                  1    wreg      void 
   864 ;; Registers used:
   865 ;;		wreg, fsr0l, fsr0h, status,2, status,0, btemp+1, pclath, cstack
   866 ;; Tracked objects:
   867 ;;		On entry : B00/0
   868 ;;		On exit  : 0/0
   869 ;;		Unchanged: 0/0
   870 ;; Data sizes:     COMMON   BANK0   BANK1
   871 ;;      Params:         0       0       0
   872 ;;      Locals:         0       0       2
   873 ;;      Temps:          0       0       2
   874 ;;      Totals:         0       0       4
   875 ;;Total ram usage:        4 bytes
   876 ;; Hardware stack levels required when called:   12
   877 ;; This function calls:
   878 ;;		_conf
   879 ;;		_confTeclado
   880 ;;		_configTempMode
   881 ;;		_getTemperature
   882 ;;		_secuencia
   883 ;;		_wait
   884 ;;		_writeOnLCD
   885 ;; This function is called by:
   886 ;;		Startup code after reset
   887 ;; This function uses a non-reentrant model
   888 ;;
   889                           
   890                           
   891                           ;psect for function _main
   892  0BA0                     _main:	
   893  0BA0                     l2523:	
   894                           ;incstack = 0
   895 ;; hardware stack exceeded
   896                           ; Regs used in _main: [wreg-fsr0h+status,2+status,0+btemp+1+pclath+cstack]
   897                           
   898                           
   899                           ;termometroDiferencial.c: 336:     conf();
   900  0BA0  158A  227C  158A   	fcall	_conf
   901                           
   902                           ;termometroDiferencial.c: 337:     confTeclado();
   903  0BA3  158A  21D4  158A   	fcall	_confTeclado
   904  0BA6                     l2525:	
   905                           
   906                           ;termometroDiferencial.c: 339:     configTempMode();
   907  0BA6  158A  2401  158A   	fcall	_configTempMode
   908  0BA9                     l2527:	
   909                           
   910                           ;termometroDiferencial.c: 341:     int leerTemperatura = 1;
   911  0BA9  3001               	movlw	1
   912  0BAA  1683               	bsf	3,5	;RP0=1, select bank1
   913  0BAB  1303               	bcf	3,6	;RP1=0, select bank1
   914  0BAC  00C8               	movwf	main@leerTemperatura^(0+128)
   915  0BAD  3000               	movlw	0
   916  0BAE  00C9               	movwf	(main@leerTemperatura^(0+128)+1)
   917                           
   918                           ;termometroDiferencial.c: 342:     while (leerTemperatura) {
   919  0BAF  2BC1               	goto	l2533
   920  0BB0                     l2529:	
   921                           
   922                           ;termometroDiferencial.c: 343:         writeOnLCD(getTemperature());
   923  0BB0  158A  24EF  158A   	fcall	_getTemperature
   924  0BB3  1683               	bsf	3,5	;RP0=1, select bank1
   925  0BB4  1303               	bcf	3,6	;RP1=0, select bank1
   926  0BB5  00C6               	movwf	??_main^(0+128)
   927  0BB6  01C7               	clrf	(??_main^(0+128)+1)
   928  0BB7  0846               	movf	??_main^(0+128),w
   929  0BB8  00C4               	movwf	writeOnLCD@word^(0+128)
   930  0BB9  0847               	movf	(??_main^(0+128)+1),w
   931  0BBA  00C5               	movwf	(writeOnLCD@word+1)^(0+128)
   932  0BBB  158A  2233  158A   	fcall	_writeOnLCD
   933  0BBE                     l2531:	
   934                           
   935                           ;termometroDiferencial.c: 344:         secuencia();
   936  0BBE  158A  21DE  158A   	fcall	_secuencia
   937  0BC1                     l2533:	
   938                           
   939                           ;termometroDiferencial.c: 342:     while (leerTemperatura) {
   940  0BC1  1683               	bsf	3,5	;RP0=1, select bank1
   941  0BC2  1303               	bcf	3,6	;RP1=0, select bank1
   942  0BC3  0848               	movf	main@leerTemperatura^(0+128),w
   943  0BC4  0449               	iorwf	(main@leerTemperatura+1)^(0+128),w
   944  0BC5  1D03               	btfss	3,2
   945  0BC6  2BC8               	goto	u3111
   946  0BC7  2BC9               	goto	u3110
   947  0BC8                     u3111:	
   948  0BC8  2BB0               	goto	l2529
   949  0BC9                     u3110:	
   950  0BC9                     l2535:	
   951                           
   952                           ;termometroDiferencial.c: 347:     wait();
   953  0BC9  158A  21CC  158A   	fcall	_wait
   954  0BCC                     l180:	
   955  0BCC  118A  2811         	ljmp	start
   956  0BCE                     __end_of_main:	
   957                           
   958                           	psect	text1
   959  09CC                     __ptext1:	
   960 ;; *************** function _wait *****************
   961 ;; Defined at:
   962 ;;		line 18 in file "termometroDiferencial.c"
   963 ;; Parameters:    Size  Location     Type
   964 ;;		None
   965 ;; Auto vars:     Size  Location     Type
   966 ;;		None
   967 ;; Return value:  Size  Location     Type
   968 ;;                  1    wreg      void 
   969 ;; Registers used:
   970 ;;		None
   971 ;; Tracked objects:
   972 ;;		On entry : 0/0
   973 ;;		On exit  : 0/0
   974 ;;		Unchanged: 0/0
   975 ;; Data sizes:     COMMON   BANK0   BANK1
   976 ;;      Params:         0       0       0
   977 ;;      Locals:         0       0       0
   978 ;;      Temps:          0       0       0
   979 ;;      Totals:         0       0       0
   980 ;;Total ram usage:        0 bytes
   981 ;; Hardware stack levels used:    1
   982 ;; Hardware stack levels required when called:    6
   983 ;; This function calls:
   984 ;;		Nothing
   985 ;; This function is called by:
   986 ;;		_main
   987 ;; This function uses a non-reentrant model
   988 ;;
   989                           
   990                           
   991                           ;psect for function _wait
   992  09CC                     _wait:	
   993  09CC                     l63:	
   994                           ;incstack = 0
   995                           ; Regs used in _wait: []
   996                           ;termometroDiferencial.c: 19:     while (1);
   997                           
   998  09CC                     l64:	
   999  09CC  29CC               	goto	l63
  1000  09CD  0008               	return
  1001  09CE                     __end_of_wait:	
  1002                           
  1003                           	psect	text2
  1004  0CEF                     __ptext2:	
  1005 ;; *************** function _getTemperature *****************
  1006 ;; Defined at:
  1007 ;;		line 141 in file "termometroDiferencial.c"
  1008 ;; Parameters:    Size  Location     Type
  1009 ;;		None
  1010 ;; Auto vars:     Size  Location     Type
  1011 ;;  str            12   22[BANK1 ] unsigned char [12]
  1012 ;;  temp            2   34[BANK1 ] int 
  1013 ;; Return value:  Size  Location     Type
  1014 ;;                  1    wreg      unsigned char 
  1015 ;; Registers used:
  1016 ;;		wreg, fsr0l, fsr0h, status,2, status,0, btemp+1, pclath, cstack
  1017 ;; Tracked objects:
  1018 ;;		On entry : 0/0
  1019 ;;		On exit  : 0/0
  1020 ;;		Unchanged: 0/0
  1021 ;; Data sizes:     COMMON   BANK0   BANK1
  1022 ;;      Params:         0       0       0
  1023 ;;      Locals:         0       0      14
  1024 ;;      Temps:          0       1       0
  1025 ;;      Totals:         0       1      14
  1026 ;;Total ram usage:       15 bytes
  1027 ;; Hardware stack levels used:    1
  1028 ;; Hardware stack levels required when called:    8
  1029 ;; This function calls:
  1030 ;;		___flmul
  1031 ;;		___fltol
  1032 ;;		___xxtofl
  1033 ;;		_getVoltaje
  1034 ;;		_sprintf
  1035 ;;		_strcat
  1036 ;; This function is called by:
  1037 ;;		_main
  1038 ;; This function uses a non-reentrant model
  1039 ;;
  1040                           
  1041                           
  1042                           ;psect for function _getTemperature
  1043  0CEF                     _getTemperature:	
  1044  0CEF                     l2513:	
  1045                           ;incstack = 0
  1046 ;; hardware stack exceeded
  1047                           ; Regs used in _getTemperature: [wreg-fsr0h+status,2+status,0+btemp+1+pclath+cstack]
  1048                           
  1049                           
  1050                           ;termometroDiferencial.c: 142:     int temp;;termometroDiferencial.c: 143:     temp = ge
      +                          tVoltaje()*0.4887585532746823;
  1051  0CEF  158A  2243  158A   	fcall	_getVoltaje
  1052  0CF2  1283               	bcf	3,5	;RP0=0, select bank0
  1053  0CF3  1303               	bcf	3,6	;RP1=0, select bank0
  1054  0CF4  0839               	movf	?_getVoltaje,w
  1055  0CF5  00BB               	movwf	___xxtofl@val
  1056  0CF6  083A               	movf	?_getVoltaje+1,w
  1057  0CF7  00BC               	movwf	___xxtofl@val+1
  1058  0CF8  3000               	movlw	0
  1059  0CF9  1BBC               	btfsc	___xxtofl@val+1,7
  1060  0CFA  30FF               	movlw	255
  1061  0CFB  00BD               	movwf	___xxtofl@val+2
  1062  0CFC  00BE               	movwf	___xxtofl@val+3
  1063  0CFD  3001               	movlw	1
  1064  0CFE  158A  266A  158A   	fcall	___xxtofl
  1065  0D01  1283               	bcf	3,5	;RP0=0, select bank0
  1066  0D02  1303               	bcf	3,6	;RP1=0, select bank0
  1067  0D03  083E               	movf	?___xxtofl+3,w
  1068  0D04  00D0               	movwf	___flmul@a+3
  1069  0D05  083D               	movf	?___xxtofl+2,w
  1070  0D06  00CF               	movwf	___flmul@a+2
  1071  0D07  083C               	movf	?___xxtofl+1,w
  1072  0D08  00CE               	movwf	___flmul@a+1
  1073  0D09  083B               	movf	?___xxtofl,w
  1074  0D0A  00CD               	movwf	___flmul@a
  1075  0D0B  303E               	movlw	62
  1076  0D0C  00CC               	movwf	___flmul@b+3
  1077  0D0D  30FA               	movlw	250
  1078  0D0E  00CB               	movwf	___flmul@b+2
  1079  0D0F  303E               	movlw	62
  1080  0D10  00CA               	movwf	___flmul@b+1
  1081  0D11  3090               	movlw	144
  1082  0D12  00C9               	movwf	___flmul@b
  1083  0D13  118A  203F  158A   	fcall	___flmul
  1084  0D16  1283               	bcf	3,5	;RP0=0, select bank0
  1085  0D17  1303               	bcf	3,6	;RP1=0, select bank0
  1086  0D18  084C               	movf	?___flmul+3,w
  1087  0D19  1683               	bsf	3,5	;RP0=1, select bank1
  1088  0D1A  1303               	bcf	3,6	;RP1=0, select bank1
  1089  0D1B  00B0               	movwf	(___fltol@f1+3)^(0+128)
  1090  0D1C  1283               	bcf	3,5	;RP0=0, select bank0
  1091  0D1D  1303               	bcf	3,6	;RP1=0, select bank0
  1092  0D1E  084B               	movf	?___flmul+2,w
  1093  0D1F  1683               	bsf	3,5	;RP0=1, select bank1
  1094  0D20  1303               	bcf	3,6	;RP1=0, select bank1
  1095  0D21  00AF               	movwf	(___fltol@f1+2)^(0+128)
  1096  0D22  1283               	bcf	3,5	;RP0=0, select bank0
  1097  0D23  1303               	bcf	3,6	;RP1=0, select bank0
  1098  0D24  084A               	movf	?___flmul+1,w
  1099  0D25  1683               	bsf	3,5	;RP0=1, select bank1
  1100  0D26  1303               	bcf	3,6	;RP1=0, select bank1
  1101  0D27  00AE               	movwf	(___fltol@f1+1)^(0+128)
  1102  0D28  1283               	bcf	3,5	;RP0=0, select bank0
  1103  0D29  1303               	bcf	3,6	;RP1=0, select bank0
  1104  0D2A  0849               	movf	?___flmul,w
  1105  0D2B  1683               	bsf	3,5	;RP0=1, select bank1
  1106  0D2C  1303               	bcf	3,6	;RP1=0, select bank1
  1107  0D2D  00AD               	movwf	___fltol@f1^(0+128)
  1108  0D2E  158A  25D8  158A   	fcall	___fltol
  1109  0D31  1683               	bsf	3,5	;RP0=1, select bank1
  1110  0D32  1303               	bcf	3,6	;RP1=0, select bank1
  1111  0D33  082E               	movf	(?___fltol+1)^(0+128),w
  1112  0D34  00C3               	movwf	(getTemperature@temp+1)^(0+128)
  1113  0D35  082D               	movf	?___fltol^(0+128),w
  1114  0D36  00C2               	movwf	getTemperature@temp^(0+128)
  1115  0D37                     l2515:	
  1116                           
  1117                           ;termometroDiferencial.c: 144:     char str[12];;termometroDiferencial.c: 145:     sprin
      +                          tf(str, "%d", temp);
  1118  0D37  3022               	movlw	(low ((STR_1-__stringbase)| (0+32768)))& (0+255)
  1119  0D38  1283               	bcf	3,5	;RP0=0, select bank0
  1120  0D39  1303               	bcf	3,6	;RP1=0, select bank0
  1121  0D3A  00D8               	movwf	??_getTemperature
  1122  0D3B  0858               	movf	??_getTemperature,w
  1123  0D3C  00C7               	movwf	sprintf@f
  1124  0D3D  1683               	bsf	3,5	;RP0=1, select bank1
  1125  0D3E  1303               	bcf	3,6	;RP1=0, select bank1
  1126  0D3F  0843               	movf	(getTemperature@temp+1)^(0+128),w
  1127  0D40  1283               	bcf	3,5	;RP0=0, select bank0
  1128  0D41  1303               	bcf	3,6	;RP1=0, select bank0
  1129  0D42  00C9               	movwf	?_sprintf+2
  1130  0D43  1683               	bsf	3,5	;RP0=1, select bank1
  1131  0D44  1303               	bcf	3,6	;RP1=0, select bank1
  1132  0D45  0842               	movf	getTemperature@temp^(0+128),w
  1133  0D46  1283               	bcf	3,5	;RP0=0, select bank0
  1134  0D47  1303               	bcf	3,6	;RP1=0, select bank0
  1135  0D48  00C8               	movwf	?_sprintf+1
  1136  0D49  30B6               	movlw	(low (getTemperature@str| 0))& (0+255)
  1137  0D4A  158A  2726  158A   	fcall	_sprintf
  1138  0D4D                     l2517:	
  1139                           
  1140                           ;termometroDiferencial.c: 146:     strcat(str, "'C");
  1141  0D4D  301F               	movlw	(low ((STR_2-__stringbase)| (0+32768)))& (0+255)
  1142  0D4E  1283               	bcf	3,5	;RP0=0, select bank0
  1143  0D4F  1303               	bcf	3,6	;RP1=0, select bank0
  1144  0D50  00D8               	movwf	??_getTemperature
  1145  0D51  0858               	movf	??_getTemperature,w
  1146  0D52  00B9               	movwf	strcat@from
  1147  0D53  30B6               	movlw	(low (getTemperature@str| 0))& (0+255)
  1148  0D54  158A  2373  158A   	fcall	_strcat
  1149  0D57                     l2519:	
  1150                           
  1151                           ;termometroDiferencial.c: 147:     return str;
  1152  0D57  30B6               	movlw	(low getTemperature@str)& (0+255)
  1153  0D58                     l105:	
  1154  0D58  0008               	return
  1155  0D59                     __end_of_getTemperature:	
  1156                           
  1157                           	psect	text3
  1158  0B73                     __ptext3:	
  1159 ;; *************** function _strcat *****************
  1160 ;; Defined at:
  1161 ;;		line 8 in file "C:\Program Files (x86)\Microchip\xc8\v2.10\pic\sources\c90\common\strcat.c"
  1162 ;; Parameters:    Size  Location     Type
  1163 ;;  to              1    wreg     PTR unsigned char 
  1164 ;;		 -> getTemperature@str(12), 
  1165 ;;  from            1   25[BANK0 ] PTR const unsigned char 
  1166 ;;		 -> STR_2(3), 
  1167 ;; Auto vars:     Size  Location     Type
  1168 ;;  to              1   27[BANK0 ] PTR unsigned char 
  1169 ;;		 -> getTemperature@str(12), 
  1170 ;;  cp              1   28[BANK0 ] PTR unsigned char 
  1171 ;;		 -> getTemperature@str(12), 
  1172 ;; Return value:  Size  Location     Type
  1173 ;;                  1    wreg      PTR unsigned char 
  1174 ;; Registers used:
  1175 ;;		wreg, fsr0l, fsr0h, status,2, status,0, pclath
  1176 ;; Tracked objects:
  1177 ;;		On entry : 0/0
  1178 ;;		On exit  : 0/0
  1179 ;;		Unchanged: 0/0
  1180 ;; Data sizes:     COMMON   BANK0   BANK1
  1181 ;;      Params:         0       1       0
  1182 ;;      Locals:         0       2       0
  1183 ;;      Temps:          0       1       0
  1184 ;;      Totals:         0       4       0
  1185 ;;Total ram usage:        4 bytes
  1186 ;; Hardware stack levels used:    1
  1187 ;; Hardware stack levels required when called:    6
  1188 ;; This function calls:
  1189 ;;		Nothing
  1190 ;; This function is called by:
  1191 ;;		_getTemperature
  1192 ;; This function uses a non-reentrant model
  1193 ;;
  1194                           
  1195                           
  1196                           ;psect for function _strcat
  1197  0B73                     _strcat:	
  1198                           
  1199                           ;incstack = 0
  1200 ;; using string table level
  1201                           ; Regs used in _strcat: [wreg-fsr0h+status,2+status,0+pclath]
  1202                           ;strcat@to stored from wreg
  1203  0B73  1283               	bcf	3,5	;RP0=0, select bank0
  1204  0B74  1303               	bcf	3,6	;RP1=0, select bank0
  1205  0B75  00BB               	movwf	strcat@to
  1206  0B76                     l1845:	
  1207  0B76  083B               	movf	strcat@to,w
  1208  0B77  00BA               	movwf	??_strcat
  1209  0B78  083A               	movf	??_strcat,w
  1210  0B79  00BC               	movwf	strcat@cp
  1211  0B7A  2B7F               	goto	l1849
  1212  0B7B                     l1847:	
  1213  0B7B  3001               	movlw	1
  1214  0B7C  00BA               	movwf	??_strcat
  1215  0B7D  083A               	movf	??_strcat,w
  1216  0B7E  07BC               	addwf	strcat@cp,f
  1217  0B7F                     l1849:	
  1218  0B7F  083C               	movf	strcat@cp,w
  1219  0B80  0084               	movwf	4
  1220  0B81  1383               	bcf	3,7	;select IRP bank0
  1221  0B82  0800               	movf	0,w
  1222  0B83  1D03               	btfss	3,2
  1223  0B84  2B86               	goto	u1761
  1224  0B85  2B87               	goto	u1760
  1225  0B86                     u1761:	
  1226  0B86  2B7B               	goto	l1847
  1227  0B87                     u1760:	
  1228  0B87  2B90               	goto	l1853
  1229  0B88                     l1851:	
  1230  0B88  3001               	movlw	1
  1231  0B89  00BA               	movwf	??_strcat
  1232  0B8A  083A               	movf	??_strcat,w
  1233  0B8B  07BC               	addwf	strcat@cp,f
  1234  0B8C  3001               	movlw	1
  1235  0B8D  00BA               	movwf	??_strcat
  1236  0B8E  083A               	movf	??_strcat,w
  1237  0B8F  07B9               	addwf	strcat@from,f
  1238  0B90                     l1853:	
  1239  0B90  0839               	movf	strcat@from,w
  1240  0B91  0084               	movwf	4
  1241  0B92  158A  200A  158A   	fcall	stringdir
  1242  0B95  00BA               	movwf	??_strcat
  1243  0B96  083C               	movf	strcat@cp,w
  1244  0B97  0084               	movwf	4
  1245  0B98  083A               	movf	??_strcat,w
  1246  0B99  0080               	movwf	0
  1247  0B9A  0800               	movf	0,w
  1248  0B9B  1D03               	btfss	3,2
  1249  0B9C  2B9E               	goto	u1771
  1250  0B9D  2B9F               	goto	u1770
  1251  0B9E                     u1771:	
  1252  0B9E  2B88               	goto	l1851
  1253  0B9F                     u1770:	
  1254  0B9F                     l765:	
  1255  0B9F  0008               	return
  1256  0BA0                     __end_of_strcat:	
  1257                           
  1258                           	psect	text4
  1259  0F26                     __ptext4:	
  1260 ;; *************** function _sprintf *****************
  1261 ;; Defined at:
  1262 ;;		line 505 in file "C:\Program Files (x86)\Microchip\xc8\v2.10\pic\sources\c90\common\doprnt.c"
  1263 ;; Parameters:    Size  Location     Type
  1264 ;;  sp              1    wreg     PTR unsigned char 
  1265 ;;		 -> getTemperature@str(12), 
  1266 ;;  f               1   39[BANK0 ] PTR const unsigned char 
  1267 ;;		 -> STR_1(3), 
  1268 ;; Auto vars:     Size  Location     Type
  1269 ;;  sp              1   50[BANK0 ] PTR unsigned char 
  1270 ;;		 -> getTemperature@str(12), 
  1271 ;;  tmpval          4    0        struct .
  1272 ;;  val             2   48[BANK0 ] unsigned int 
  1273 ;;  cp              2    0        PTR const unsigned char 
  1274 ;;  len             2    0        unsigned int 
  1275 ;;  c               1   51[BANK0 ] unsigned char 
  1276 ;;  prec            1   47[BANK0 ] char 
  1277 ;;  flag            1   46[BANK0 ] unsigned char 
  1278 ;;  ap              1   45[BANK0 ] PTR void [1]
  1279 ;;		 -> ?_sprintf(2), 
  1280 ;; Return value:  Size  Location     Type
  1281 ;;                  2   39[BANK0 ] int 
  1282 ;; Registers used:
  1283 ;;		wreg, fsr0l, fsr0h, status,2, status,0, btemp+1, pclath, cstack
  1284 ;; Tracked objects:
  1285 ;;		On entry : 0/0
  1286 ;;		On exit  : 0/0
  1287 ;;		Unchanged: 0/0
  1288 ;; Data sizes:     COMMON   BANK0   BANK1
  1289 ;;      Params:         0       3       0
  1290 ;;      Locals:         0       7       0
  1291 ;;      Temps:          0       3       0
  1292 ;;      Totals:         0      13       0
  1293 ;;Total ram usage:       13 bytes
  1294 ;; Hardware stack levels used:    1
  1295 ;; Hardware stack levels required when called:    7
  1296 ;; This function calls:
  1297 ;;		___lwdiv
  1298 ;;		___lwmod
  1299 ;; This function is called by:
  1300 ;;		_getTemperature
  1301 ;; This function uses a non-reentrant model
  1302 ;;
  1303                           
  1304                           
  1305                           ;psect for function _sprintf
  1306  0F26                     _sprintf:	
  1307                           
  1308                           ;incstack = 0
  1309 ;; hardware stack exceeded
  1310                           ; Regs used in _sprintf: [wreg-fsr0h+status,2+status,0+btemp+1+pclath+cstack]
  1311                           ;sprintf@sp stored from wreg
  1312  0F26  1283               	bcf	3,5	;RP0=0, select bank0
  1313  0F27  1303               	bcf	3,6	;RP1=0, select bank0
  1314  0F28  00D2               	movwf	sprintf@sp
  1315  0F29                     l1783:	
  1316                           
  1317                           ;C:\Program Files (x86)\Microchip\xc8\v2.10\pic\sources\c90\common\doprnt.c: 505: sprint
      +                          f(char * sp, const char * f, ...);C:\Program Files (x86)\Microchip\xc8\v2.10\pic\sources
      +                          \c90\common\doprnt.c: 506: {;C:\Program Files (x86)\Microchip\xc8\v2.10\pic\sources\c90\
      +                          common\doprnt.c: 507:  va_list ap;;C:\Program Files (x86)\Microchip\xc8\v2.10\pic\source
      +                          s\c90\common\doprnt.c: 512:  char c;;C:\Program Files (x86)\Microchip\xc8\v2.10\pic\sour
      +                          ces\c90\common\doprnt.c: 521:  signed char prec;;C:\Program Files (x86)\Microchip\xc8\v2
      +                          .10\pic\sources\c90\common\doprnt.c: 525:  unsigned char flag;
  1318  0F29  3048               	movlw	(low ((?_sprintf| 0+1)))& (0+255)
  1319  0F2A  00CA               	movwf	??_sprintf
  1320  0F2B  084A               	movf	??_sprintf,w
  1321  0F2C  00CD               	movwf	sprintf@ap
  1322                           
  1323                           ;C:\Program Files (x86)\Microchip\xc8\v2.10\pic\sources\c90\common\doprnt.c: 553:  while
      +                          ((c = *f++)) {
  1324  0F2D  2FEB               	goto	l1835
  1325  0F2E                     l1785:	
  1326                           
  1327                           ;C:\Program Files (x86)\Microchip\xc8\v2.10\pic\sources\c90\common\doprnt.c: 555:   if(c
      +                           != '%')
  1328  0F2E  3025               	movlw	37
  1329  0F2F  0653               	xorwf	sprintf@c,w
  1330  0F30  1903               	btfsc	3,2
  1331  0F31  2F33               	goto	u1691
  1332  0F32  2F34               	goto	u1690
  1333  0F33                     u1691:	
  1334  0F33  2F40               	goto	l1791
  1335  0F34                     u1690:	
  1336  0F34                     l1787:	
  1337                           
  1338                           ;C:\Program Files (x86)\Microchip\xc8\v2.10\pic\sources\c90\common\doprnt.c: 557:   {;C:
      +                          \Program Files (x86)\Microchip\xc8\v2.10\pic\sources\c90\common\doprnt.c: 558:    ((*sp+
      +                          + = (c)));
  1339  0F34  0853               	movf	sprintf@c,w
  1340  0F35  00CA               	movwf	??_sprintf
  1341  0F36  0852               	movf	sprintf@sp,w
  1342  0F37  0084               	movwf	4
  1343  0F38  084A               	movf	??_sprintf,w
  1344  0F39  1383               	bcf	3,7	;select IRP bank0
  1345  0F3A  0080               	movwf	0
  1346  0F3B                     l1789:	
  1347  0F3B  3001               	movlw	1
  1348  0F3C  00CA               	movwf	??_sprintf
  1349  0F3D  084A               	movf	??_sprintf,w
  1350  0F3E  07D2               	addwf	sprintf@sp,f
  1351                           
  1352                           ;C:\Program Files (x86)\Microchip\xc8\v2.10\pic\sources\c90\common\doprnt.c: 559:    con
      +                          tinue;
  1353  0F3F  2FEB               	goto	l1835
  1354  0F40                     l1791:	
  1355                           
  1356                           ;C:\Program Files (x86)\Microchip\xc8\v2.10\pic\sources\c90\common\doprnt.c: 565:   flag
      +                           = 0;
  1357  0F40  01CE               	clrf	sprintf@flag
  1358  0F41                     l1795:	
  1359                           ;C:\Program Files (x86)\Microchip\xc8\v2.10\pic\sources\c90\common\doprnt.c: 661:   swit
      +                          ch(c = *f++) {
  1360                           
  1361  0F41  3001               	movlw	1
  1362  0F42  07C7               	addwf	sprintf@f,f
  1363  0F43  30FF               	movlw	-1
  1364  0F44  0747               	addwf	sprintf@f,w
  1365  0F45  0084               	movwf	4
  1366  0F46  158A  200A  158A   	fcall	stringdir
  1367  0F49  00D3               	movwf	sprintf@c
  1368  0F4A  00CA               	movwf	??_sprintf
  1369  0F4B  01CB               	clrf	??_sprintf+1
  1370                           
  1371                           ; Switch on 2 bytes has been partitioned into a top level switch of size 1, and 1 sub-sw
      +                          itches
  1372                           ; Switch size 1, requested type "simple"
  1373                           ; Number of cases is 1, Range of values is 0 to 0
  1374                           ; switch strategies available:
  1375                           ; Name         Instructions Cycles
  1376                           ; simple_byte            4     3 (average)
  1377                           ; direct_byte            9     7 (fixed)
  1378                           ; jumptable            260     6 (fixed)
  1379                           ;	Chosen strategy is simple_byte
  1380  0F4C  084B               	movf	??_sprintf+1,w
  1381  0F4D  3A00               	xorlw	0	; case 0
  1382  0F4E  1903               	skipnz
  1383  0F4F  2F51               	goto	l2579
  1384  0F50  2FEB               	goto	l1835
  1385  0F51                     l2579:	
  1386                           
  1387                           ; Switch size 1, requested type "simple"
  1388                           ; Number of cases is 3, Range of values is 0 to 105
  1389                           ; switch strategies available:
  1390                           ; Name         Instructions Cycles
  1391                           ; simple_byte           10     6 (average)
  1392                           ; direct_byte          219     7 (fixed)
  1393                           ; jumptable            260     6 (fixed)
  1394                           ;	Chosen strategy is simple_byte
  1395  0F51  084A               	movf	??_sprintf,w
  1396  0F52  3A00               	xorlw	0	; case 0
  1397  0F53  1903               	skipnz
  1398  0F54  2FFB               	goto	l1837
  1399  0F55  3A64               	xorlw	100	; case 100
  1400  0F56  1903               	skipnz
  1401  0F57  2F5C               	goto	l1797
  1402  0F58  3A0D               	xorlw	13	; case 105
  1403  0F59  1903               	skipnz
  1404  0F5A  2F5C               	goto	l1797
  1405  0F5B  2FEB               	goto	l1835
  1406  0F5C                     l1797:	
  1407                           
  1408                           ;C:\Program Files (x86)\Microchip\xc8\v2.10\pic\sources\c90\common\doprnt.c: 1279:   {;C
      +                          :\Program Files (x86)\Microchip\xc8\v2.10\pic\sources\c90\common\doprnt.c: 1285:     val
      +                           = (unsigned int)(*(int *)__va_arg((*(int **)ap), (int)0));
  1409  0F5C  084D               	movf	sprintf@ap,w
  1410  0F5D  0084               	movwf	4
  1411  0F5E  1383               	bcf	3,7	;select IRP bank0
  1412  0F5F  0800               	movf	0,w
  1413  0F60  00D0               	movwf	sprintf@val
  1414  0F61  0A84               	incf	4,f
  1415  0F62  0800               	movf	0,w
  1416  0F63  00D1               	movwf	sprintf@val+1
  1417  0F64                     l1799:	
  1418  0F64  3002               	movlw	2
  1419  0F65  00CA               	movwf	??_sprintf
  1420  0F66  084A               	movf	??_sprintf,w
  1421  0F67  07CD               	addwf	sprintf@ap,f
  1422  0F68                     l1801:	
  1423                           
  1424                           ;C:\Program Files (x86)\Microchip\xc8\v2.10\pic\sources\c90\common\doprnt.c: 1287:    if
      +                          ((int)val < 0) {
  1425  0F68  1FD1               	btfss	sprintf@val+1,7
  1426  0F69  2F6B               	goto	u1701
  1427  0F6A  2F6C               	goto	u1700
  1428  0F6B                     u1701:	
  1429  0F6B  2F75               	goto	l1807
  1430  0F6C                     u1700:	
  1431  0F6C                     l1803:	
  1432                           
  1433                           ;C:\Program Files (x86)\Microchip\xc8\v2.10\pic\sources\c90\common\doprnt.c: 1288:     f
      +                          lag |= 0x03;
  1434  0F6C  3003               	movlw	3
  1435  0F6D  00CA               	movwf	??_sprintf
  1436  0F6E  084A               	movf	??_sprintf,w
  1437  0F6F  04CE               	iorwf	sprintf@flag,f
  1438  0F70                     l1805:	
  1439                           
  1440                           ;C:\Program Files (x86)\Microchip\xc8\v2.10\pic\sources\c90\common\doprnt.c: 1289:     v
      +                          al = -val;
  1441  0F70  09D0               	comf	sprintf@val,f
  1442  0F71  09D1               	comf	sprintf@val+1,f
  1443  0F72  0AD0               	incf	sprintf@val,f
  1444  0F73  1903               	skipnz
  1445  0F74  0AD1               	incf	sprintf@val+1,f
  1446  0F75                     l1807:	
  1447                           
  1448                           ;C:\Program Files (x86)\Microchip\xc8\v2.10\pic\sources\c90\common\doprnt.c: 1292:   };C
      +                          :\Program Files (x86)\Microchip\xc8\v2.10\pic\sources\c90\common\doprnt.c: 1331:    for(
      +                          c = 1 ; c != sizeof dpowers/sizeof dpowers[0] ; c++)
  1449  0F75  01D3               	clrf	sprintf@c
  1450  0F76  0AD3               	incf	sprintf@c,f
  1451  0F77                     l1813:	
  1452                           
  1453                           ;C:\Program Files (x86)\Microchip\xc8\v2.10\pic\sources\c90\common\doprnt.c: 1332:     i
      +                          f(val < dpowers[c])
  1454  0F77  0853               	movf	sprintf@c,w
  1455  0F78  00CA               	movwf	??_sprintf
  1456  0F79  074A               	addwf	??_sprintf,w
  1457  0F7A  3E01               	addlw	low ((_dpowers-__stringbase)| (0+32768))
  1458  0F7B  0084               	movwf	4
  1459  0F7C  158A  200A  158A   	fcall	stringdir
  1460  0F7F  00CB               	movwf	??_sprintf+1
  1461  0F80  158A  200A  158A   	fcall	stringdir
  1462  0F83  00CC               	movwf	??_sprintf+2
  1463  0F84  084C               	movf	??_sprintf+2,w
  1464  0F85  0251               	subwf	sprintf@val+1,w
  1465  0F86  1D03               	skipz
  1466  0F87  2F8A               	goto	u1715
  1467  0F88  084B               	movf	??_sprintf+1,w
  1468  0F89  0250               	subwf	sprintf@val,w
  1469  0F8A                     u1715:	
  1470  0F8A  1803               	skipnc
  1471  0F8B  2F8D               	goto	u1711
  1472  0F8C  2F8E               	goto	u1710
  1473  0F8D                     u1711:	
  1474  0F8D  2F8F               	goto	l1817
  1475  0F8E                     u1710:	
  1476  0F8E  2F99               	goto	l1819
  1477  0F8F                     l1817:	
  1478  0F8F  3001               	movlw	1
  1479  0F90  00CA               	movwf	??_sprintf
  1480  0F91  084A               	movf	??_sprintf,w
  1481  0F92  07D3               	addwf	sprintf@c,f
  1482  0F93  3005               	movlw	5
  1483  0F94  0653               	xorwf	sprintf@c,w
  1484  0F95  1D03               	btfss	3,2
  1485  0F96  2F98               	goto	u1721
  1486  0F97  2F99               	goto	u1720
  1487  0F98                     u1721:	
  1488  0F98  2F77               	goto	l1813
  1489  0F99                     u1720:	
  1490  0F99                     l1819:	
  1491                           
  1492                           ;C:\Program Files (x86)\Microchip\xc8\v2.10\pic\sources\c90\common\doprnt.c: 1448:   {;C
      +                          :\Program Files (x86)\Microchip\xc8\v2.10\pic\sources\c90\common\doprnt.c: 1464:    if(f
      +                          lag & 0x03)
  1493  0F99  084E               	movf	sprintf@flag,w
  1494  0F9A  3903               	andlw	3
  1495  0F9B  1903               	btfsc	3,2
  1496  0F9C  2F9E               	goto	u1731
  1497  0F9D  2F9F               	goto	u1730
  1498  0F9E                     u1731:	
  1499  0F9E  2FAA               	goto	l1825
  1500  0F9F                     u1730:	
  1501  0F9F                     l1821:	
  1502                           
  1503                           ;C:\Program Files (x86)\Microchip\xc8\v2.10\pic\sources\c90\common\doprnt.c: 1465:     (
      +                          (*sp++ = ('-')));
  1504  0F9F  302D               	movlw	45
  1505  0FA0  00CA               	movwf	??_sprintf
  1506  0FA1  0852               	movf	sprintf@sp,w
  1507  0FA2  0084               	movwf	4
  1508  0FA3  084A               	movf	??_sprintf,w
  1509  0FA4  1383               	bcf	3,7	;select IRP bank0
  1510  0FA5  0080               	movwf	0
  1511  0FA6                     l1823:	
  1512  0FA6  3001               	movlw	1
  1513  0FA7  00CA               	movwf	??_sprintf
  1514  0FA8  084A               	movf	??_sprintf,w
  1515  0FA9  07D2               	addwf	sprintf@sp,f
  1516  0FAA                     l1825:	
  1517                           
  1518                           ;C:\Program Files (x86)\Microchip\xc8\v2.10\pic\sources\c90\common\doprnt.c: 1495:   };C
      +                          :\Program Files (x86)\Microchip\xc8\v2.10\pic\sources\c90\common\doprnt.c: 1498:   prec 
      +                          = c;
  1519  0FAA  0853               	movf	sprintf@c,w
  1520  0FAB  00CA               	movwf	??_sprintf
  1521  0FAC  084A               	movf	??_sprintf,w
  1522  0FAD  00CF               	movwf	sprintf@prec
  1523                           
  1524                           ;C:\Program Files (x86)\Microchip\xc8\v2.10\pic\sources\c90\common\doprnt.c: 1500:   whi
      +                          le(prec--) {
  1525  0FAE  2FE2               	goto	l1833
  1526  0FAF                     l1827:	
  1527                           
  1528                           ;C:\Program Files (x86)\Microchip\xc8\v2.10\pic\sources\c90\common\doprnt.c: 1504:    {;
      +                          C:\Program Files (x86)\Microchip\xc8\v2.10\pic\sources\c90\common\doprnt.c: 1515:     c 
      +                          = (val / dpowers[(unsigned char)prec]) % 10 + '0';
  1529  0FAF  300A               	movlw	10
  1530  0FB0  00C1               	movwf	___lwmod@divisor
  1531  0FB1  3000               	movlw	0
  1532  0FB2  00C2               	movwf	___lwmod@divisor+1
  1533  0FB3  084F               	movf	sprintf@prec,w
  1534  0FB4  00CA               	movwf	??_sprintf
  1535  0FB5  074A               	addwf	??_sprintf,w
  1536  0FB6  3E01               	addlw	low ((_dpowers-__stringbase)| (0+32768))
  1537  0FB7  0084               	movwf	4
  1538  0FB8  158A  200A  158A   	fcall	stringdir
  1539  0FBB  00B9               	movwf	___lwdiv@divisor
  1540  0FBC  158A  200A  158A   	fcall	stringdir
  1541  0FBF  00BA               	movwf	___lwdiv@divisor+1
  1542  0FC0  0851               	movf	sprintf@val+1,w
  1543  0FC1  00BC               	movwf	___lwdiv@dividend+1
  1544  0FC2  0850               	movf	sprintf@val,w
  1545  0FC3  00BB               	movwf	___lwdiv@dividend
  1546  0FC4  118A  27A5  158A   	fcall	___lwdiv
  1547  0FC7  1283               	bcf	3,5	;RP0=0, select bank0
  1548  0FC8  1303               	bcf	3,6	;RP1=0, select bank0
  1549  0FC9  083A               	movf	?___lwdiv+1,w
  1550  0FCA  00C4               	movwf	___lwmod@dividend+1
  1551  0FCB  0839               	movf	?___lwdiv,w
  1552  0FCC  00C3               	movwf	___lwmod@dividend
  1553  0FCD  158A  2435  158A   	fcall	___lwmod
  1554  0FD0  1283               	bcf	3,5	;RP0=0, select bank0
  1555  0FD1  1303               	bcf	3,6	;RP1=0, select bank0
  1556  0FD2  0841               	movf	?___lwmod,w
  1557  0FD3  3E30               	addlw	48
  1558  0FD4  00CB               	movwf	??_sprintf+1
  1559  0FD5  084B               	movf	??_sprintf+1,w
  1560  0FD6  00D3               	movwf	sprintf@c
  1561  0FD7                     l1829:	
  1562                           
  1563                           ;C:\Program Files (x86)\Microchip\xc8\v2.10\pic\sources\c90\common\doprnt.c: 1549:    };
      +                          C:\Program Files (x86)\Microchip\xc8\v2.10\pic\sources\c90\common\doprnt.c: 1550:    ((*
      +                          sp++ = (c)));
  1564  0FD7  0853               	movf	sprintf@c,w
  1565  0FD8  00CA               	movwf	??_sprintf
  1566  0FD9  0852               	movf	sprintf@sp,w
  1567  0FDA  0084               	movwf	4
  1568  0FDB  084A               	movf	??_sprintf,w
  1569  0FDC  1383               	bcf	3,7	;select IRP bank0
  1570  0FDD  0080               	movwf	0
  1571  0FDE                     l1831:	
  1572  0FDE  3001               	movlw	1
  1573  0FDF  00CA               	movwf	??_sprintf
  1574  0FE0  084A               	movf	??_sprintf,w
  1575  0FE1  07D2               	addwf	sprintf@sp,f
  1576  0FE2                     l1833:	
  1577                           
  1578                           ;C:\Program Files (x86)\Microchip\xc8\v2.10\pic\sources\c90\common\doprnt.c: 1500:   whi
      +                          le(prec--) {
  1579  0FE2  30FF               	movlw	255
  1580  0FE3  00CA               	movwf	??_sprintf
  1581  0FE4  084A               	movf	??_sprintf,w
  1582  0FE5  07CF               	addwf	sprintf@prec,f
  1583  0FE6  0A4F               	incf	sprintf@prec,w
  1584  0FE7  1D03               	btfss	3,2
  1585  0FE8  2FEA               	goto	u1741
  1586  0FE9  2FEB               	goto	u1740
  1587  0FEA                     u1741:	
  1588  0FEA  2FAF               	goto	l1827
  1589  0FEB                     u1740:	
  1590  0FEB                     l1835:	
  1591                           
  1592                           ;C:\Program Files (x86)\Microchip\xc8\v2.10\pic\sources\c90\common\doprnt.c: 553:  while
      +                          ((c = *f++)) {
  1593  0FEB  3001               	movlw	1
  1594  0FEC  07C7               	addwf	sprintf@f,f
  1595  0FED  30FF               	movlw	-1
  1596  0FEE  0747               	addwf	sprintf@f,w
  1597  0FEF  0084               	movwf	4
  1598  0FF0  158A  200A  158A   	fcall	stringdir
  1599  0FF3  00CA               	movwf	??_sprintf
  1600  0FF4  084A               	movf	??_sprintf,w
  1601  0FF5  00D3               	movwf	sprintf@c
  1602  0FF6  0853               	movf	sprintf@c,w
  1603  0FF7  1D03               	btfss	3,2
  1604  0FF8  2FFA               	goto	u1751
  1605  0FF9  2FFB               	goto	u1750
  1606  0FFA                     u1751:	
  1607  0FFA  2F2E               	goto	l1785
  1608  0FFB                     u1750:	
  1609  0FFB                     l1837:	
  1610                           
  1611                           ;C:\Program Files (x86)\Microchip\xc8\v2.10\pic\sources\c90\common\doprnt.c: 1564:  *sp 
      +                          = 0;
  1612  0FFB  0852               	movf	sprintf@sp,w
  1613  0FFC  0084               	movwf	4
  1614  0FFD  1383               	bcf	3,7	;select IRP bank0
  1615  0FFE  0180               	clrf	0
  1616  0FFF                     l290:	
  1617  0FFF  0008               	return
  1618  1000                     __end_of_sprintf:	
  1619                           
  1620                           	psect	text5
  1621  0C35                     __ptext5:	
  1622 ;; *************** function ___lwmod *****************
  1623 ;; Defined at:
  1624 ;;		line 5 in file "C:\Program Files (x86)\Microchip\xc8\v2.10\pic\sources\c90\common\lwmod.c"
  1625 ;; Parameters:    Size  Location     Type
  1626 ;;  divisor         2   33[BANK0 ] unsigned int 
  1627 ;;  dividend        2   35[BANK0 ] unsigned int 
  1628 ;; Auto vars:     Size  Location     Type
  1629 ;;  counter         1   38[BANK0 ] unsigned char 
  1630 ;; Return value:  Size  Location     Type
  1631 ;;                  2   33[BANK0 ] unsigned int 
  1632 ;; Registers used:
  1633 ;;		wreg, status,2, status,0
  1634 ;; Tracked objects:
  1635 ;;		On entry : 0/0
  1636 ;;		On exit  : 0/0
  1637 ;;		Unchanged: 0/0
  1638 ;; Data sizes:     COMMON   BANK0   BANK1
  1639 ;;      Params:         0       4       0
  1640 ;;      Locals:         0       1       0
  1641 ;;      Temps:          0       1       0
  1642 ;;      Totals:         0       6       0
  1643 ;;Total ram usage:        6 bytes
  1644 ;; Hardware stack levels used:    1
  1645 ;; Hardware stack levels required when called:    6
  1646 ;; This function calls:
  1647 ;;		Nothing
  1648 ;; This function is called by:
  1649 ;;		_sprintf
  1650 ;; This function uses a non-reentrant model
  1651 ;;
  1652                           
  1653                           
  1654                           ;psect for function ___lwmod
  1655  0C35                     ___lwmod:	
  1656  0C35                     l1713:	
  1657                           ;incstack = 0
  1658 ;; hardware stack exceeded
  1659                           ; Regs used in ___lwmod: [wreg+status,2+status,0]
  1660                           
  1661  0C35  1283               	bcf	3,5	;RP0=0, select bank0
  1662  0C36  1303               	bcf	3,6	;RP1=0, select bank0
  1663  0C37  0841               	movf	___lwmod@divisor,w
  1664  0C38  0442               	iorwf	___lwmod@divisor+1,w
  1665  0C39  1903               	btfsc	3,2
  1666  0C3A  2C3C               	goto	u1571
  1667  0C3B  2C3D               	goto	u1570
  1668  0C3C                     u1571:	
  1669  0C3C  2C6C               	goto	l1731
  1670  0C3D                     u1570:	
  1671  0C3D                     l1715:	
  1672  0C3D  01C6               	clrf	___lwmod@counter
  1673  0C3E  0AC6               	incf	___lwmod@counter,f
  1674  0C3F  2C4B               	goto	l1721
  1675  0C40                     l1717:	
  1676  0C40  3001               	movlw	1
  1677  0C41                     u1585:	
  1678  0C41  1003               	clrc
  1679  0C42  0DC1               	rlf	___lwmod@divisor,f
  1680  0C43  0DC2               	rlf	___lwmod@divisor+1,f
  1681  0C44  3EFF               	addlw	-1
  1682  0C45  1D03               	skipz
  1683  0C46  2C41               	goto	u1585
  1684  0C47                     l1719:	
  1685  0C47  3001               	movlw	1
  1686  0C48  00C5               	movwf	??___lwmod
  1687  0C49  0845               	movf	??___lwmod,w
  1688  0C4A  07C6               	addwf	___lwmod@counter,f
  1689  0C4B                     l1721:	
  1690  0C4B  1FC2               	btfss	___lwmod@divisor+1,7
  1691  0C4C  2C4E               	goto	u1591
  1692  0C4D  2C4F               	goto	u1590
  1693  0C4E                     u1591:	
  1694  0C4E  2C40               	goto	l1717
  1695  0C4F                     u1590:	
  1696  0C4F                     l1723:	
  1697  0C4F  0842               	movf	___lwmod@divisor+1,w
  1698  0C50  0244               	subwf	___lwmod@dividend+1,w
  1699  0C51  1D03               	skipz
  1700  0C52  2C55               	goto	u1605
  1701  0C53  0841               	movf	___lwmod@divisor,w
  1702  0C54  0243               	subwf	___lwmod@dividend,w
  1703  0C55                     u1605:	
  1704  0C55  1C03               	skipc
  1705  0C56  2C58               	goto	u1601
  1706  0C57  2C59               	goto	u1600
  1707  0C58                     u1601:	
  1708  0C58  2C5F               	goto	l1727
  1709  0C59                     u1600:	
  1710  0C59                     l1725:	
  1711  0C59  0841               	movf	___lwmod@divisor,w
  1712  0C5A  02C3               	subwf	___lwmod@dividend,f
  1713  0C5B  0842               	movf	___lwmod@divisor+1,w
  1714  0C5C  1C03               	skipc
  1715  0C5D  03C4               	decf	___lwmod@dividend+1,f
  1716  0C5E  02C4               	subwf	___lwmod@dividend+1,f
  1717  0C5F                     l1727:	
  1718  0C5F  3001               	movlw	1
  1719  0C60                     u1615:	
  1720  0C60  1003               	clrc
  1721  0C61  0CC2               	rrf	___lwmod@divisor+1,f
  1722  0C62  0CC1               	rrf	___lwmod@divisor,f
  1723  0C63  3EFF               	addlw	-1
  1724  0C64  1D03               	skipz
  1725  0C65  2C60               	goto	u1615
  1726  0C66                     l1729:	
  1727  0C66  3001               	movlw	1
  1728  0C67  02C6               	subwf	___lwmod@counter,f
  1729  0C68  1D03               	btfss	3,2
  1730  0C69  2C6B               	goto	u1621
  1731  0C6A  2C6C               	goto	u1620
  1732  0C6B                     u1621:	
  1733  0C6B  2C4F               	goto	l1723
  1734  0C6C                     u1620:	
  1735  0C6C                     l1731:	
  1736  0C6C  0844               	movf	___lwmod@dividend+1,w
  1737  0C6D  00C2               	movwf	?___lwmod+1
  1738  0C6E  0843               	movf	___lwmod@dividend,w
  1739  0C6F  00C1               	movwf	?___lwmod
  1740  0C70                     l576:	
  1741  0C70  0008               	return
  1742  0C71                     __end_of___lwmod:	
  1743                           
  1744                           	psect	text6
  1745  07A5                     __ptext6:	
  1746 ;; *************** function ___lwdiv *****************
  1747 ;; Defined at:
  1748 ;;		line 5 in file "C:\Program Files (x86)\Microchip\xc8\v2.10\pic\sources\c90\common\lwdiv.c"
  1749 ;; Parameters:    Size  Location     Type
  1750 ;;  divisor         2   25[BANK0 ] unsigned int 
  1751 ;;  dividend        2   27[BANK0 ] unsigned int 
  1752 ;; Auto vars:     Size  Location     Type
  1753 ;;  quotient        2   30[BANK0 ] unsigned int 
  1754 ;;  counter         1   32[BANK0 ] unsigned char 
  1755 ;; Return value:  Size  Location     Type
  1756 ;;                  2   25[BANK0 ] unsigned int 
  1757 ;; Registers used:
  1758 ;;		wreg, status,2, status,0
  1759 ;; Tracked objects:
  1760 ;;		On entry : 0/0
  1761 ;;		On exit  : 0/0
  1762 ;;		Unchanged: 0/0
  1763 ;; Data sizes:     COMMON   BANK0   BANK1
  1764 ;;      Params:         0       4       0
  1765 ;;      Locals:         0       3       0
  1766 ;;      Temps:          0       1       0
  1767 ;;      Totals:         0       8       0
  1768 ;;Total ram usage:        8 bytes
  1769 ;; Hardware stack levels used:    1
  1770 ;; Hardware stack levels required when called:    6
  1771 ;; This function calls:
  1772 ;;		Nothing
  1773 ;; This function is called by:
  1774 ;;		_sprintf
  1775 ;; This function uses a non-reentrant model
  1776 ;;
  1777                           
  1778                           
  1779                           ;psect for function ___lwdiv
  1780  07A5                     ___lwdiv:	
  1781  07A5                     l1687:	
  1782                           ;incstack = 0
  1783 ;; hardware stack exceeded
  1784                           ; Regs used in ___lwdiv: [wreg+status,2+status,0]
  1785                           
  1786  07A5  1283               	bcf	3,5	;RP0=0, select bank0
  1787  07A6  1303               	bcf	3,6	;RP1=0, select bank0
  1788  07A7  01BE               	clrf	___lwdiv@quotient
  1789  07A8  01BF               	clrf	___lwdiv@quotient+1
  1790  07A9                     l1689:	
  1791  07A9  0839               	movf	___lwdiv@divisor,w
  1792  07AA  043A               	iorwf	___lwdiv@divisor+1,w
  1793  07AB  1903               	btfsc	3,2
  1794  07AC  2FAE               	goto	u1501
  1795  07AD  2FAF               	goto	u1500
  1796  07AE                     u1501:	
  1797  07AE  2FE6               	goto	l1709
  1798  07AF                     u1500:	
  1799  07AF                     l1691:	
  1800  07AF  01C0               	clrf	___lwdiv@counter
  1801  07B0  0AC0               	incf	___lwdiv@counter,f
  1802  07B1  2FBD               	goto	l1697
  1803  07B2                     l1693:	
  1804  07B2  3001               	movlw	1
  1805  07B3                     u1515:	
  1806  07B3  1003               	clrc
  1807  07B4  0DB9               	rlf	___lwdiv@divisor,f
  1808  07B5  0DBA               	rlf	___lwdiv@divisor+1,f
  1809  07B6  3EFF               	addlw	-1
  1810  07B7  1D03               	skipz
  1811  07B8  2FB3               	goto	u1515
  1812  07B9                     l1695:	
  1813  07B9  3001               	movlw	1
  1814  07BA  00BD               	movwf	??___lwdiv
  1815  07BB  083D               	movf	??___lwdiv,w
  1816  07BC  07C0               	addwf	___lwdiv@counter,f
  1817  07BD                     l1697:	
  1818  07BD  1FBA               	btfss	___lwdiv@divisor+1,7
  1819  07BE  2FC0               	goto	u1521
  1820  07BF  2FC1               	goto	u1520
  1821  07C0                     u1521:	
  1822  07C0  2FB2               	goto	l1693
  1823  07C1                     u1520:	
  1824  07C1                     l1699:	
  1825  07C1  3001               	movlw	1
  1826  07C2                     u1535:	
  1827  07C2  1003               	clrc
  1828  07C3  0DBE               	rlf	___lwdiv@quotient,f
  1829  07C4  0DBF               	rlf	___lwdiv@quotient+1,f
  1830  07C5  3EFF               	addlw	-1
  1831  07C6  1D03               	skipz
  1832  07C7  2FC2               	goto	u1535
  1833  07C8  083A               	movf	___lwdiv@divisor+1,w
  1834  07C9  023C               	subwf	___lwdiv@dividend+1,w
  1835  07CA  1D03               	skipz
  1836  07CB  2FCE               	goto	u1545
  1837  07CC  0839               	movf	___lwdiv@divisor,w
  1838  07CD  023B               	subwf	___lwdiv@dividend,w
  1839  07CE                     u1545:	
  1840  07CE  1C03               	skipc
  1841  07CF  2FD1               	goto	u1541
  1842  07D0  2FD2               	goto	u1540
  1843  07D1                     u1541:	
  1844  07D1  2FD9               	goto	l1705
  1845  07D2                     u1540:	
  1846  07D2                     l1701:	
  1847  07D2  0839               	movf	___lwdiv@divisor,w
  1848  07D3  02BB               	subwf	___lwdiv@dividend,f
  1849  07D4  083A               	movf	___lwdiv@divisor+1,w
  1850  07D5  1C03               	skipc
  1851  07D6  03BC               	decf	___lwdiv@dividend+1,f
  1852  07D7  02BC               	subwf	___lwdiv@dividend+1,f
  1853  07D8                     l1703:	
  1854  07D8  143E               	bsf	___lwdiv@quotient,0
  1855  07D9                     l1705:	
  1856  07D9  3001               	movlw	1
  1857  07DA                     u1555:	
  1858  07DA  1003               	clrc
  1859  07DB  0CBA               	rrf	___lwdiv@divisor+1,f
  1860  07DC  0CB9               	rrf	___lwdiv@divisor,f
  1861  07DD  3EFF               	addlw	-1
  1862  07DE  1D03               	skipz
  1863  07DF  2FDA               	goto	u1555
  1864  07E0                     l1707:	
  1865  07E0  3001               	movlw	1
  1866  07E1  02C0               	subwf	___lwdiv@counter,f
  1867  07E2  1D03               	btfss	3,2
  1868  07E3  2FE5               	goto	u1561
  1869  07E4  2FE6               	goto	u1560
  1870  07E5                     u1561:	
  1871  07E5  2FC1               	goto	l1699
  1872  07E6                     u1560:	
  1873  07E6                     l1709:	
  1874  07E6  083F               	movf	___lwdiv@quotient+1,w
  1875  07E7  00BA               	movwf	?___lwdiv+1
  1876  07E8  083E               	movf	___lwdiv@quotient,w
  1877  07E9  00B9               	movwf	?___lwdiv
  1878  07EA                     l566:	
  1879  07EA  0008               	return
  1880  07EB                     __end_of___lwdiv:	
  1881                           
  1882                           	psect	text7
  1883  0A43                     __ptext7:	
  1884 ;; *************** function _getVoltaje *****************
  1885 ;; Defined at:
  1886 ;;		line 129 in file "termometroDiferencial.c"
  1887 ;; Parameters:    Size  Location     Type
  1888 ;;		None
  1889 ;; Auto vars:     Size  Location     Type
  1890 ;;		None
  1891 ;; Return value:  Size  Location     Type
  1892 ;;                  2   25[BANK0 ] int 
  1893 ;; Registers used:
  1894 ;;		wreg
  1895 ;; Tracked objects:
  1896 ;;		On entry : 0/0
  1897 ;;		On exit  : 0/0
  1898 ;;		Unchanged: 0/0
  1899 ;; Data sizes:     COMMON   BANK0   BANK1
  1900 ;;      Params:         0       2       0
  1901 ;;      Locals:         0       0       0
  1902 ;;      Temps:          0       0       0
  1903 ;;      Totals:         0       2       0
  1904 ;;Total ram usage:        2 bytes
  1905 ;; Hardware stack levels used:    1
  1906 ;; Hardware stack levels required when called:    6
  1907 ;; This function calls:
  1908 ;;		Nothing
  1909 ;; This function is called by:
  1910 ;;		_getTemperature
  1911 ;; This function uses a non-reentrant model
  1912 ;;
  1913                           
  1914                           
  1915                           ;psect for function _getVoltaje
  1916  0A43                     _getVoltaje:	
  1917  0A43                     l1777:	
  1918                           ;incstack = 0
  1919                           ; Regs used in _getVoltaje: [wreg]
  1920                           
  1921                           
  1922                           ;termometroDiferencial.c: 130:     GO = 1;
  1923  0A43  1283               	bcf	3,5	;RP0=0, select bank0
  1924  0A44  1303               	bcf	3,6	;RP1=0, select bank0
  1925  0A45  151F               	bsf	31,2	;volatile
  1926  0A46                     l99:	
  1927                           ;termometroDiferencial.c: 132:     };
  1928                           
  1929                           
  1930                           ;termometroDiferencial.c: 131:     while (GO) {
  1931  0A46  191F               	btfsc	31,2	;volatile
  1932  0A47  2A49               	goto	u1681
  1933  0A48  2A4A               	goto	u1680
  1934  0A49                     u1681:	
  1935  0A49  2A46               	goto	l99
  1936  0A4A                     u1680:	
  1937  0A4A                     l1779:	
  1938                           
  1939                           ;termometroDiferencial.c: 133:     return ADRESH * 256 + ADRESL;
  1940  0A4A  081E               	movf	30,w	;volatile
  1941  0A4B  00BA               	movwf	?_getVoltaje+1
  1942  0A4C  1683               	bsf	3,5	;RP0=1, select bank1
  1943  0A4D  1303               	bcf	3,6	;RP1=0, select bank1
  1944  0A4E  081E               	movf	30,w	;volatile
  1945  0A4F  1283               	bcf	3,5	;RP0=0, select bank0
  1946  0A50  1303               	bcf	3,6	;RP1=0, select bank0
  1947  0A51  00B9               	movwf	?_getVoltaje
  1948  0A52                     l102:	
  1949  0A52  0008               	return
  1950  0A53                     __end_of_getVoltaje:	
  1951                           
  1952                           	psect	text8
  1953  0E6A                     __ptext8:	
  1954 ;; *************** function ___xxtofl *****************
  1955 ;; Defined at:
  1956 ;;		line 10 in file "C:\Program Files (x86)\Microchip\xc8\v2.10\pic\sources\c90\common\xxtofl.c"
  1957 ;; Parameters:    Size  Location     Type
  1958 ;;  sign            1    wreg     unsigned char 
  1959 ;;  val             4   27[BANK0 ] long 
  1960 ;; Auto vars:     Size  Location     Type
  1961 ;;  sign            1   35[BANK0 ] unsigned char 
  1962 ;;  arg             4   37[BANK0 ] unsigned long 
  1963 ;;  exp             1   36[BANK0 ] unsigned char 
  1964 ;; Return value:  Size  Location     Type
  1965 ;;                  4   27[BANK0 ] unsigned char 
  1966 ;; Registers used:
  1967 ;;		wreg, status,2, status,0
  1968 ;; Tracked objects:
  1969 ;;		On entry : 0/0
  1970 ;;		On exit  : 0/0
  1971 ;;		Unchanged: 0/0
  1972 ;; Data sizes:     COMMON   BANK0   BANK1
  1973 ;;      Params:         0       4       0
  1974 ;;      Locals:         0       6       0
  1975 ;;      Temps:          0       4       0
  1976 ;;      Totals:         0      14       0
  1977 ;;Total ram usage:       14 bytes
  1978 ;; Hardware stack levels used:    1
  1979 ;; Hardware stack levels required when called:    6
  1980 ;; This function calls:
  1981 ;;		Nothing
  1982 ;; This function is called by:
  1983 ;;		_getTemperature
  1984 ;; This function uses a non-reentrant model
  1985 ;;
  1986                           
  1987                           
  1988                           ;psect for function ___xxtofl
  1989  0E6A                     ___xxtofl:	
  1990                           
  1991                           ;incstack = 0
  1992                           ; Regs used in ___xxtofl: [wreg+status,2+status,0]
  1993                           ;___xxtofl@sign stored from wreg
  1994  0E6A  1283               	bcf	3,5	;RP0=0, select bank0
  1995  0E6B  1303               	bcf	3,6	;RP1=0, select bank0
  1996  0E6C  00C3               	movwf	___xxtofl@sign
  1997  0E6D                     l2077:	
  1998  0E6D  0843               	movf	___xxtofl@sign,w
  1999  0E6E  1903               	btfsc	3,2
  2000  0E6F  2E71               	goto	u2331
  2001  0E70  2E72               	goto	u2330
  2002  0E71                     u2331:	
  2003  0E71  2E86               	goto	l2083
  2004  0E72                     u2330:	
  2005  0E72                     l2079:	
  2006  0E72  1FBE               	btfss	___xxtofl@val+3,7
  2007  0E73  2E75               	goto	u2341
  2008  0E74  2E76               	goto	u2340
  2009  0E75                     u2341:	
  2010  0E75  2E86               	goto	l2083
  2011  0E76                     u2340:	
  2012  0E76                     l2081:	
  2013  0E76  093B               	comf	___xxtofl@val,w
  2014  0E77  00C5               	movwf	___xxtofl@arg
  2015  0E78  093C               	comf	___xxtofl@val+1,w
  2016  0E79  00C6               	movwf	___xxtofl@arg+1
  2017  0E7A  093D               	comf	___xxtofl@val+2,w
  2018  0E7B  00C7               	movwf	___xxtofl@arg+2
  2019  0E7C  093E               	comf	___xxtofl@val+3,w
  2020  0E7D  00C8               	movwf	___xxtofl@arg+3
  2021  0E7E  0AC5               	incf	___xxtofl@arg,f
  2022  0E7F  1903               	skipnz
  2023  0E80  0AC6               	incf	___xxtofl@arg+1,f
  2024  0E81  1903               	skipnz
  2025  0E82  0AC7               	incf	___xxtofl@arg+2,f
  2026  0E83  1903               	skipnz
  2027  0E84  0AC8               	incf	___xxtofl@arg+3,f
  2028  0E85  2E8E               	goto	l721
  2029  0E86                     l2083:	
  2030  0E86  083E               	movf	___xxtofl@val+3,w
  2031  0E87  00C8               	movwf	___xxtofl@arg+3
  2032  0E88  083D               	movf	___xxtofl@val+2,w
  2033  0E89  00C7               	movwf	___xxtofl@arg+2
  2034  0E8A  083C               	movf	___xxtofl@val+1,w
  2035  0E8B  00C6               	movwf	___xxtofl@arg+1
  2036  0E8C  083B               	movf	___xxtofl@val,w
  2037  0E8D  00C5               	movwf	___xxtofl@arg
  2038  0E8E                     l721:	
  2039  0E8E  083E               	movf	___xxtofl@val+3,w
  2040  0E8F  043D               	iorwf	___xxtofl@val+2,w
  2041  0E90  043C               	iorwf	___xxtofl@val+1,w
  2042  0E91  043B               	iorwf	___xxtofl@val,w
  2043  0E92  1D03               	skipz
  2044  0E93  2E95               	goto	u2351
  2045  0E94  2E96               	goto	u2350
  2046  0E95                     u2351:	
  2047  0E95  2E9F               	goto	l2089
  2048  0E96                     u2350:	
  2049  0E96                     l2085:	
  2050  0E96  3000               	movlw	0
  2051  0E97  00BE               	movwf	?___xxtofl+3
  2052  0E98  3000               	movlw	0
  2053  0E99  00BD               	movwf	?___xxtofl+2
  2054  0E9A  3000               	movlw	0
  2055  0E9B  00BC               	movwf	?___xxtofl+1
  2056  0E9C  3000               	movlw	0
  2057  0E9D  00BB               	movwf	?___xxtofl
  2058  0E9E  2F25               	goto	l723
  2059  0E9F                     l2089:	
  2060  0E9F  3096               	movlw	150
  2061  0EA0  00BF               	movwf	??___xxtofl
  2062  0EA1  083F               	movf	??___xxtofl,w
  2063  0EA2  00C4               	movwf	___xxtofl@exp
  2064  0EA3  2EB1               	goto	l2093
  2065  0EA4                     l2091:	
  2066  0EA4  3001               	movlw	1
  2067  0EA5  00BF               	movwf	??___xxtofl
  2068  0EA6  083F               	movf	??___xxtofl,w
  2069  0EA7  07C4               	addwf	___xxtofl@exp,f
  2070  0EA8  3001               	movlw	1
  2071  0EA9                     u2365:	
  2072  0EA9  1003               	clrc
  2073  0EAA  0CC8               	rrf	___xxtofl@arg+3,f
  2074  0EAB  0CC7               	rrf	___xxtofl@arg+2,f
  2075  0EAC  0CC6               	rrf	___xxtofl@arg+1,f
  2076  0EAD  0CC5               	rrf	___xxtofl@arg,f
  2077  0EAE  3EFF               	addlw	-1
  2078  0EAF  1D03               	skipz
  2079  0EB0  2EA9               	goto	u2365
  2080  0EB1                     l2093:	
  2081  0EB1  30FE               	movlw	254
  2082  0EB2  0548               	andwf	___xxtofl@arg+3,w
  2083  0EB3  1D03               	btfss	3,2
  2084  0EB4  2EB6               	goto	u2371
  2085  0EB5  2EB7               	goto	u2370
  2086  0EB6                     u2371:	
  2087  0EB6  2EA4               	goto	l2091
  2088  0EB7                     u2370:	
  2089  0EB7  2ED3               	goto	l727
  2090  0EB8                     l2095:	
  2091  0EB8  3001               	movlw	1
  2092  0EB9  00BF               	movwf	??___xxtofl
  2093  0EBA  083F               	movf	??___xxtofl,w
  2094  0EBB  07C4               	addwf	___xxtofl@exp,f
  2095  0EBC                     l2097:	
  2096  0EBC  3001               	movlw	1
  2097  0EBD  07C5               	addwf	___xxtofl@arg,f
  2098  0EBE  3000               	movlw	0
  2099  0EBF  1803               	skipnc
  2100  0EC0  3001               	movlw	1
  2101  0EC1  07C6               	addwf	___xxtofl@arg+1,f
  2102  0EC2  3000               	movlw	0
  2103  0EC3  1803               	skipnc
  2104  0EC4  3001               	movlw	1
  2105  0EC5  07C7               	addwf	___xxtofl@arg+2,f
  2106  0EC6  3000               	movlw	0
  2107  0EC7  1803               	skipnc
  2108  0EC8  3001               	movlw	1
  2109  0EC9  07C8               	addwf	___xxtofl@arg+3,f
  2110  0ECA                     l2099:	
  2111  0ECA  3001               	movlw	1
  2112  0ECB                     u2385:	
  2113  0ECB  1003               	clrc
  2114  0ECC  0CC8               	rrf	___xxtofl@arg+3,f
  2115  0ECD  0CC7               	rrf	___xxtofl@arg+2,f
  2116  0ECE  0CC6               	rrf	___xxtofl@arg+1,f
  2117  0ECF  0CC5               	rrf	___xxtofl@arg,f
  2118  0ED0  3EFF               	addlw	-1
  2119  0ED1  1D03               	skipz
  2120  0ED2  2ECB               	goto	u2385
  2121  0ED3                     l727:	
  2122  0ED3  30FF               	movlw	255
  2123  0ED4  0548               	andwf	___xxtofl@arg+3,w
  2124  0ED5  1D03               	btfss	3,2
  2125  0ED6  2ED8               	goto	u2391
  2126  0ED7  2ED9               	goto	u2390
  2127  0ED8                     u2391:	
  2128  0ED8  2EB8               	goto	l2095
  2129  0ED9                     u2390:	
  2130  0ED9  2EE5               	goto	l2103
  2131  0EDA                     l2101:	
  2132  0EDA  3001               	movlw	1
  2133  0EDB  02C4               	subwf	___xxtofl@exp,f
  2134  0EDC  3001               	movlw	1
  2135  0EDD  00BF               	movwf	??___xxtofl
  2136  0EDE                     u2405:	
  2137  0EDE  1003               	clrc
  2138  0EDF  0DC5               	rlf	___xxtofl@arg,f
  2139  0EE0  0DC6               	rlf	___xxtofl@arg+1,f
  2140  0EE1  0DC7               	rlf	___xxtofl@arg+2,f
  2141  0EE2  0DC8               	rlf	___xxtofl@arg+3,f
  2142  0EE3  0BBF               	decfsz	??___xxtofl,f
  2143  0EE4  2EDE               	goto	u2405
  2144  0EE5                     l2103:	
  2145  0EE5  1BC7               	btfsc	___xxtofl@arg+2,7
  2146  0EE6  2EE8               	goto	u2411
  2147  0EE7  2EE9               	goto	u2410
  2148  0EE8                     u2411:	
  2149  0EE8  2EEF               	goto	l734
  2150  0EE9                     u2410:	
  2151  0EE9                     l2105:	
  2152  0EE9  3002               	movlw	2
  2153  0EEA  0244               	subwf	___xxtofl@exp,w
  2154  0EEB  1803               	skipnc
  2155  0EEC  2EEE               	goto	u2421
  2156  0EED  2EEF               	goto	u2420
  2157  0EEE                     u2421:	
  2158  0EEE  2EDA               	goto	l2101
  2159  0EEF                     u2420:	
  2160  0EEF                     l734:	
  2161  0EEF  1844               	btfsc	___xxtofl@exp,0
  2162  0EF0  2EF2               	goto	u2431
  2163  0EF1  2EF3               	goto	u2430
  2164  0EF2                     u2431:	
  2165  0EF2  2EFB               	goto	l735
  2166  0EF3                     u2430:	
  2167  0EF3                     l2107:	
  2168  0EF3  30FF               	movlw	255
  2169  0EF4  05C5               	andwf	___xxtofl@arg,f
  2170  0EF5  30FF               	movlw	255
  2171  0EF6  05C6               	andwf	___xxtofl@arg+1,f
  2172  0EF7  307F               	movlw	127
  2173  0EF8  05C7               	andwf	___xxtofl@arg+2,f
  2174  0EF9  30FF               	movlw	255
  2175  0EFA  05C8               	andwf	___xxtofl@arg+3,f
  2176  0EFB                     l735:	
  2177  0EFB  1003               	clrc
  2178  0EFC  0CC4               	rrf	___xxtofl@exp,f
  2179  0EFD                     l2109:	
  2180  0EFD  0844               	movf	___xxtofl@exp,w
  2181  0EFE  00BF               	movwf	??___xxtofl
  2182  0EFF  01C0               	clrf	??___xxtofl+1
  2183  0F00  01C1               	clrf	??___xxtofl+2
  2184  0F01  01C2               	clrf	??___xxtofl+3
  2185  0F02  3018               	movlw	24
  2186  0F03                     u2445:	
  2187  0F03  1003               	clrc
  2188  0F04  0DBF               	rlf	??___xxtofl,f
  2189  0F05  0DC0               	rlf	??___xxtofl+1,f
  2190  0F06  0DC1               	rlf	??___xxtofl+2,f
  2191  0F07  0DC2               	rlf	??___xxtofl+3,f
  2192  0F08                     u2440:	
  2193  0F08  3EFF               	addlw	-1
  2194  0F09  1D03               	skipz
  2195  0F0A  2F03               	goto	u2445
  2196  0F0B  083F               	movf	??___xxtofl,w
  2197  0F0C  04C5               	iorwf	___xxtofl@arg,f
  2198  0F0D  0840               	movf	??___xxtofl+1,w
  2199  0F0E  04C6               	iorwf	___xxtofl@arg+1,f
  2200  0F0F  0841               	movf	??___xxtofl+2,w
  2201  0F10  04C7               	iorwf	___xxtofl@arg+2,f
  2202  0F11  0842               	movf	??___xxtofl+3,w
  2203  0F12  04C8               	iorwf	___xxtofl@arg+3,f
  2204  0F13                     l2111:	
  2205  0F13  0843               	movf	___xxtofl@sign,w
  2206  0F14  1903               	btfsc	3,2
  2207  0F15  2F17               	goto	u2451
  2208  0F16  2F18               	goto	u2450
  2209  0F17                     u2451:	
  2210  0F17  2F1D               	goto	l2117
  2211  0F18                     u2450:	
  2212  0F18                     l2113:	
  2213  0F18  1FBE               	btfss	___xxtofl@val+3,7
  2214  0F19  2F1B               	goto	u2461
  2215  0F1A  2F1C               	goto	u2460
  2216  0F1B                     u2461:	
  2217  0F1B  2F1D               	goto	l2117
  2218  0F1C                     u2460:	
  2219  0F1C                     l2115:	
  2220  0F1C  17C8               	bsf	___xxtofl@arg+3,7
  2221  0F1D                     l2117:	
  2222  0F1D  0848               	movf	___xxtofl@arg+3,w
  2223  0F1E  00BE               	movwf	?___xxtofl+3
  2224  0F1F  0847               	movf	___xxtofl@arg+2,w
  2225  0F20  00BD               	movwf	?___xxtofl+2
  2226  0F21  0846               	movf	___xxtofl@arg+1,w
  2227  0F22  00BC               	movwf	?___xxtofl+1
  2228  0F23  0845               	movf	___xxtofl@arg,w
  2229  0F24  00BB               	movwf	?___xxtofl
  2230  0F25                     l723:	
  2231  0F25  0008               	return
  2232  0F26                     __end_of___xxtofl:	
  2233                           
  2234                           	psect	text9
  2235  0DD8                     __ptext9:	
  2236 ;; *************** function ___fltol *****************
  2237 ;; Defined at:
  2238 ;;		line 43 in file "C:\Program Files (x86)\Microchip\xc8\v2.10\pic\sources\c90\common\fltol.c"
  2239 ;; Parameters:    Size  Location     Type
  2240 ;;  f1              4   13[BANK1 ] unsigned char 
  2241 ;; Auto vars:     Size  Location     Type
  2242 ;;  exp1            1   55[BANK0 ] unsigned char 
  2243 ;;  sign1           1   54[BANK0 ] unsigned char 
  2244 ;; Return value:  Size  Location     Type
  2245 ;;                  4   13[BANK1 ] long 
  2246 ;; Registers used:
  2247 ;;		wreg, status,2, status,0
  2248 ;; Tracked objects:
  2249 ;;		On entry : 0/0
  2250 ;;		On exit  : 0/0
  2251 ;;		Unchanged: 0/0
  2252 ;; Data sizes:     COMMON   BANK0   BANK1
  2253 ;;      Params:         0       0       4
  2254 ;;      Locals:         0       2       0
  2255 ;;      Temps:          0       0       5
  2256 ;;      Totals:         0       2       9
  2257 ;;Total ram usage:       11 bytes
  2258 ;; Hardware stack levels used:    1
  2259 ;; Hardware stack levels required when called:    6
  2260 ;; This function calls:
  2261 ;;		Nothing
  2262 ;; This function is called by:
  2263 ;;		_getTemperature
  2264 ;; This function uses a non-reentrant model
  2265 ;;
  2266                           
  2267                           
  2268                           ;psect for function ___fltol
  2269  0DD8                     ___fltol:	
  2270  0DD8                     l1901:	
  2271                           ;incstack = 0
  2272                           ; Regs used in ___fltol: [wreg+status,2+status,0]
  2273                           
  2274  0DD8  1003               	clrc
  2275  0DD9  1683               	bsf	3,5	;RP0=1, select bank1
  2276  0DDA  1303               	bcf	3,6	;RP1=0, select bank1
  2277  0DDB  0D2F               	rlf	(___fltol@f1+2)^(0+128),w
  2278  0DDC  0D30               	rlf	(___fltol@f1+3)^(0+128),w
  2279  0DDD  00B1               	movwf	??___fltol^(0+128)
  2280  0DDE  0831               	movf	??___fltol^(0+128),w
  2281  0DDF  1283               	bcf	3,5	;RP0=0, select bank0
  2282  0DE0  1303               	bcf	3,6	;RP1=0, select bank0
  2283  0DE1  00D7               	movwf	___fltol@exp1
  2284  0DE2  0857               	movf	___fltol@exp1,w
  2285  0DE3  1D03               	btfss	3,2
  2286  0DE4  2DE6               	goto	u1861
  2287  0DE5  2DE7               	goto	u1860
  2288  0DE6                     u1861:	
  2289  0DE6  2DF2               	goto	l1907
  2290  0DE7                     u1860:	
  2291  0DE7                     l1903:	
  2292  0DE7  3000               	movlw	0
  2293  0DE8  1683               	bsf	3,5	;RP0=1, select bank1
  2294  0DE9  1303               	bcf	3,6	;RP1=0, select bank1
  2295  0DEA  00B0               	movwf	(?___fltol+3)^(0+128)
  2296  0DEB  3000               	movlw	0
  2297  0DEC  00AF               	movwf	(?___fltol+2)^(0+128)
  2298  0DED  3000               	movlw	0
  2299  0DEE  00AE               	movwf	(?___fltol+1)^(0+128)
  2300  0DEF  3000               	movlw	0
  2301  0DF0  00AD               	movwf	?___fltol^(0+128)
  2302  0DF1  2E69               	goto	l480
  2303  0DF2                     l1907:	
  2304  0DF2  1683               	bsf	3,5	;RP0=1, select bank1
  2305  0DF3  1303               	bcf	3,6	;RP1=0, select bank1
  2306  0DF4  082D               	movf	___fltol@f1^(0+128),w
  2307  0DF5  00B1               	movwf	??___fltol^(0+128)
  2308  0DF6  082E               	movf	(___fltol@f1+1)^(0+128),w
  2309  0DF7  00B2               	movwf	(??___fltol^(0+128)+1)
  2310  0DF8  082F               	movf	(___fltol@f1+2)^(0+128),w
  2311  0DF9  00B3               	movwf	(??___fltol^(0+128)+2)
  2312  0DFA  0830               	movf	(___fltol@f1+3)^(0+128),w
  2313  0DFB  00B4               	movwf	(??___fltol^(0+128)+3)
  2314  0DFC  301F               	movlw	31
  2315  0DFD                     u1875:	
  2316  0DFD  1003               	clrc
  2317  0DFE  0CB4               	rrf	(??___fltol^(0+128)+3),f
  2318  0DFF  0CB3               	rrf	(??___fltol^(0+128)+2),f
  2319  0E00  0CB2               	rrf	(??___fltol^(0+128)+1),f
  2320  0E01  0CB1               	rrf	??___fltol^(0+128),f
  2321  0E02                     u1870:	
  2322  0E02  3EFF               	addlw	-1
  2323  0E03  1D03               	skipz
  2324  0E04  2DFD               	goto	u1875
  2325  0E05  0831               	movf	??___fltol^(0+128),w
  2326  0E06  00B5               	movwf	(??___fltol+4)^(0+128)
  2327  0E07  0835               	movf	(??___fltol+4)^(0+128),w
  2328  0E08  1283               	bcf	3,5	;RP0=0, select bank0
  2329  0E09  1303               	bcf	3,6	;RP1=0, select bank0
  2330  0E0A  00D6               	movwf	___fltol@sign1
  2331  0E0B                     l1909:	
  2332  0E0B  1683               	bsf	3,5	;RP0=1, select bank1
  2333  0E0C  1303               	bcf	3,6	;RP1=0, select bank1
  2334  0E0D  17AF               	bsf	(___fltol@f1^(0+128)+2),7
  2335  0E0E                     l1911:	
  2336  0E0E  30FF               	movlw	255
  2337  0E0F  05AD               	andwf	___fltol@f1^(0+128),f
  2338  0E10  30FF               	movlw	255
  2339  0E11  05AE               	andwf	(___fltol@f1+1)^(0+128),f
  2340  0E12  30FF               	movlw	255
  2341  0E13  05AF               	andwf	(___fltol@f1+2)^(0+128),f
  2342  0E14  3000               	movlw	0
  2343  0E15  05B0               	andwf	(___fltol@f1+3)^(0+128),f
  2344  0E16                     l1913:	
  2345  0E16  3096               	movlw	150
  2346  0E17  1283               	bcf	3,5	;RP0=0, select bank0
  2347  0E18  1303               	bcf	3,6	;RP1=0, select bank0
  2348  0E19  02D7               	subwf	___fltol@exp1,f
  2349  0E1A                     l1915:	
  2350  0E1A  1FD7               	btfss	___fltol@exp1,7
  2351  0E1B  2E1D               	goto	u1881
  2352  0E1C  2E1E               	goto	u1880
  2353  0E1D                     u1881:	
  2354  0E1D  2E3C               	goto	l1925
  2355  0E1E                     u1880:	
  2356  0E1E                     l1917:	
  2357  0E1E  0857               	movf	___fltol@exp1,w
  2358  0E1F  3A80               	xorlw	128
  2359  0E20  3E97               	addlw	151
  2360  0E21  1803               	skipnc
  2361  0E22  2E24               	goto	u1891
  2362  0E23  2E25               	goto	u1890
  2363  0E24                     u1891:	
  2364  0E24  2E26               	goto	l1923
  2365  0E25                     u1890:	
  2366  0E25  2DE7               	goto	l1903
  2367  0E26                     l1923:	
  2368  0E26  3001               	movlw	1
  2369  0E27                     u1905:	
  2370  0E27  1003               	clrc
  2371  0E28  1683               	bsf	3,5	;RP0=1, select bank1
  2372  0E29  1303               	bcf	3,6	;RP1=0, select bank1
  2373  0E2A  0CB0               	rrf	(___fltol@f1+3)^(0+128),f
  2374  0E2B  0CAF               	rrf	(___fltol@f1+2)^(0+128),f
  2375  0E2C  0CAE               	rrf	(___fltol@f1+1)^(0+128),f
  2376  0E2D  0CAD               	rrf	___fltol@f1^(0+128),f
  2377  0E2E  3EFF               	addlw	-1
  2378  0E2F  1D03               	skipz
  2379  0E30  2E27               	goto	u1905
  2380  0E31  3001               	movlw	1
  2381  0E32  00B1               	movwf	??___fltol^(0+128)
  2382  0E33  0831               	movf	??___fltol^(0+128),w
  2383  0E34  1283               	bcf	3,5	;RP0=0, select bank0
  2384  0E35  1303               	bcf	3,6	;RP1=0, select bank0
  2385  0E36  07D7               	addwf	___fltol@exp1,f
  2386  0E37  1D03               	btfss	3,2
  2387  0E38  2E3A               	goto	u1911
  2388  0E39  2E3B               	goto	u1910
  2389  0E3A                     u1911:	
  2390  0E3A  2E26               	goto	l1923
  2391  0E3B                     u1910:	
  2392  0E3B  2E57               	goto	l1933
  2393  0E3C                     l1925:	
  2394  0E3C  3020               	movlw	32
  2395  0E3D  0257               	subwf	___fltol@exp1,w
  2396  0E3E  1C03               	skipc
  2397  0E3F  2E41               	goto	u1921
  2398  0E40  2E42               	goto	u1920
  2399  0E41                     u1921:	
  2400  0E41  2E52               	goto	l487
  2401  0E42                     u1920:	
  2402  0E42  2DE7               	goto	l1903
  2403  0E43                     l1931:	
  2404  0E43  3001               	movlw	1
  2405  0E44  1683               	bsf	3,5	;RP0=1, select bank1
  2406  0E45  1303               	bcf	3,6	;RP1=0, select bank1
  2407  0E46  00B1               	movwf	??___fltol^(0+128)
  2408  0E47                     u1935:	
  2409  0E47  1003               	clrc
  2410  0E48  0DAD               	rlf	___fltol@f1^(0+128),f
  2411  0E49  0DAE               	rlf	(___fltol@f1+1)^(0+128),f
  2412  0E4A  0DAF               	rlf	(___fltol@f1+2)^(0+128),f
  2413  0E4B  0DB0               	rlf	(___fltol@f1+3)^(0+128),f
  2414  0E4C  0BB1               	decfsz	??___fltol^(0+128),f
  2415  0E4D  2E47               	goto	u1935
  2416  0E4E  3001               	movlw	1
  2417  0E4F  1283               	bcf	3,5	;RP0=0, select bank0
  2418  0E50  1303               	bcf	3,6	;RP1=0, select bank0
  2419  0E51  02D7               	subwf	___fltol@exp1,f
  2420  0E52                     l487:	
  2421  0E52  0857               	movf	___fltol@exp1,w
  2422  0E53  1D03               	btfss	3,2
  2423  0E54  2E56               	goto	u1941
  2424  0E55  2E57               	goto	u1940
  2425  0E56                     u1941:	
  2426  0E56  2E43               	goto	l1931
  2427  0E57                     u1940:	
  2428  0E57                     l1933:	
  2429  0E57  0856               	movf	___fltol@sign1,w
  2430  0E58  1903               	btfsc	3,2
  2431  0E59  2E5B               	goto	u1951
  2432  0E5A  2E5C               	goto	u1950
  2433  0E5B                     u1951:	
  2434  0E5B  2E69               	goto	l490
  2435  0E5C                     u1950:	
  2436  0E5C                     l1935:	
  2437  0E5C  1683               	bsf	3,5	;RP0=1, select bank1
  2438  0E5D  1303               	bcf	3,6	;RP1=0, select bank1
  2439  0E5E  09AD               	comf	___fltol@f1^(0+128),f
  2440  0E5F  09AE               	comf	(___fltol@f1+1)^(0+128),f
  2441  0E60  09AF               	comf	(___fltol@f1+2)^(0+128),f
  2442  0E61  09B0               	comf	(___fltol@f1+3)^(0+128),f
  2443  0E62  0AAD               	incf	___fltol@f1^(0+128),f
  2444  0E63  1903               	skipnz
  2445  0E64  0AAE               	incf	(___fltol@f1+1)^(0+128),f
  2446  0E65  1903               	skipnz
  2447  0E66  0AAF               	incf	(___fltol@f1+2)^(0+128),f
  2448  0E67  1903               	skipnz
  2449  0E68  0AB0               	incf	(___fltol@f1+3)^(0+128),f
  2450  0E69                     l490:	
  2451  0E69                     l480:	
  2452  0E69  0008               	return
  2453  0E6A                     __end_of___fltol:	
  2454                           
  2455                           	psect	text10
  2456  003F                     __ptext10:	
  2457 ;; *************** function ___flmul *****************
  2458 ;; Defined at:
  2459 ;;		line 8 in file "C:\Program Files (x86)\Microchip\xc8\v2.10\pic\sources\c90\common\sprcmul.c"
  2460 ;; Parameters:    Size  Location     Type
  2461 ;;  b               4   41[BANK0 ] long 
  2462 ;;  a               4   45[BANK0 ] long 
  2463 ;; Auto vars:     Size  Location     Type
  2464 ;;  prod            4    7[BANK1 ] struct .
  2465 ;;  grs             4    2[BANK1 ] unsigned long 
  2466 ;;  temp            2   11[BANK1 ] struct .
  2467 ;;  bexp            1    6[BANK1 ] unsigned char 
  2468 ;;  aexp            1    1[BANK1 ] unsigned char 
  2469 ;;  sign            1    0[BANK1 ] unsigned char 
  2470 ;; Return value:  Size  Location     Type
  2471 ;;                  4   41[BANK0 ] unsigned char 
  2472 ;; Registers used:
  2473 ;;		wreg, status,2, status,0, btemp+1, pclath, cstack
  2474 ;; Tracked objects:
  2475 ;;		On entry : 0/0
  2476 ;;		On exit  : 0/0
  2477 ;;		Unchanged: 0/0
  2478 ;; Data sizes:     COMMON   BANK0   BANK1
  2479 ;;      Params:         0       8       0
  2480 ;;      Locals:         0       0      13
  2481 ;;      Temps:          0       5       0
  2482 ;;      Totals:         0      13      13
  2483 ;;Total ram usage:       26 bytes
  2484 ;; Hardware stack levels used:    1
  2485 ;; Hardware stack levels required when called:    7
  2486 ;; This function calls:
  2487 ;;		__Umul8_16
  2488 ;; This function is called by:
  2489 ;;		_getTemperature
  2490 ;; This function uses a non-reentrant model
  2491 ;;
  2492                           
  2493                           
  2494                           ;psect for function ___flmul
  2495  003F                     ___flmul:	
  2496  003F                     l2373:	
  2497                           ;incstack = 0
  2498 ;; hardware stack exceeded
  2499                           ; Regs used in ___flmul: [wreg+status,2+status,0+btemp+1+pclath+cstack]
  2500                           
  2501  003F  1283               	bcf	3,5	;RP0=0, select bank0
  2502  0040  1303               	bcf	3,6	;RP1=0, select bank0
  2503  0041  084C               	movf	___flmul@b+3,w
  2504  0042  3980               	andlw	128
  2505  0043  00D1               	movwf	??___flmul
  2506  0044  0851               	movf	??___flmul,w
  2507  0045  1683               	bsf	3,5	;RP0=1, select bank1
  2508  0046  1303               	bcf	3,6	;RP1=0, select bank1
  2509  0047  00A0               	movwf	___flmul@sign^(0+128)
  2510  0048                     l2375:	
  2511  0048  1283               	bcf	3,5	;RP0=0, select bank0
  2512  0049  1303               	bcf	3,6	;RP1=0, select bank0
  2513  004A  084C               	movf	___flmul@b+3,w
  2514  004B  00D1               	movwf	??___flmul
  2515  004C  0751               	addwf	??___flmul,w
  2516  004D  00D2               	movwf	??___flmul+1
  2517  004E  0852               	movf	??___flmul+1,w
  2518  004F  1683               	bsf	3,5	;RP0=1, select bank1
  2519  0050  1303               	bcf	3,6	;RP1=0, select bank1
  2520  0051  00A6               	movwf	___flmul@bexp^(0+128)
  2521  0052                     l2377:	
  2522  0052  1283               	bcf	3,5	;RP0=0, select bank0
  2523  0053  1303               	bcf	3,6	;RP1=0, select bank0
  2524  0054  1FCB               	btfss	___flmul@b+2,7
  2525  0055  2857               	goto	u2741
  2526  0056  2858               	goto	u2740
  2527  0057                     u2741:	
  2528  0057  285B               	goto	l2381
  2529  0058                     u2740:	
  2530  0058                     l2379:	
  2531  0058  1683               	bsf	3,5	;RP0=1, select bank1
  2532  0059  1303               	bcf	3,6	;RP1=0, select bank1
  2533  005A  1426               	bsf	___flmul@bexp^(0+128),0
  2534  005B                     l2381:	
  2535  005B  1683               	bsf	3,5	;RP0=1, select bank1
  2536  005C  1303               	bcf	3,6	;RP1=0, select bank1
  2537  005D  0826               	movf	___flmul@bexp^(0+128),w
  2538  005E  1903               	btfsc	3,2
  2539  005F  2861               	goto	u2751
  2540  0060  2862               	goto	u2750
  2541  0061                     u2751:	
  2542  0061  2874               	goto	l2389
  2543  0062                     u2750:	
  2544  0062                     l2383:	
  2545  0062  0A26               	incf	___flmul@bexp^(0+128),w
  2546  0063  1D03               	btfss	3,2
  2547  0064  2866               	goto	u2761
  2548  0065  2867               	goto	u2760
  2549  0066                     u2761:	
  2550  0066  2871               	goto	l2387
  2551  0067                     u2760:	
  2552  0067                     l2385:	
  2553  0067  3000               	movlw	0
  2554  0068  1283               	bcf	3,5	;RP0=0, select bank0
  2555  0069  1303               	bcf	3,6	;RP1=0, select bank0
  2556  006A  00CC               	movwf	___flmul@b+3
  2557  006B  3000               	movlw	0
  2558  006C  00CB               	movwf	___flmul@b+2
  2559  006D  3000               	movlw	0
  2560  006E  00CA               	movwf	___flmul@b+1
  2561  006F  3000               	movlw	0
  2562  0070  00C9               	movwf	___flmul@b
  2563  0071                     l2387:	
  2564  0071  1283               	bcf	3,5	;RP0=0, select bank0
  2565  0072  17CB               	bsf	___flmul@b+2,7
  2566  0073  287E               	goto	l2391
  2567  0074                     l2389:	
  2568  0074  3000               	movlw	0
  2569  0075  1283               	bcf	3,5	;RP0=0, select bank0
  2570  0076  1303               	bcf	3,6	;RP1=0, select bank0
  2571  0077  00CC               	movwf	___flmul@b+3
  2572  0078  3000               	movlw	0
  2573  0079  00CB               	movwf	___flmul@b+2
  2574  007A  3000               	movlw	0
  2575  007B  00CA               	movwf	___flmul@b+1
  2576  007C  3000               	movlw	0
  2577  007D  00C9               	movwf	___flmul@b
  2578  007E                     l2391:	
  2579  007E  0850               	movf	___flmul@a+3,w
  2580  007F  3980               	andlw	128
  2581  0080  00D1               	movwf	??___flmul
  2582  0081  0851               	movf	??___flmul,w
  2583  0082  1683               	bsf	3,5	;RP0=1, select bank1
  2584  0083  1303               	bcf	3,6	;RP1=0, select bank1
  2585  0084  06A0               	xorwf	___flmul@sign^(0+128),f
  2586  0085                     l2393:	
  2587  0085  1283               	bcf	3,5	;RP0=0, select bank0
  2588  0086  1303               	bcf	3,6	;RP1=0, select bank0
  2589  0087  0850               	movf	___flmul@a+3,w
  2590  0088  00D1               	movwf	??___flmul
  2591  0089  0751               	addwf	??___flmul,w
  2592  008A  00D2               	movwf	??___flmul+1
  2593  008B  0852               	movf	??___flmul+1,w
  2594  008C  1683               	bsf	3,5	;RP0=1, select bank1
  2595  008D  1303               	bcf	3,6	;RP1=0, select bank1
  2596  008E  00A1               	movwf	___flmul@aexp^(0+128)
  2597  008F                     l2395:	
  2598  008F  1283               	bcf	3,5	;RP0=0, select bank0
  2599  0090  1303               	bcf	3,6	;RP1=0, select bank0
  2600  0091  1FCF               	btfss	___flmul@a+2,7
  2601  0092  2894               	goto	u2771
  2602  0093  2895               	goto	u2770
  2603  0094                     u2771:	
  2604  0094  2898               	goto	l2399
  2605  0095                     u2770:	
  2606  0095                     l2397:	
  2607  0095  1683               	bsf	3,5	;RP0=1, select bank1
  2608  0096  1303               	bcf	3,6	;RP1=0, select bank1
  2609  0097  1421               	bsf	___flmul@aexp^(0+128),0
  2610  0098                     l2399:	
  2611  0098  1683               	bsf	3,5	;RP0=1, select bank1
  2612  0099  1303               	bcf	3,6	;RP1=0, select bank1
  2613  009A  0821               	movf	___flmul@aexp^(0+128),w
  2614  009B  1903               	btfsc	3,2
  2615  009C  289E               	goto	u2781
  2616  009D  289F               	goto	u2780
  2617  009E                     u2781:	
  2618  009E  28B1               	goto	l2407
  2619  009F                     u2780:	
  2620  009F                     l2401:	
  2621  009F  0A21               	incf	___flmul@aexp^(0+128),w
  2622  00A0  1D03               	btfss	3,2
  2623  00A1  28A3               	goto	u2791
  2624  00A2  28A4               	goto	u2790
  2625  00A3                     u2791:	
  2626  00A3  28AE               	goto	l2405
  2627  00A4                     u2790:	
  2628  00A4                     l2403:	
  2629  00A4  3000               	movlw	0
  2630  00A5  1283               	bcf	3,5	;RP0=0, select bank0
  2631  00A6  1303               	bcf	3,6	;RP1=0, select bank0
  2632  00A7  00D0               	movwf	___flmul@a+3
  2633  00A8  3000               	movlw	0
  2634  00A9  00CF               	movwf	___flmul@a+2
  2635  00AA  3000               	movlw	0
  2636  00AB  00CE               	movwf	___flmul@a+1
  2637  00AC  3000               	movlw	0
  2638  00AD  00CD               	movwf	___flmul@a
  2639  00AE                     l2405:	
  2640  00AE  1283               	bcf	3,5	;RP0=0, select bank0
  2641  00AF  17CF               	bsf	___flmul@a+2,7
  2642  00B0  28BB               	goto	l2409
  2643  00B1                     l2407:	
  2644  00B1  3000               	movlw	0
  2645  00B2  1283               	bcf	3,5	;RP0=0, select bank0
  2646  00B3  1303               	bcf	3,6	;RP1=0, select bank0
  2647  00B4  00D0               	movwf	___flmul@a+3
  2648  00B5  3000               	movlw	0
  2649  00B6  00CF               	movwf	___flmul@a+2
  2650  00B7  3000               	movlw	0
  2651  00B8  00CE               	movwf	___flmul@a+1
  2652  00B9  3000               	movlw	0
  2653  00BA  00CD               	movwf	___flmul@a
  2654  00BB                     l2409:	
  2655  00BB  1683               	bsf	3,5	;RP0=1, select bank1
  2656  00BC  1303               	bcf	3,6	;RP1=0, select bank1
  2657  00BD  0821               	movf	___flmul@aexp^(0+128),w
  2658  00BE  1903               	btfsc	3,2
  2659  00BF  28C1               	goto	u2801
  2660  00C0  28C2               	goto	u2800
  2661  00C1                     u2801:	
  2662  00C1  28C7               	goto	l2413
  2663  00C2                     u2800:	
  2664  00C2                     l2411:	
  2665  00C2  0826               	movf	___flmul@bexp^(0+128),w
  2666  00C3  1D03               	btfss	3,2
  2667  00C4  28C6               	goto	u2811
  2668  00C5  28C7               	goto	u2810
  2669  00C6                     u2811:	
  2670  00C6  28D2               	goto	l2417
  2671  00C7                     u2810:	
  2672  00C7                     l2413:	
  2673  00C7  3000               	movlw	0
  2674  00C8  1283               	bcf	3,5	;RP0=0, select bank0
  2675  00C9  1303               	bcf	3,6	;RP1=0, select bank0
  2676  00CA  00CC               	movwf	?___flmul+3
  2677  00CB  3000               	movlw	0
  2678  00CC  00CB               	movwf	?___flmul+2
  2679  00CD  3000               	movlw	0
  2680  00CE  00CA               	movwf	?___flmul+1
  2681  00CF  3000               	movlw	0
  2682  00D0  00C9               	movwf	?___flmul
  2683  00D1  2D8B               	goto	l683
  2684  00D2                     l2417:	
  2685  00D2  1283               	bcf	3,5	;RP0=0, select bank0
  2686  00D3  1303               	bcf	3,6	;RP1=0, select bank0
  2687  00D4  0849               	movf	___flmul@b,w
  2688  00D5  00D1               	movwf	??___flmul
  2689  00D6  0851               	movf	??___flmul,w
  2690  00D7  00B9               	movwf	__Umul8_16@multiplicand
  2691  00D8  084F               	movf	___flmul@a+2,w
  2692  00D9  158A  234A  118A   	fcall	__Umul8_16
  2693  00DC  1283               	bcf	3,5	;RP0=0, select bank0
  2694  00DD  1303               	bcf	3,6	;RP1=0, select bank0
  2695  00DE  083A               	movf	?__Umul8_16+1,w
  2696  00DF  1683               	bsf	3,5	;RP0=1, select bank1
  2697  00E0  1303               	bcf	3,6	;RP1=0, select bank1
  2698  00E1  00AC               	movwf	(___flmul@temp+1)^(0+128)
  2699  00E2  1283               	bcf	3,5	;RP0=0, select bank0
  2700  00E3  1303               	bcf	3,6	;RP1=0, select bank0
  2701  00E4  0839               	movf	?__Umul8_16,w
  2702  00E5  1683               	bsf	3,5	;RP0=1, select bank1
  2703  00E6  1303               	bcf	3,6	;RP1=0, select bank1
  2704  00E7  00AB               	movwf	___flmul@temp^(0+128)
  2705  00E8                     l2419:	
  2706  00E8  082B               	movf	___flmul@temp^(0+128),w
  2707  00E9  1283               	bcf	3,5	;RP0=0, select bank0
  2708  00EA  1303               	bcf	3,6	;RP1=0, select bank0
  2709  00EB  00D1               	movwf	??___flmul
  2710  00EC  01D2               	clrf	??___flmul+1
  2711  00ED  01D3               	clrf	??___flmul+2
  2712  00EE  01D4               	clrf	??___flmul+3
  2713  00EF  0854               	movf	??___flmul+3,w
  2714  00F0  1683               	bsf	3,5	;RP0=1, select bank1
  2715  00F1  1303               	bcf	3,6	;RP1=0, select bank1
  2716  00F2  00A5               	movwf	(___flmul@grs+3)^(0+128)
  2717  00F3  1283               	bcf	3,5	;RP0=0, select bank0
  2718  00F4  1303               	bcf	3,6	;RP1=0, select bank0
  2719  00F5  0853               	movf	??___flmul+2,w
  2720  00F6  1683               	bsf	3,5	;RP0=1, select bank1
  2721  00F7  1303               	bcf	3,6	;RP1=0, select bank1
  2722  00F8  00A4               	movwf	(___flmul@grs+2)^(0+128)
  2723  00F9  1283               	bcf	3,5	;RP0=0, select bank0
  2724  00FA  1303               	bcf	3,6	;RP1=0, select bank0
  2725  00FB  0852               	movf	??___flmul+1,w
  2726  00FC  1683               	bsf	3,5	;RP0=1, select bank1
  2727  00FD  1303               	bcf	3,6	;RP1=0, select bank1
  2728  00FE  00A3               	movwf	(___flmul@grs+1)^(0+128)
  2729  00FF  1283               	bcf	3,5	;RP0=0, select bank0
  2730  0100  1303               	bcf	3,6	;RP1=0, select bank0
  2731  0101  0851               	movf	??___flmul,w
  2732  0102  1683               	bsf	3,5	;RP0=1, select bank1
  2733  0103  1303               	bcf	3,6	;RP1=0, select bank1
  2734  0104  00A2               	movwf	___flmul@grs^(0+128)
  2735  0105                     l2421:	
  2736  0105  082C               	movf	(___flmul@temp^(0+128)+1),w
  2737  0106  1283               	bcf	3,5	;RP0=0, select bank0
  2738  0107  1303               	bcf	3,6	;RP1=0, select bank0
  2739  0108  00D1               	movwf	??___flmul
  2740  0109  01D2               	clrf	??___flmul+1
  2741  010A  01D3               	clrf	??___flmul+2
  2742  010B  01D4               	clrf	??___flmul+3
  2743  010C  0854               	movf	??___flmul+3,w
  2744  010D  1683               	bsf	3,5	;RP0=1, select bank1
  2745  010E  1303               	bcf	3,6	;RP1=0, select bank1
  2746  010F  00AA               	movwf	(___flmul@prod+3)^(0+128)
  2747  0110  1283               	bcf	3,5	;RP0=0, select bank0
  2748  0111  1303               	bcf	3,6	;RP1=0, select bank0
  2749  0112  0853               	movf	??___flmul+2,w
  2750  0113  1683               	bsf	3,5	;RP0=1, select bank1
  2751  0114  1303               	bcf	3,6	;RP1=0, select bank1
  2752  0115  00A9               	movwf	(___flmul@prod+2)^(0+128)
  2753  0116  1283               	bcf	3,5	;RP0=0, select bank0
  2754  0117  1303               	bcf	3,6	;RP1=0, select bank0
  2755  0118  0852               	movf	??___flmul+1,w
  2756  0119  1683               	bsf	3,5	;RP0=1, select bank1
  2757  011A  1303               	bcf	3,6	;RP1=0, select bank1
  2758  011B  00A8               	movwf	(___flmul@prod+1)^(0+128)
  2759  011C  1283               	bcf	3,5	;RP0=0, select bank0
  2760  011D  1303               	bcf	3,6	;RP1=0, select bank0
  2761  011E  0851               	movf	??___flmul,w
  2762  011F  1683               	bsf	3,5	;RP0=1, select bank1
  2763  0120  1303               	bcf	3,6	;RP1=0, select bank1
  2764  0121  00A7               	movwf	___flmul@prod^(0+128)
  2765  0122  1283               	bcf	3,5	;RP0=0, select bank0
  2766  0123  1303               	bcf	3,6	;RP1=0, select bank0
  2767  0124  084A               	movf	___flmul@b+1,w
  2768  0125  00D1               	movwf	??___flmul
  2769  0126  0851               	movf	??___flmul,w
  2770  0127  00B9               	movwf	__Umul8_16@multiplicand
  2771  0128  084E               	movf	___flmul@a+1,w
  2772  0129  158A  234A  118A   	fcall	__Umul8_16
  2773  012C  1283               	bcf	3,5	;RP0=0, select bank0
  2774  012D  1303               	bcf	3,6	;RP1=0, select bank0
  2775  012E  083A               	movf	?__Umul8_16+1,w
  2776  012F  1683               	bsf	3,5	;RP0=1, select bank1
  2777  0130  1303               	bcf	3,6	;RP1=0, select bank1
  2778  0131  00AC               	movwf	(___flmul@temp+1)^(0+128)
  2779  0132  1283               	bcf	3,5	;RP0=0, select bank0
  2780  0133  1303               	bcf	3,6	;RP1=0, select bank0
  2781  0134  0839               	movf	?__Umul8_16,w
  2782  0135  1683               	bsf	3,5	;RP0=1, select bank1
  2783  0136  1303               	bcf	3,6	;RP1=0, select bank1
  2784  0137  00AB               	movwf	___flmul@temp^(0+128)
  2785  0138                     l2423:	
  2786  0138  082B               	movf	___flmul@temp^(0+128),w
  2787  0139  1283               	bcf	3,5	;RP0=0, select bank0
  2788  013A  1303               	bcf	3,6	;RP1=0, select bank0
  2789  013B  00D1               	movwf	??___flmul
  2790  013C  01D2               	clrf	??___flmul+1
  2791  013D  01D3               	clrf	??___flmul+2
  2792  013E  01D4               	clrf	??___flmul+3
  2793  013F  0851               	movf	??___flmul,w
  2794  0140  1683               	bsf	3,5	;RP0=1, select bank1
  2795  0141  1303               	bcf	3,6	;RP1=0, select bank1
  2796  0142  07A2               	addwf	___flmul@grs^(0+128),f
  2797  0143  1283               	bcf	3,5	;RP0=0, select bank0
  2798  0144  1303               	bcf	3,6	;RP1=0, select bank0
  2799  0145  0852               	movf	??___flmul+1,w
  2800  0146  1103               	clrz
  2801  0147  1803               	skipnc
  2802  0148  3E01               	addlw	1
  2803  0149  1903               	skipnz
  2804  014A  294E               	goto	u2821
  2805  014B  1683               	bsf	3,5	;RP0=1, select bank1
  2806  014C  1303               	bcf	3,6	;RP1=0, select bank1
  2807  014D  07A3               	addwf	(___flmul@grs+1)^(0+128),f
  2808  014E                     u2821:	
  2809  014E  1283               	bcf	3,5	;RP0=0, select bank0
  2810  014F  1303               	bcf	3,6	;RP1=0, select bank0
  2811  0150  0853               	movf	??___flmul+2,w
  2812  0151  1103               	clrz
  2813  0152  1803               	skipnc
  2814  0153  3E01               	addlw	1
  2815  0154  1903               	skipnz
  2816  0155  2959               	goto	u2822
  2817  0156  1683               	bsf	3,5	;RP0=1, select bank1
  2818  0157  1303               	bcf	3,6	;RP1=0, select bank1
  2819  0158  07A4               	addwf	(___flmul@grs+2)^(0+128),f
  2820  0159                     u2822:	
  2821  0159  1283               	bcf	3,5	;RP0=0, select bank0
  2822  015A  1303               	bcf	3,6	;RP1=0, select bank0
  2823  015B  0854               	movf	??___flmul+3,w
  2824  015C  1103               	clrz
  2825  015D  1803               	skipnc
  2826  015E  3E01               	addlw	1
  2827  015F  1903               	skipnz
  2828  0160  2964               	goto	u2823
  2829  0161  1683               	bsf	3,5	;RP0=1, select bank1
  2830  0162  1303               	bcf	3,6	;RP1=0, select bank1
  2831  0163  07A5               	addwf	(___flmul@grs+3)^(0+128),f
  2832  0164                     u2823:	
  2833  0164  1283               	bcf	3,5	;RP0=0, select bank0
  2834  0165  1303               	bcf	3,6	;RP1=0, select bank0
  2835  0166  1683               	bsf	3,5	;RP0=1, select bank1
  2836  0167  1303               	bcf	3,6	;RP1=0, select bank1
  2837  0168                     l2425:	
  2838  0168  082C               	movf	(___flmul@temp^(0+128)+1),w
  2839  0169  1283               	bcf	3,5	;RP0=0, select bank0
  2840  016A  1303               	bcf	3,6	;RP1=0, select bank0
  2841  016B  00D1               	movwf	??___flmul
  2842  016C  01D2               	clrf	??___flmul+1
  2843  016D  01D3               	clrf	??___flmul+2
  2844  016E  01D4               	clrf	??___flmul+3
  2845  016F  0851               	movf	??___flmul,w
  2846  0170  1683               	bsf	3,5	;RP0=1, select bank1
  2847  0171  1303               	bcf	3,6	;RP1=0, select bank1
  2848  0172  07A7               	addwf	___flmul@prod^(0+128),f
  2849  0173  1283               	bcf	3,5	;RP0=0, select bank0
  2850  0174  1303               	bcf	3,6	;RP1=0, select bank0
  2851  0175  0852               	movf	??___flmul+1,w
  2852  0176  1103               	clrz
  2853  0177  1803               	skipnc
  2854  0178  3E01               	addlw	1
  2855  0179  1903               	skipnz
  2856  017A  297E               	goto	u2831
  2857  017B  1683               	bsf	3,5	;RP0=1, select bank1
  2858  017C  1303               	bcf	3,6	;RP1=0, select bank1
  2859  017D  07A8               	addwf	(___flmul@prod+1)^(0+128),f
  2860  017E                     u2831:	
  2861  017E  1283               	bcf	3,5	;RP0=0, select bank0
  2862  017F  1303               	bcf	3,6	;RP1=0, select bank0
  2863  0180  0853               	movf	??___flmul+2,w
  2864  0181  1103               	clrz
  2865  0182  1803               	skipnc
  2866  0183  3E01               	addlw	1
  2867  0184  1903               	skipnz
  2868  0185  2989               	goto	u2832
  2869  0186  1683               	bsf	3,5	;RP0=1, select bank1
  2870  0187  1303               	bcf	3,6	;RP1=0, select bank1
  2871  0188  07A9               	addwf	(___flmul@prod+2)^(0+128),f
  2872  0189                     u2832:	
  2873  0189  1283               	bcf	3,5	;RP0=0, select bank0
  2874  018A  1303               	bcf	3,6	;RP1=0, select bank0
  2875  018B  0854               	movf	??___flmul+3,w
  2876  018C  1103               	clrz
  2877  018D  1803               	skipnc
  2878  018E  3E01               	addlw	1
  2879  018F  1903               	skipnz
  2880  0190  2994               	goto	u2833
  2881  0191  1683               	bsf	3,5	;RP0=1, select bank1
  2882  0192  1303               	bcf	3,6	;RP1=0, select bank1
  2883  0193  07AA               	addwf	(___flmul@prod+3)^(0+128),f
  2884  0194                     u2833:	
  2885  0194  1283               	bcf	3,5	;RP0=0, select bank0
  2886  0195  1303               	bcf	3,6	;RP1=0, select bank0
  2887  0196  1683               	bsf	3,5	;RP0=1, select bank1
  2888  0197  1303               	bcf	3,6	;RP1=0, select bank1
  2889  0198  1283               	bcf	3,5	;RP0=0, select bank0
  2890  0199  1303               	bcf	3,6	;RP1=0, select bank0
  2891  019A  084B               	movf	___flmul@b+2,w
  2892  019B  00D1               	movwf	??___flmul
  2893  019C  0851               	movf	??___flmul,w
  2894  019D  00B9               	movwf	__Umul8_16@multiplicand
  2895  019E  084D               	movf	___flmul@a,w
  2896  019F  158A  234A  118A   	fcall	__Umul8_16
  2897  01A2  1283               	bcf	3,5	;RP0=0, select bank0
  2898  01A3  1303               	bcf	3,6	;RP1=0, select bank0
  2899  01A4  083A               	movf	?__Umul8_16+1,w
  2900  01A5  1683               	bsf	3,5	;RP0=1, select bank1
  2901  01A6  1303               	bcf	3,6	;RP1=0, select bank1
  2902  01A7  00AC               	movwf	(___flmul@temp+1)^(0+128)
  2903  01A8  1283               	bcf	3,5	;RP0=0, select bank0
  2904  01A9  1303               	bcf	3,6	;RP1=0, select bank0
  2905  01AA  0839               	movf	?__Umul8_16,w
  2906  01AB  1683               	bsf	3,5	;RP0=1, select bank1
  2907  01AC  1303               	bcf	3,6	;RP1=0, select bank1
  2908  01AD  00AB               	movwf	___flmul@temp^(0+128)
  2909  01AE                     l2427:	
  2910  01AE  082B               	movf	___flmul@temp^(0+128),w
  2911  01AF  1283               	bcf	3,5	;RP0=0, select bank0
  2912  01B0  1303               	bcf	3,6	;RP1=0, select bank0
  2913  01B1  00D1               	movwf	??___flmul
  2914  01B2  01D2               	clrf	??___flmul+1
  2915  01B3  01D3               	clrf	??___flmul+2
  2916  01B4  01D4               	clrf	??___flmul+3
  2917  01B5  0851               	movf	??___flmul,w
  2918  01B6  1683               	bsf	3,5	;RP0=1, select bank1
  2919  01B7  1303               	bcf	3,6	;RP1=0, select bank1
  2920  01B8  07A2               	addwf	___flmul@grs^(0+128),f
  2921  01B9  1283               	bcf	3,5	;RP0=0, select bank0
  2922  01BA  1303               	bcf	3,6	;RP1=0, select bank0
  2923  01BB  0852               	movf	??___flmul+1,w
  2924  01BC  1103               	clrz
  2925  01BD  1803               	skipnc
  2926  01BE  3E01               	addlw	1
  2927  01BF  1903               	skipnz
  2928  01C0  29C4               	goto	u2841
  2929  01C1  1683               	bsf	3,5	;RP0=1, select bank1
  2930  01C2  1303               	bcf	3,6	;RP1=0, select bank1
  2931  01C3  07A3               	addwf	(___flmul@grs+1)^(0+128),f
  2932  01C4                     u2841:	
  2933  01C4  1283               	bcf	3,5	;RP0=0, select bank0
  2934  01C5  1303               	bcf	3,6	;RP1=0, select bank0
  2935  01C6  0853               	movf	??___flmul+2,w
  2936  01C7  1103               	clrz
  2937  01C8  1803               	skipnc
  2938  01C9  3E01               	addlw	1
  2939  01CA  1903               	skipnz
  2940  01CB  29CF               	goto	u2842
  2941  01CC  1683               	bsf	3,5	;RP0=1, select bank1
  2942  01CD  1303               	bcf	3,6	;RP1=0, select bank1
  2943  01CE  07A4               	addwf	(___flmul@grs+2)^(0+128),f
  2944  01CF                     u2842:	
  2945  01CF  1283               	bcf	3,5	;RP0=0, select bank0
  2946  01D0  1303               	bcf	3,6	;RP1=0, select bank0
  2947  01D1  0854               	movf	??___flmul+3,w
  2948  01D2  1103               	clrz
  2949  01D3  1803               	skipnc
  2950  01D4  3E01               	addlw	1
  2951  01D5  1903               	skipnz
  2952  01D6  29DA               	goto	u2843
  2953  01D7  1683               	bsf	3,5	;RP0=1, select bank1
  2954  01D8  1303               	bcf	3,6	;RP1=0, select bank1
  2955  01D9  07A5               	addwf	(___flmul@grs+3)^(0+128),f
  2956  01DA                     u2843:	
  2957  01DA  1283               	bcf	3,5	;RP0=0, select bank0
  2958  01DB  1303               	bcf	3,6	;RP1=0, select bank0
  2959  01DC  1683               	bsf	3,5	;RP0=1, select bank1
  2960  01DD  1303               	bcf	3,6	;RP1=0, select bank1
  2961  01DE                     l2429:	
  2962  01DE  082C               	movf	(___flmul@temp^(0+128)+1),w
  2963  01DF  1283               	bcf	3,5	;RP0=0, select bank0
  2964  01E0  1303               	bcf	3,6	;RP1=0, select bank0
  2965  01E1  00D1               	movwf	??___flmul
  2966  01E2  01D2               	clrf	??___flmul+1
  2967  01E3  01D3               	clrf	??___flmul+2
  2968  01E4  01D4               	clrf	??___flmul+3
  2969  01E5  0851               	movf	??___flmul,w
  2970  01E6  1683               	bsf	3,5	;RP0=1, select bank1
  2971  01E7  1303               	bcf	3,6	;RP1=0, select bank1
  2972  01E8  07A7               	addwf	___flmul@prod^(0+128),f
  2973  01E9  1283               	bcf	3,5	;RP0=0, select bank0
  2974  01EA  1303               	bcf	3,6	;RP1=0, select bank0
  2975  01EB  0852               	movf	??___flmul+1,w
  2976  01EC  1103               	clrz
  2977  01ED  1803               	skipnc
  2978  01EE  3E01               	addlw	1
  2979  01EF  1903               	skipnz
  2980  01F0  29F4               	goto	u2851
  2981  01F1  1683               	bsf	3,5	;RP0=1, select bank1
  2982  01F2  1303               	bcf	3,6	;RP1=0, select bank1
  2983  01F3  07A8               	addwf	(___flmul@prod+1)^(0+128),f
  2984  01F4                     u2851:	
  2985  01F4  1283               	bcf	3,5	;RP0=0, select bank0
  2986  01F5  1303               	bcf	3,6	;RP1=0, select bank0
  2987  01F6  0853               	movf	??___flmul+2,w
  2988  01F7  1103               	clrz
  2989  01F8  1803               	skipnc
  2990  01F9  3E01               	addlw	1
  2991  01FA  1903               	skipnz
  2992  01FB  29FF               	goto	u2852
  2993  01FC  1683               	bsf	3,5	;RP0=1, select bank1
  2994  01FD  1303               	bcf	3,6	;RP1=0, select bank1
  2995  01FE  07A9               	addwf	(___flmul@prod+2)^(0+128),f
  2996  01FF                     u2852:	
  2997  01FF  1283               	bcf	3,5	;RP0=0, select bank0
  2998  0200  1303               	bcf	3,6	;RP1=0, select bank0
  2999  0201  0854               	movf	??___flmul+3,w
  3000  0202  1103               	clrz
  3001  0203  1803               	skipnc
  3002  0204  3E01               	addlw	1
  3003  0205  1903               	skipnz
  3004  0206  2A0A               	goto	u2853
  3005  0207  1683               	bsf	3,5	;RP0=1, select bank1
  3006  0208  1303               	bcf	3,6	;RP1=0, select bank1
  3007  0209  07AA               	addwf	(___flmul@prod+3)^(0+128),f
  3008  020A                     u2853:	
  3009  020A  1283               	bcf	3,5	;RP0=0, select bank0
  3010  020B  1303               	bcf	3,6	;RP1=0, select bank0
  3011  020C  1683               	bsf	3,5	;RP0=1, select bank1
  3012  020D  1303               	bcf	3,6	;RP1=0, select bank1
  3013  020E                     l2431:	
  3014  020E  3008               	movlw	8
  3015  020F  1283               	bcf	3,5	;RP0=0, select bank0
  3016  0210  1303               	bcf	3,6	;RP1=0, select bank0
  3017  0211  00D1               	movwf	??___flmul
  3018  0212                     u2865:	
  3019  0212  1003               	clrc
  3020  0213  1683               	bsf	3,5	;RP0=1, select bank1
  3021  0214  1303               	bcf	3,6	;RP1=0, select bank1
  3022  0215  0DA2               	rlf	___flmul@grs^(0+128),f
  3023  0216  0DA3               	rlf	(___flmul@grs+1)^(0+128),f
  3024  0217  0DA4               	rlf	(___flmul@grs+2)^(0+128),f
  3025  0218  0DA5               	rlf	(___flmul@grs+3)^(0+128),f
  3026  0219  1283               	bcf	3,5	;RP0=0, select bank0
  3027  021A  1303               	bcf	3,6	;RP1=0, select bank0
  3028  021B  0BD1               	decfsz	??___flmul,f
  3029  021C  2A12               	goto	u2865
  3030  021D                     l2433:	
  3031  021D  084A               	movf	___flmul@b+1,w
  3032  021E  00D1               	movwf	??___flmul
  3033  021F  0851               	movf	??___flmul,w
  3034  0220  00B9               	movwf	__Umul8_16@multiplicand
  3035  0221  084D               	movf	___flmul@a,w
  3036  0222  158A  234A  118A   	fcall	__Umul8_16
  3037  0225  1283               	bcf	3,5	;RP0=0, select bank0
  3038  0226  1303               	bcf	3,6	;RP1=0, select bank0
  3039  0227  083A               	movf	?__Umul8_16+1,w
  3040  0228  1683               	bsf	3,5	;RP0=1, select bank1
  3041  0229  1303               	bcf	3,6	;RP1=0, select bank1
  3042  022A  00AC               	movwf	(___flmul@temp+1)^(0+128)
  3043  022B  1283               	bcf	3,5	;RP0=0, select bank0
  3044  022C  1303               	bcf	3,6	;RP1=0, select bank0
  3045  022D  0839               	movf	?__Umul8_16,w
  3046  022E  1683               	bsf	3,5	;RP0=1, select bank1
  3047  022F  1303               	bcf	3,6	;RP1=0, select bank1
  3048  0230  00AB               	movwf	___flmul@temp^(0+128)
  3049  0231                     l2435:	
  3050  0231  082B               	movf	___flmul@temp^(0+128),w
  3051  0232  1283               	bcf	3,5	;RP0=0, select bank0
  3052  0233  1303               	bcf	3,6	;RP1=0, select bank0
  3053  0234  00D1               	movwf	??___flmul
  3054  0235  1683               	bsf	3,5	;RP0=1, select bank1
  3055  0236  1303               	bcf	3,6	;RP1=0, select bank1
  3056  0237  082C               	movf	(___flmul@temp+1)^(0+128),w
  3057  0238  1283               	bcf	3,5	;RP0=0, select bank0
  3058  0239  1303               	bcf	3,6	;RP1=0, select bank0
  3059  023A  00D2               	movwf	??___flmul+1
  3060  023B  01D3               	clrf	??___flmul+2
  3061  023C  01D4               	clrf	??___flmul+3
  3062  023D  0851               	movf	??___flmul,w
  3063  023E  1683               	bsf	3,5	;RP0=1, select bank1
  3064  023F  1303               	bcf	3,6	;RP1=0, select bank1
  3065  0240  07A2               	addwf	___flmul@grs^(0+128),f
  3066  0241  1283               	bcf	3,5	;RP0=0, select bank0
  3067  0242  1303               	bcf	3,6	;RP1=0, select bank0
  3068  0243  0852               	movf	??___flmul+1,w
  3069  0244  1103               	clrz
  3070  0245  1803               	skipnc
  3071  0246  3E01               	addlw	1
  3072  0247  1903               	skipnz
  3073  0248  2A4C               	goto	u2871
  3074  0249  1683               	bsf	3,5	;RP0=1, select bank1
  3075  024A  1303               	bcf	3,6	;RP1=0, select bank1
  3076  024B  07A3               	addwf	(___flmul@grs+1)^(0+128),f
  3077  024C                     u2871:	
  3078  024C  1283               	bcf	3,5	;RP0=0, select bank0
  3079  024D  1303               	bcf	3,6	;RP1=0, select bank0
  3080  024E  0853               	movf	??___flmul+2,w
  3081  024F  1103               	clrz
  3082  0250  1803               	skipnc
  3083  0251  3E01               	addlw	1
  3084  0252  1903               	skipnz
  3085  0253  2A57               	goto	u2872
  3086  0254  1683               	bsf	3,5	;RP0=1, select bank1
  3087  0255  1303               	bcf	3,6	;RP1=0, select bank1
  3088  0256  07A4               	addwf	(___flmul@grs+2)^(0+128),f
  3089  0257                     u2872:	
  3090  0257  1283               	bcf	3,5	;RP0=0, select bank0
  3091  0258  1303               	bcf	3,6	;RP1=0, select bank0
  3092  0259  0854               	movf	??___flmul+3,w
  3093  025A  1103               	clrz
  3094  025B  1803               	skipnc
  3095  025C  3E01               	addlw	1
  3096  025D  1903               	skipnz
  3097  025E  2A62               	goto	u2873
  3098  025F  1683               	bsf	3,5	;RP0=1, select bank1
  3099  0260  1303               	bcf	3,6	;RP1=0, select bank1
  3100  0261  07A5               	addwf	(___flmul@grs+3)^(0+128),f
  3101  0262                     u2873:	
  3102  0262  1283               	bcf	3,5	;RP0=0, select bank0
  3103  0263  1303               	bcf	3,6	;RP1=0, select bank0
  3104  0264  1683               	bsf	3,5	;RP0=1, select bank1
  3105  0265  1303               	bcf	3,6	;RP1=0, select bank1
  3106  0266                     l2437:	
  3107  0266  1283               	bcf	3,5	;RP0=0, select bank0
  3108  0267  1303               	bcf	3,6	;RP1=0, select bank0
  3109  0268  0849               	movf	___flmul@b,w
  3110  0269  00D1               	movwf	??___flmul
  3111  026A  0851               	movf	??___flmul,w
  3112  026B  00B9               	movwf	__Umul8_16@multiplicand
  3113  026C  084E               	movf	___flmul@a+1,w
  3114  026D  158A  234A  118A   	fcall	__Umul8_16
  3115  0270  1283               	bcf	3,5	;RP0=0, select bank0
  3116  0271  1303               	bcf	3,6	;RP1=0, select bank0
  3117  0272  083A               	movf	?__Umul8_16+1,w
  3118  0273  1683               	bsf	3,5	;RP0=1, select bank1
  3119  0274  1303               	bcf	3,6	;RP1=0, select bank1
  3120  0275  00AC               	movwf	(___flmul@temp+1)^(0+128)
  3121  0276  1283               	bcf	3,5	;RP0=0, select bank0
  3122  0277  1303               	bcf	3,6	;RP1=0, select bank0
  3123  0278  0839               	movf	?__Umul8_16,w
  3124  0279  1683               	bsf	3,5	;RP0=1, select bank1
  3125  027A  1303               	bcf	3,6	;RP1=0, select bank1
  3126  027B  00AB               	movwf	___flmul@temp^(0+128)
  3127  027C                     l2439:	
  3128  027C  082B               	movf	___flmul@temp^(0+128),w
  3129  027D  1283               	bcf	3,5	;RP0=0, select bank0
  3130  027E  1303               	bcf	3,6	;RP1=0, select bank0
  3131  027F  00D1               	movwf	??___flmul
  3132  0280  1683               	bsf	3,5	;RP0=1, select bank1
  3133  0281  1303               	bcf	3,6	;RP1=0, select bank1
  3134  0282  082C               	movf	(___flmul@temp+1)^(0+128),w
  3135  0283  1283               	bcf	3,5	;RP0=0, select bank0
  3136  0284  1303               	bcf	3,6	;RP1=0, select bank0
  3137  0285  00D2               	movwf	??___flmul+1
  3138  0286  01D3               	clrf	??___flmul+2
  3139  0287  01D4               	clrf	??___flmul+3
  3140  0288  0851               	movf	??___flmul,w
  3141  0289  1683               	bsf	3,5	;RP0=1, select bank1
  3142  028A  1303               	bcf	3,6	;RP1=0, select bank1
  3143  028B  07A2               	addwf	___flmul@grs^(0+128),f
  3144  028C  1283               	bcf	3,5	;RP0=0, select bank0
  3145  028D  1303               	bcf	3,6	;RP1=0, select bank0
  3146  028E  0852               	movf	??___flmul+1,w
  3147  028F  1103               	clrz
  3148  0290  1803               	skipnc
  3149  0291  3E01               	addlw	1
  3150  0292  1903               	skipnz
  3151  0293  2A97               	goto	u2881
  3152  0294  1683               	bsf	3,5	;RP0=1, select bank1
  3153  0295  1303               	bcf	3,6	;RP1=0, select bank1
  3154  0296  07A3               	addwf	(___flmul@grs+1)^(0+128),f
  3155  0297                     u2881:	
  3156  0297  1283               	bcf	3,5	;RP0=0, select bank0
  3157  0298  1303               	bcf	3,6	;RP1=0, select bank0
  3158  0299  0853               	movf	??___flmul+2,w
  3159  029A  1103               	clrz
  3160  029B  1803               	skipnc
  3161  029C  3E01               	addlw	1
  3162  029D  1903               	skipnz
  3163  029E  2AA2               	goto	u2882
  3164  029F  1683               	bsf	3,5	;RP0=1, select bank1
  3165  02A0  1303               	bcf	3,6	;RP1=0, select bank1
  3166  02A1  07A4               	addwf	(___flmul@grs+2)^(0+128),f
  3167  02A2                     u2882:	
  3168  02A2  1283               	bcf	3,5	;RP0=0, select bank0
  3169  02A3  1303               	bcf	3,6	;RP1=0, select bank0
  3170  02A4  0854               	movf	??___flmul+3,w
  3171  02A5  1103               	clrz
  3172  02A6  1803               	skipnc
  3173  02A7  3E01               	addlw	1
  3174  02A8  1903               	skipnz
  3175  02A9  2AAD               	goto	u2883
  3176  02AA  1683               	bsf	3,5	;RP0=1, select bank1
  3177  02AB  1303               	bcf	3,6	;RP1=0, select bank1
  3178  02AC  07A5               	addwf	(___flmul@grs+3)^(0+128),f
  3179  02AD                     u2883:	
  3180  02AD  1283               	bcf	3,5	;RP0=0, select bank0
  3181  02AE  1303               	bcf	3,6	;RP1=0, select bank0
  3182  02AF  1683               	bsf	3,5	;RP0=1, select bank1
  3183  02B0  1303               	bcf	3,6	;RP1=0, select bank1
  3184  02B1                     l2441:	
  3185  02B1  3008               	movlw	8
  3186  02B2  1283               	bcf	3,5	;RP0=0, select bank0
  3187  02B3  1303               	bcf	3,6	;RP1=0, select bank0
  3188  02B4  00D1               	movwf	??___flmul
  3189  02B5                     u2895:	
  3190  02B5  1003               	clrc
  3191  02B6  1683               	bsf	3,5	;RP0=1, select bank1
  3192  02B7  1303               	bcf	3,6	;RP1=0, select bank1
  3193  02B8  0DA2               	rlf	___flmul@grs^(0+128),f
  3194  02B9  0DA3               	rlf	(___flmul@grs+1)^(0+128),f
  3195  02BA  0DA4               	rlf	(___flmul@grs+2)^(0+128),f
  3196  02BB  0DA5               	rlf	(___flmul@grs+3)^(0+128),f
  3197  02BC  1283               	bcf	3,5	;RP0=0, select bank0
  3198  02BD  1303               	bcf	3,6	;RP1=0, select bank0
  3199  02BE  0BD1               	decfsz	??___flmul,f
  3200  02BF  2AB5               	goto	u2895
  3201  02C0  0849               	movf	___flmul@b,w
  3202  02C1  00D1               	movwf	??___flmul
  3203  02C2  0851               	movf	??___flmul,w
  3204  02C3  00B9               	movwf	__Umul8_16@multiplicand
  3205  02C4  084D               	movf	___flmul@a,w
  3206  02C5  158A  234A  118A   	fcall	__Umul8_16
  3207  02C8  1283               	bcf	3,5	;RP0=0, select bank0
  3208  02C9  1303               	bcf	3,6	;RP1=0, select bank0
  3209  02CA  083A               	movf	?__Umul8_16+1,w
  3210  02CB  1683               	bsf	3,5	;RP0=1, select bank1
  3211  02CC  1303               	bcf	3,6	;RP1=0, select bank1
  3212  02CD  00AC               	movwf	(___flmul@temp+1)^(0+128)
  3213  02CE  1283               	bcf	3,5	;RP0=0, select bank0
  3214  02CF  1303               	bcf	3,6	;RP1=0, select bank0
  3215  02D0  0839               	movf	?__Umul8_16,w
  3216  02D1  1683               	bsf	3,5	;RP0=1, select bank1
  3217  02D2  1303               	bcf	3,6	;RP1=0, select bank1
  3218  02D3  00AB               	movwf	___flmul@temp^(0+128)
  3219  02D4                     l2443:	
  3220  02D4  082B               	movf	___flmul@temp^(0+128),w
  3221  02D5  1283               	bcf	3,5	;RP0=0, select bank0
  3222  02D6  1303               	bcf	3,6	;RP1=0, select bank0
  3223  02D7  00D1               	movwf	??___flmul
  3224  02D8  1683               	bsf	3,5	;RP0=1, select bank1
  3225  02D9  1303               	bcf	3,6	;RP1=0, select bank1
  3226  02DA  082C               	movf	(___flmul@temp+1)^(0+128),w
  3227  02DB  1283               	bcf	3,5	;RP0=0, select bank0
  3228  02DC  1303               	bcf	3,6	;RP1=0, select bank0
  3229  02DD  00D2               	movwf	??___flmul+1
  3230  02DE  01D3               	clrf	??___flmul+2
  3231  02DF  01D4               	clrf	??___flmul+3
  3232  02E0  0851               	movf	??___flmul,w
  3233  02E1  1683               	bsf	3,5	;RP0=1, select bank1
  3234  02E2  1303               	bcf	3,6	;RP1=0, select bank1
  3235  02E3  07A2               	addwf	___flmul@grs^(0+128),f
  3236  02E4  1283               	bcf	3,5	;RP0=0, select bank0
  3237  02E5  1303               	bcf	3,6	;RP1=0, select bank0
  3238  02E6  0852               	movf	??___flmul+1,w
  3239  02E7  1103               	clrz
  3240  02E8  1803               	skipnc
  3241  02E9  3E01               	addlw	1
  3242  02EA  1903               	skipnz
  3243  02EB  2AEF               	goto	u2901
  3244  02EC  1683               	bsf	3,5	;RP0=1, select bank1
  3245  02ED  1303               	bcf	3,6	;RP1=0, select bank1
  3246  02EE  07A3               	addwf	(___flmul@grs+1)^(0+128),f
  3247  02EF                     u2901:	
  3248  02EF  1283               	bcf	3,5	;RP0=0, select bank0
  3249  02F0  1303               	bcf	3,6	;RP1=0, select bank0
  3250  02F1  0853               	movf	??___flmul+2,w
  3251  02F2  1103               	clrz
  3252  02F3  1803               	skipnc
  3253  02F4  3E01               	addlw	1
  3254  02F5  1903               	skipnz
  3255  02F6  2AFA               	goto	u2902
  3256  02F7  1683               	bsf	3,5	;RP0=1, select bank1
  3257  02F8  1303               	bcf	3,6	;RP1=0, select bank1
  3258  02F9  07A4               	addwf	(___flmul@grs+2)^(0+128),f
  3259  02FA                     u2902:	
  3260  02FA  1283               	bcf	3,5	;RP0=0, select bank0
  3261  02FB  1303               	bcf	3,6	;RP1=0, select bank0
  3262  02FC  0854               	movf	??___flmul+3,w
  3263  02FD  1103               	clrz
  3264  02FE  1803               	skipnc
  3265  02FF  3E01               	addlw	1
  3266  0300  1903               	skipnz
  3267  0301  2B05               	goto	u2903
  3268  0302  1683               	bsf	3,5	;RP0=1, select bank1
  3269  0303  1303               	bcf	3,6	;RP1=0, select bank1
  3270  0304  07A5               	addwf	(___flmul@grs+3)^(0+128),f
  3271  0305                     u2903:	
  3272  0305  1283               	bcf	3,5	;RP0=0, select bank0
  3273  0306  1303               	bcf	3,6	;RP1=0, select bank0
  3274  0307  1683               	bsf	3,5	;RP0=1, select bank1
  3275  0308  1303               	bcf	3,6	;RP1=0, select bank1
  3276  0309                     l2445:	
  3277  0309  1283               	bcf	3,5	;RP0=0, select bank0
  3278  030A  1303               	bcf	3,6	;RP1=0, select bank0
  3279  030B  084A               	movf	___flmul@b+1,w
  3280  030C  00D1               	movwf	??___flmul
  3281  030D  0851               	movf	??___flmul,w
  3282  030E  00B9               	movwf	__Umul8_16@multiplicand
  3283  030F  084F               	movf	___flmul@a+2,w
  3284  0310  158A  234A  118A   	fcall	__Umul8_16
  3285  0313  1283               	bcf	3,5	;RP0=0, select bank0
  3286  0314  1303               	bcf	3,6	;RP1=0, select bank0
  3287  0315  083A               	movf	?__Umul8_16+1,w
  3288  0316  1683               	bsf	3,5	;RP0=1, select bank1
  3289  0317  1303               	bcf	3,6	;RP1=0, select bank1
  3290  0318  00AC               	movwf	(___flmul@temp+1)^(0+128)
  3291  0319  1283               	bcf	3,5	;RP0=0, select bank0
  3292  031A  1303               	bcf	3,6	;RP1=0, select bank0
  3293  031B  0839               	movf	?__Umul8_16,w
  3294  031C  1683               	bsf	3,5	;RP0=1, select bank1
  3295  031D  1303               	bcf	3,6	;RP1=0, select bank1
  3296  031E  00AB               	movwf	___flmul@temp^(0+128)
  3297  031F  082B               	movf	___flmul@temp^(0+128),w
  3298  0320  1283               	bcf	3,5	;RP0=0, select bank0
  3299  0321  1303               	bcf	3,6	;RP1=0, select bank0
  3300  0322  00D1               	movwf	??___flmul
  3301  0323  1683               	bsf	3,5	;RP0=1, select bank1
  3302  0324  1303               	bcf	3,6	;RP1=0, select bank1
  3303  0325  082C               	movf	(___flmul@temp+1)^(0+128),w
  3304  0326  1283               	bcf	3,5	;RP0=0, select bank0
  3305  0327  1303               	bcf	3,6	;RP1=0, select bank0
  3306  0328  00D2               	movwf	??___flmul+1
  3307  0329  01D3               	clrf	??___flmul+2
  3308  032A  01D4               	clrf	??___flmul+3
  3309  032B  0851               	movf	??___flmul,w
  3310  032C  1683               	bsf	3,5	;RP0=1, select bank1
  3311  032D  1303               	bcf	3,6	;RP1=0, select bank1
  3312  032E  07A7               	addwf	___flmul@prod^(0+128),f
  3313  032F  1283               	bcf	3,5	;RP0=0, select bank0
  3314  0330  1303               	bcf	3,6	;RP1=0, select bank0
  3315  0331  0852               	movf	??___flmul+1,w
  3316  0332  1103               	clrz
  3317  0333  1803               	skipnc
  3318  0334  3E01               	addlw	1
  3319  0335  1903               	skipnz
  3320  0336  2B3A               	goto	u2911
  3321  0337  1683               	bsf	3,5	;RP0=1, select bank1
  3322  0338  1303               	bcf	3,6	;RP1=0, select bank1
  3323  0339  07A8               	addwf	(___flmul@prod+1)^(0+128),f
  3324  033A                     u2911:	
  3325  033A  1283               	bcf	3,5	;RP0=0, select bank0
  3326  033B  1303               	bcf	3,6	;RP1=0, select bank0
  3327  033C  0853               	movf	??___flmul+2,w
  3328  033D  1103               	clrz
  3329  033E  1803               	skipnc
  3330  033F  3E01               	addlw	1
  3331  0340  1903               	skipnz
  3332  0341  2B45               	goto	u2912
  3333  0342  1683               	bsf	3,5	;RP0=1, select bank1
  3334  0343  1303               	bcf	3,6	;RP1=0, select bank1
  3335  0344  07A9               	addwf	(___flmul@prod+2)^(0+128),f
  3336  0345                     u2912:	
  3337  0345  1283               	bcf	3,5	;RP0=0, select bank0
  3338  0346  1303               	bcf	3,6	;RP1=0, select bank0
  3339  0347  0854               	movf	??___flmul+3,w
  3340  0348  1103               	clrz
  3341  0349  1803               	skipnc
  3342  034A  3E01               	addlw	1
  3343  034B  1903               	skipnz
  3344  034C  2B50               	goto	u2913
  3345  034D  1683               	bsf	3,5	;RP0=1, select bank1
  3346  034E  1303               	bcf	3,6	;RP1=0, select bank1
  3347  034F  07AA               	addwf	(___flmul@prod+3)^(0+128),f
  3348  0350                     u2913:	
  3349  0350  1283               	bcf	3,5	;RP0=0, select bank0
  3350  0351  1303               	bcf	3,6	;RP1=0, select bank0
  3351  0352  1683               	bsf	3,5	;RP0=1, select bank1
  3352  0353  1303               	bcf	3,6	;RP1=0, select bank1
  3353  0354                     l2447:	
  3354  0354  1283               	bcf	3,5	;RP0=0, select bank0
  3355  0355  1303               	bcf	3,6	;RP1=0, select bank0
  3356  0356  084B               	movf	___flmul@b+2,w
  3357  0357  00D1               	movwf	??___flmul
  3358  0358  0851               	movf	??___flmul,w
  3359  0359  00B9               	movwf	__Umul8_16@multiplicand
  3360  035A  084E               	movf	___flmul@a+1,w
  3361  035B  158A  234A  118A   	fcall	__Umul8_16
  3362  035E  1283               	bcf	3,5	;RP0=0, select bank0
  3363  035F  1303               	bcf	3,6	;RP1=0, select bank0
  3364  0360  083A               	movf	?__Umul8_16+1,w
  3365  0361  1683               	bsf	3,5	;RP0=1, select bank1
  3366  0362  1303               	bcf	3,6	;RP1=0, select bank1
  3367  0363  00AC               	movwf	(___flmul@temp+1)^(0+128)
  3368  0364  1283               	bcf	3,5	;RP0=0, select bank0
  3369  0365  1303               	bcf	3,6	;RP1=0, select bank0
  3370  0366  0839               	movf	?__Umul8_16,w
  3371  0367  1683               	bsf	3,5	;RP0=1, select bank1
  3372  0368  1303               	bcf	3,6	;RP1=0, select bank1
  3373  0369  00AB               	movwf	___flmul@temp^(0+128)
  3374  036A                     l2449:	
  3375  036A  082B               	movf	___flmul@temp^(0+128),w
  3376  036B  1283               	bcf	3,5	;RP0=0, select bank0
  3377  036C  1303               	bcf	3,6	;RP1=0, select bank0
  3378  036D  00D1               	movwf	??___flmul
  3379  036E  1683               	bsf	3,5	;RP0=1, select bank1
  3380  036F  1303               	bcf	3,6	;RP1=0, select bank1
  3381  0370  082C               	movf	(___flmul@temp+1)^(0+128),w
  3382  0371  1283               	bcf	3,5	;RP0=0, select bank0
  3383  0372  1303               	bcf	3,6	;RP1=0, select bank0
  3384  0373  00D2               	movwf	??___flmul+1
  3385  0374  01D3               	clrf	??___flmul+2
  3386  0375  01D4               	clrf	??___flmul+3
  3387  0376  0851               	movf	??___flmul,w
  3388  0377  1683               	bsf	3,5	;RP0=1, select bank1
  3389  0378  1303               	bcf	3,6	;RP1=0, select bank1
  3390  0379  07A7               	addwf	___flmul@prod^(0+128),f
  3391  037A  1283               	bcf	3,5	;RP0=0, select bank0
  3392  037B  1303               	bcf	3,6	;RP1=0, select bank0
  3393  037C  0852               	movf	??___flmul+1,w
  3394  037D  1103               	clrz
  3395  037E  1803               	skipnc
  3396  037F  3E01               	addlw	1
  3397  0380  1903               	skipnz
  3398  0381  2B85               	goto	u2921
  3399  0382  1683               	bsf	3,5	;RP0=1, select bank1
  3400  0383  1303               	bcf	3,6	;RP1=0, select bank1
  3401  0384  07A8               	addwf	(___flmul@prod+1)^(0+128),f
  3402  0385                     u2921:	
  3403  0385  1283               	bcf	3,5	;RP0=0, select bank0
  3404  0386  1303               	bcf	3,6	;RP1=0, select bank0
  3405  0387  0853               	movf	??___flmul+2,w
  3406  0388  1103               	clrz
  3407  0389  1803               	skipnc
  3408  038A  3E01               	addlw	1
  3409  038B  1903               	skipnz
  3410  038C  2B90               	goto	u2922
  3411  038D  1683               	bsf	3,5	;RP0=1, select bank1
  3412  038E  1303               	bcf	3,6	;RP1=0, select bank1
  3413  038F  07A9               	addwf	(___flmul@prod+2)^(0+128),f
  3414  0390                     u2922:	
  3415  0390  1283               	bcf	3,5	;RP0=0, select bank0
  3416  0391  1303               	bcf	3,6	;RP1=0, select bank0
  3417  0392  0854               	movf	??___flmul+3,w
  3418  0393  1103               	clrz
  3419  0394  1803               	skipnc
  3420  0395  3E01               	addlw	1
  3421  0396  1903               	skipnz
  3422  0397  2B9B               	goto	u2923
  3423  0398  1683               	bsf	3,5	;RP0=1, select bank1
  3424  0399  1303               	bcf	3,6	;RP1=0, select bank1
  3425  039A  07AA               	addwf	(___flmul@prod+3)^(0+128),f
  3426  039B                     u2923:	
  3427  039B  1283               	bcf	3,5	;RP0=0, select bank0
  3428  039C  1303               	bcf	3,6	;RP1=0, select bank0
  3429  039D  1683               	bsf	3,5	;RP0=1, select bank1
  3430  039E  1303               	bcf	3,6	;RP1=0, select bank1
  3431  039F  1283               	bcf	3,5	;RP0=0, select bank0
  3432  03A0  1303               	bcf	3,6	;RP1=0, select bank0
  3433  03A1  084B               	movf	___flmul@b+2,w
  3434  03A2  00D1               	movwf	??___flmul
  3435  03A3  0851               	movf	??___flmul,w
  3436  03A4  00B9               	movwf	__Umul8_16@multiplicand
  3437  03A5  084F               	movf	___flmul@a+2,w
  3438  03A6  158A  234A  118A   	fcall	__Umul8_16
  3439  03A9  1283               	bcf	3,5	;RP0=0, select bank0
  3440  03AA  1303               	bcf	3,6	;RP1=0, select bank0
  3441  03AB  083A               	movf	?__Umul8_16+1,w
  3442  03AC  1683               	bsf	3,5	;RP0=1, select bank1
  3443  03AD  1303               	bcf	3,6	;RP1=0, select bank1
  3444  03AE  00AC               	movwf	(___flmul@temp+1)^(0+128)
  3445  03AF  1283               	bcf	3,5	;RP0=0, select bank0
  3446  03B0  1303               	bcf	3,6	;RP1=0, select bank0
  3447  03B1  0839               	movf	?__Umul8_16,w
  3448  03B2  1683               	bsf	3,5	;RP0=1, select bank1
  3449  03B3  1303               	bcf	3,6	;RP1=0, select bank1
  3450  03B4  00AB               	movwf	___flmul@temp^(0+128)
  3451  03B5                     l2451:	
  3452  03B5  082B               	movf	___flmul@temp^(0+128),w
  3453  03B6  1283               	bcf	3,5	;RP0=0, select bank0
  3454  03B7  1303               	bcf	3,6	;RP1=0, select bank0
  3455  03B8  00D1               	movwf	??___flmul
  3456  03B9  1683               	bsf	3,5	;RP0=1, select bank1
  3457  03BA  1303               	bcf	3,6	;RP1=0, select bank1
  3458  03BB  082C               	movf	(___flmul@temp+1)^(0+128),w
  3459  03BC  1283               	bcf	3,5	;RP0=0, select bank0
  3460  03BD  1303               	bcf	3,6	;RP1=0, select bank0
  3461  03BE  00D2               	movwf	??___flmul+1
  3462  03BF  01D3               	clrf	??___flmul+2
  3463  03C0  01D4               	clrf	??___flmul+3
  3464  03C1  3008               	movlw	8
  3465  03C2                     u2935:	
  3466  03C2  1003               	clrc
  3467  03C3  0DD1               	rlf	??___flmul,f
  3468  03C4  0DD2               	rlf	??___flmul+1,f
  3469  03C5  0DD3               	rlf	??___flmul+2,f
  3470  03C6  0DD4               	rlf	??___flmul+3,f
  3471  03C7                     u2930:	
  3472  03C7  3EFF               	addlw	-1
  3473  03C8  1D03               	skipz
  3474  03C9  2BC2               	goto	u2935
  3475  03CA  0851               	movf	??___flmul,w
  3476  03CB  1683               	bsf	3,5	;RP0=1, select bank1
  3477  03CC  1303               	bcf	3,6	;RP1=0, select bank1
  3478  03CD  07A7               	addwf	___flmul@prod^(0+128),f
  3479  03CE  1283               	bcf	3,5	;RP0=0, select bank0
  3480  03CF  1303               	bcf	3,6	;RP1=0, select bank0
  3481  03D0  0852               	movf	??___flmul+1,w
  3482  03D1  1103               	clrz
  3483  03D2  1803               	skipnc
  3484  03D3  3E01               	addlw	1
  3485  03D4  1903               	skipnz
  3486  03D5  2BD9               	goto	u2941
  3487  03D6  1683               	bsf	3,5	;RP0=1, select bank1
  3488  03D7  1303               	bcf	3,6	;RP1=0, select bank1
  3489  03D8  07A8               	addwf	(___flmul@prod+1)^(0+128),f
  3490  03D9                     u2941:	
  3491  03D9  1283               	bcf	3,5	;RP0=0, select bank0
  3492  03DA  1303               	bcf	3,6	;RP1=0, select bank0
  3493  03DB  0853               	movf	??___flmul+2,w
  3494  03DC  1103               	clrz
  3495  03DD  1803               	skipnc
  3496  03DE  3E01               	addlw	1
  3497  03DF  1903               	skipnz
  3498  03E0  2BE4               	goto	u2942
  3499  03E1  1683               	bsf	3,5	;RP0=1, select bank1
  3500  03E2  1303               	bcf	3,6	;RP1=0, select bank1
  3501  03E3  07A9               	addwf	(___flmul@prod+2)^(0+128),f
  3502  03E4                     u2942:	
  3503  03E4  1283               	bcf	3,5	;RP0=0, select bank0
  3504  03E5  1303               	bcf	3,6	;RP1=0, select bank0
  3505  03E6  0854               	movf	??___flmul+3,w
  3506  03E7  1103               	clrz
  3507  03E8  1803               	skipnc
  3508  03E9  3E01               	addlw	1
  3509  03EA  1903               	skipnz
  3510  03EB  2BEF               	goto	u2943
  3511  03EC  1683               	bsf	3,5	;RP0=1, select bank1
  3512  03ED  1303               	bcf	3,6	;RP1=0, select bank1
  3513  03EE  07AA               	addwf	(___flmul@prod+3)^(0+128),f
  3514  03EF                     u2943:	
  3515  03EF  1283               	bcf	3,5	;RP0=0, select bank0
  3516  03F0  1303               	bcf	3,6	;RP1=0, select bank0
  3517  03F1  1683               	bsf	3,5	;RP0=1, select bank1
  3518  03F2  1303               	bcf	3,6	;RP1=0, select bank1
  3519  03F3                     l2453:	
  3520  03F3  0822               	movf	___flmul@grs^(0+128),w
  3521  03F4  1283               	bcf	3,5	;RP0=0, select bank0
  3522  03F5  1303               	bcf	3,6	;RP1=0, select bank0
  3523  03F6  00D1               	movwf	??___flmul
  3524  03F7  1683               	bsf	3,5	;RP0=1, select bank1
  3525  03F8  1303               	bcf	3,6	;RP1=0, select bank1
  3526  03F9  0823               	movf	(___flmul@grs+1)^(0+128),w
  3527  03FA  1283               	bcf	3,5	;RP0=0, select bank0
  3528  03FB  1303               	bcf	3,6	;RP1=0, select bank0
  3529  03FC  00D2               	movwf	??___flmul+1
  3530  03FD  1683               	bsf	3,5	;RP0=1, select bank1
  3531  03FE  1303               	bcf	3,6	;RP1=0, select bank1
  3532  03FF  0824               	movf	(___flmul@grs+2)^(0+128),w
  3533  0400  1283               	bcf	3,5	;RP0=0, select bank0
  3534  0401  1303               	bcf	3,6	;RP1=0, select bank0
  3535  0402  00D3               	movwf	??___flmul+2
  3536  0403  1683               	bsf	3,5	;RP0=1, select bank1
  3537  0404  1303               	bcf	3,6	;RP1=0, select bank1
  3538  0405  0825               	movf	(___flmul@grs+3)^(0+128),w
  3539  0406  1283               	bcf	3,5	;RP0=0, select bank0
  3540  0407  1303               	bcf	3,6	;RP1=0, select bank0
  3541  0408  00D4               	movwf	??___flmul+3
  3542  0409  3018               	movlw	24
  3543  040A                     u2955:	
  3544  040A  1003               	clrc
  3545  040B  0CD4               	rrf	??___flmul+3,f
  3546  040C  0CD3               	rrf	??___flmul+2,f
  3547  040D  0CD2               	rrf	??___flmul+1,f
  3548  040E  0CD1               	rrf	??___flmul,f
  3549  040F                     u2950:	
  3550  040F  3EFF               	addlw	-1
  3551  0410  1D03               	skipz
  3552  0411  2C0A               	goto	u2955
  3553  0412  0851               	movf	??___flmul,w
  3554  0413  1683               	bsf	3,5	;RP0=1, select bank1
  3555  0414  1303               	bcf	3,6	;RP1=0, select bank1
  3556  0415  07A7               	addwf	___flmul@prod^(0+128),f
  3557  0416  1283               	bcf	3,5	;RP0=0, select bank0
  3558  0417  1303               	bcf	3,6	;RP1=0, select bank0
  3559  0418  0852               	movf	??___flmul+1,w
  3560  0419  1103               	clrz
  3561  041A  1803               	skipnc
  3562  041B  3E01               	addlw	1
  3563  041C  1903               	skipnz
  3564  041D  2C21               	goto	u2961
  3565  041E  1683               	bsf	3,5	;RP0=1, select bank1
  3566  041F  1303               	bcf	3,6	;RP1=0, select bank1
  3567  0420  07A8               	addwf	(___flmul@prod+1)^(0+128),f
  3568  0421                     u2961:	
  3569  0421  1283               	bcf	3,5	;RP0=0, select bank0
  3570  0422  1303               	bcf	3,6	;RP1=0, select bank0
  3571  0423  0853               	movf	??___flmul+2,w
  3572  0424  1103               	clrz
  3573  0425  1803               	skipnc
  3574  0426  3E01               	addlw	1
  3575  0427  1903               	skipnz
  3576  0428  2C2C               	goto	u2962
  3577  0429  1683               	bsf	3,5	;RP0=1, select bank1
  3578  042A  1303               	bcf	3,6	;RP1=0, select bank1
  3579  042B  07A9               	addwf	(___flmul@prod+2)^(0+128),f
  3580  042C                     u2962:	
  3581  042C  1283               	bcf	3,5	;RP0=0, select bank0
  3582  042D  1303               	bcf	3,6	;RP1=0, select bank0
  3583  042E  0854               	movf	??___flmul+3,w
  3584  042F  1103               	clrz
  3585  0430  1803               	skipnc
  3586  0431  3E01               	addlw	1
  3587  0432  1903               	skipnz
  3588  0433  2C37               	goto	u2963
  3589  0434  1683               	bsf	3,5	;RP0=1, select bank1
  3590  0435  1303               	bcf	3,6	;RP1=0, select bank1
  3591  0436  07AA               	addwf	(___flmul@prod+3)^(0+128),f
  3592  0437                     u2963:	
  3593  0437  1283               	bcf	3,5	;RP0=0, select bank0
  3594  0438  1303               	bcf	3,6	;RP1=0, select bank0
  3595  0439  1683               	bsf	3,5	;RP0=1, select bank1
  3596  043A  1303               	bcf	3,6	;RP1=0, select bank1
  3597  043B                     l2455:	
  3598  043B  3008               	movlw	8
  3599  043C  1283               	bcf	3,5	;RP0=0, select bank0
  3600  043D  1303               	bcf	3,6	;RP1=0, select bank0
  3601  043E  00D1               	movwf	??___flmul
  3602  043F                     u2975:	
  3603  043F  1003               	clrc
  3604  0440  1683               	bsf	3,5	;RP0=1, select bank1
  3605  0441  1303               	bcf	3,6	;RP1=0, select bank1
  3606  0442  0DA2               	rlf	___flmul@grs^(0+128),f
  3607  0443  0DA3               	rlf	(___flmul@grs+1)^(0+128),f
  3608  0444  0DA4               	rlf	(___flmul@grs+2)^(0+128),f
  3609  0445  0DA5               	rlf	(___flmul@grs+3)^(0+128),f
  3610  0446  1283               	bcf	3,5	;RP0=0, select bank0
  3611  0447  1303               	bcf	3,6	;RP1=0, select bank0
  3612  0448  0BD1               	decfsz	??___flmul,f
  3613  0449  2C3F               	goto	u2975
  3614  044A                     l2457:	
  3615  044A  1683               	bsf	3,5	;RP0=1, select bank1
  3616  044B  1303               	bcf	3,6	;RP1=0, select bank1
  3617  044C  0826               	movf	___flmul@bexp^(0+128),w
  3618  044D  0721               	addwf	___flmul@aexp^(0+128),w
  3619  044E  1283               	bcf	3,5	;RP0=0, select bank0
  3620  044F  1303               	bcf	3,6	;RP1=0, select bank0
  3621  0450  00D1               	movwf	??___flmul
  3622  0451  01D2               	clrf	??___flmul+1
  3623  0452  0DD2               	rlf	??___flmul+1,f
  3624  0453  0851               	movf	??___flmul,w
  3625  0454  3E82               	addlw	130
  3626  0455  1683               	bsf	3,5	;RP0=1, select bank1
  3627  0456  1303               	bcf	3,6	;RP1=0, select bank1
  3628  0457  00AB               	movwf	___flmul@temp^(0+128)
  3629  0458  1283               	bcf	3,5	;RP0=0, select bank0
  3630  0459  1303               	bcf	3,6	;RP1=0, select bank0
  3631  045A  0852               	movf	??___flmul+1,w
  3632  045B  1803               	skipnc
  3633  045C  3E01               	addlw	1
  3634  045D  3EFF               	addlw	255
  3635  045E  1683               	bsf	3,5	;RP0=1, select bank1
  3636  045F  1303               	bcf	3,6	;RP1=0, select bank1
  3637  0460  00AC               	movwf	(___flmul@temp+1)^(0+128)
  3638  0461  2C8F               	goto	l2469
  3639  0462                     l2459:	
  3640  0462  3001               	movlw	1
  3641  0463  1283               	bcf	3,5	;RP0=0, select bank0
  3642  0464  1303               	bcf	3,6	;RP1=0, select bank0
  3643  0465  00D1               	movwf	??___flmul
  3644  0466                     u2985:	
  3645  0466  1003               	clrc
  3646  0467  1683               	bsf	3,5	;RP0=1, select bank1
  3647  0468  1303               	bcf	3,6	;RP1=0, select bank1
  3648  0469  0DA7               	rlf	___flmul@prod^(0+128),f
  3649  046A  0DA8               	rlf	(___flmul@prod+1)^(0+128),f
  3650  046B  0DA9               	rlf	(___flmul@prod+2)^(0+128),f
  3651  046C  0DAA               	rlf	(___flmul@prod+3)^(0+128),f
  3652  046D  1283               	bcf	3,5	;RP0=0, select bank0
  3653  046E  1303               	bcf	3,6	;RP1=0, select bank0
  3654  046F  0BD1               	decfsz	??___flmul,f
  3655  0470  2C66               	goto	u2985
  3656  0471                     l2461:	
  3657  0471  1683               	bsf	3,5	;RP0=1, select bank1
  3658  0472  1303               	bcf	3,6	;RP1=0, select bank1
  3659  0473  1FA5               	btfss	(___flmul@grs+3)^(0+128),7
  3660  0474  2C76               	goto	u2991
  3661  0475  2C77               	goto	u2990
  3662  0476                     u2991:	
  3663  0476  2C78               	goto	l2465
  3664  0477                     u2990:	
  3665  0477                     l2463:	
  3666  0477  1427               	bsf	___flmul@prod^(0+128),0
  3667  0478                     l2465:	
  3668  0478  3001               	movlw	1
  3669  0479  1283               	bcf	3,5	;RP0=0, select bank0
  3670  047A  1303               	bcf	3,6	;RP1=0, select bank0
  3671  047B  00D1               	movwf	??___flmul
  3672  047C                     u3005:	
  3673  047C  1003               	clrc
  3674  047D  1683               	bsf	3,5	;RP0=1, select bank1
  3675  047E  1303               	bcf	3,6	;RP1=0, select bank1
  3676  047F  0DA2               	rlf	___flmul@grs^(0+128),f
  3677  0480  0DA3               	rlf	(___flmul@grs+1)^(0+128),f
  3678  0481  0DA4               	rlf	(___flmul@grs+2)^(0+128),f
  3679  0482  0DA5               	rlf	(___flmul@grs+3)^(0+128),f
  3680  0483  1283               	bcf	3,5	;RP0=0, select bank0
  3681  0484  1303               	bcf	3,6	;RP1=0, select bank0
  3682  0485  0BD1               	decfsz	??___flmul,f
  3683  0486  2C7C               	goto	u3005
  3684  0487                     l2467:	
  3685  0487  30FF               	movlw	255
  3686  0488  1683               	bsf	3,5	;RP0=1, select bank1
  3687  0489  1303               	bcf	3,6	;RP1=0, select bank1
  3688  048A  07AB               	addwf	___flmul@temp^(0+128),f
  3689  048B  1803               	skipnc
  3690  048C  0AAC               	incf	(___flmul@temp+1)^(0+128),f
  3691  048D  30FF               	movlw	255
  3692  048E  07AC               	addwf	(___flmul@temp+1)^(0+128),f
  3693  048F                     l2469:	
  3694  048F  1FA9               	btfss	(___flmul@prod+2)^(0+128),7
  3695  0490  2C92               	goto	u3011
  3696  0491  2C93               	goto	u3010
  3697  0492                     u3011:	
  3698  0492  2C62               	goto	l2459
  3699  0493                     u3010:	
  3700  0493                     l2471:	
  3701  0493  01A1               	clrf	___flmul@aexp^(0+128)
  3702  0494                     l2473:	
  3703  0494  1FA5               	btfss	(___flmul@grs+3)^(0+128),7
  3704  0495  2C97               	goto	u3021
  3705  0496  2C98               	goto	u3020
  3706  0497                     u3021:	
  3707  0497  2CC6               	goto	l2481
  3708  0498                     u3020:	
  3709  0498                     l2475:	
  3710  0498  30FF               	movlw	255
  3711  0499  0522               	andwf	___flmul@grs^(0+128),w
  3712  049A  1283               	bcf	3,5	;RP0=0, select bank0
  3713  049B  1303               	bcf	3,6	;RP1=0, select bank0
  3714  049C  00D1               	movwf	??___flmul
  3715  049D  30FF               	movlw	255
  3716  049E  1683               	bsf	3,5	;RP0=1, select bank1
  3717  049F  1303               	bcf	3,6	;RP1=0, select bank1
  3718  04A0  0523               	andwf	(___flmul@grs+1)^(0+128),w
  3719  04A1  1283               	bcf	3,5	;RP0=0, select bank0
  3720  04A2  1303               	bcf	3,6	;RP1=0, select bank0
  3721  04A3  00D2               	movwf	??___flmul+1
  3722  04A4  30FF               	movlw	255
  3723  04A5  1683               	bsf	3,5	;RP0=1, select bank1
  3724  04A6  1303               	bcf	3,6	;RP1=0, select bank1
  3725  04A7  0524               	andwf	(___flmul@grs+2)^(0+128),w
  3726  04A8  1283               	bcf	3,5	;RP0=0, select bank0
  3727  04A9  1303               	bcf	3,6	;RP1=0, select bank0
  3728  04AA  00D3               	movwf	??___flmul+2
  3729  04AB  307F               	movlw	127
  3730  04AC  1683               	bsf	3,5	;RP0=1, select bank1
  3731  04AD  1303               	bcf	3,6	;RP1=0, select bank1
  3732  04AE  0525               	andwf	(___flmul@grs+3)^(0+128),w
  3733  04AF  1283               	bcf	3,5	;RP0=0, select bank0
  3734  04B0  1303               	bcf	3,6	;RP1=0, select bank0
  3735  04B1  00D4               	movwf	??___flmul+3
  3736  04B2  0854               	movf	??___flmul+3,w
  3737  04B3  0453               	iorwf	??___flmul+2,w
  3738  04B4  0452               	iorwf	??___flmul+1,w
  3739  04B5  0451               	iorwf	??___flmul,w
  3740  04B6  1903               	skipnz
  3741  04B7  2CB9               	goto	u3031
  3742  04B8  2CBA               	goto	u3030
  3743  04B9                     u3031:	
  3744  04B9  2CBF               	goto	l689
  3745  04BA                     u3030:	
  3746  04BA                     l2477:	
  3747  04BA  1683               	bsf	3,5	;RP0=1, select bank1
  3748  04BB  1303               	bcf	3,6	;RP1=0, select bank1
  3749  04BC  01A1               	clrf	___flmul@aexp^(0+128)
  3750  04BD  0AA1               	incf	___flmul@aexp^(0+128),f
  3751  04BE  2CC6               	goto	l2481
  3752  04BF                     l689:	
  3753  04BF  1683               	bsf	3,5	;RP0=1, select bank1
  3754  04C0  1303               	bcf	3,6	;RP1=0, select bank1
  3755  04C1  1C27               	btfss	___flmul@prod^(0+128),0
  3756  04C2  2CC4               	goto	u3041
  3757  04C3  2CC5               	goto	u3040
  3758  04C4                     u3041:	
  3759  04C4  2CC6               	goto	l2481
  3760  04C5                     u3040:	
  3761  04C5  2CBA               	goto	l2477
  3762  04C6                     l2481:	
  3763  04C6  0821               	movf	___flmul@aexp^(0+128),w
  3764  04C7  1903               	btfsc	3,2
  3765  04C8  2CCA               	goto	u3051
  3766  04C9  2CCB               	goto	u3050
  3767  04CA                     u3051:	
  3768  04CA  2D18               	goto	l2491
  3769  04CB                     u3050:	
  3770  04CB                     l2483:	
  3771  04CB  3001               	movlw	1
  3772  04CC  07A7               	addwf	___flmul@prod^(0+128),f
  3773  04CD  3000               	movlw	0
  3774  04CE  1803               	skipnc
  3775  04CF  3001               	movlw	1
  3776  04D0  07A8               	addwf	(___flmul@prod+1)^(0+128),f
  3777  04D1  3000               	movlw	0
  3778  04D2  1803               	skipnc
  3779  04D3  3001               	movlw	1
  3780  04D4  07A9               	addwf	(___flmul@prod+2)^(0+128),f
  3781  04D5  3000               	movlw	0
  3782  04D6  1803               	skipnc
  3783  04D7  3001               	movlw	1
  3784  04D8  07AA               	addwf	(___flmul@prod+3)^(0+128),f
  3785  04D9                     l2485:	
  3786  04D9  1C2A               	btfss	(___flmul@prod+3)^(0+128),0
  3787  04DA  2CDC               	goto	u3061
  3788  04DB  2CDD               	goto	u3060
  3789  04DC                     u3061:	
  3790  04DC  2D18               	goto	l2491
  3791  04DD                     u3060:	
  3792  04DD                     l2487:	
  3793  04DD  0827               	movf	___flmul@prod^(0+128),w
  3794  04DE  1283               	bcf	3,5	;RP0=0, select bank0
  3795  04DF  1303               	bcf	3,6	;RP1=0, select bank0
  3796  04E0  00D1               	movwf	??___flmul
  3797  04E1  1683               	bsf	3,5	;RP0=1, select bank1
  3798  04E2  1303               	bcf	3,6	;RP1=0, select bank1
  3799  04E3  0828               	movf	(___flmul@prod+1)^(0+128),w
  3800  04E4  1283               	bcf	3,5	;RP0=0, select bank0
  3801  04E5  1303               	bcf	3,6	;RP1=0, select bank0
  3802  04E6  00D2               	movwf	??___flmul+1
  3803  04E7  1683               	bsf	3,5	;RP0=1, select bank1
  3804  04E8  1303               	bcf	3,6	;RP1=0, select bank1
  3805  04E9  0829               	movf	(___flmul@prod+2)^(0+128),w
  3806  04EA  1283               	bcf	3,5	;RP0=0, select bank0
  3807  04EB  1303               	bcf	3,6	;RP1=0, select bank0
  3808  04EC  00D3               	movwf	??___flmul+2
  3809  04ED  1683               	bsf	3,5	;RP0=1, select bank1
  3810  04EE  1303               	bcf	3,6	;RP1=0, select bank1
  3811  04EF  082A               	movf	(___flmul@prod+3)^(0+128),w
  3812  04F0  1283               	bcf	3,5	;RP0=0, select bank0
  3813  04F1  1303               	bcf	3,6	;RP1=0, select bank0
  3814  04F2  00D4               	movwf	??___flmul+3
  3815  04F3  3001               	movlw	1
  3816  04F4  00D5               	movwf	??___flmul+4
  3817  04F5                     u3075:	
  3818  04F5  0D54               	rlf	??___flmul+3,w
  3819  04F6  0CD4               	rrf	??___flmul+3,f
  3820  04F7  0CD3               	rrf	??___flmul+2,f
  3821  04F8  0CD2               	rrf	??___flmul+1,f
  3822  04F9  0CD1               	rrf	??___flmul,f
  3823  04FA                     u3070:	
  3824  04FA  0BD5               	decfsz	??___flmul+4,f
  3825  04FB  2CF5               	goto	u3075
  3826  04FC  0854               	movf	??___flmul+3,w
  3827  04FD  1683               	bsf	3,5	;RP0=1, select bank1
  3828  04FE  1303               	bcf	3,6	;RP1=0, select bank1
  3829  04FF  00AA               	movwf	(___flmul@prod+3)^(0+128)
  3830  0500  1283               	bcf	3,5	;RP0=0, select bank0
  3831  0501  1303               	bcf	3,6	;RP1=0, select bank0
  3832  0502  0853               	movf	??___flmul+2,w
  3833  0503  1683               	bsf	3,5	;RP0=1, select bank1
  3834  0504  1303               	bcf	3,6	;RP1=0, select bank1
  3835  0505  00A9               	movwf	(___flmul@prod+2)^(0+128)
  3836  0506  1283               	bcf	3,5	;RP0=0, select bank0
  3837  0507  1303               	bcf	3,6	;RP1=0, select bank0
  3838  0508  0852               	movf	??___flmul+1,w
  3839  0509  1683               	bsf	3,5	;RP0=1, select bank1
  3840  050A  1303               	bcf	3,6	;RP1=0, select bank1
  3841  050B  00A8               	movwf	(___flmul@prod+1)^(0+128)
  3842  050C  1283               	bcf	3,5	;RP0=0, select bank0
  3843  050D  1303               	bcf	3,6	;RP1=0, select bank0
  3844  050E  0851               	movf	??___flmul,w
  3845  050F  1683               	bsf	3,5	;RP0=1, select bank1
  3846  0510  1303               	bcf	3,6	;RP1=0, select bank1
  3847  0511  00A7               	movwf	___flmul@prod^(0+128)
  3848  0512                     l2489:	
  3849  0512  3001               	movlw	1
  3850  0513  07AB               	addwf	___flmul@temp^(0+128),f
  3851  0514  1803               	skipnc
  3852  0515  0AAC               	incf	(___flmul@temp+1)^(0+128),f
  3853  0516  3000               	movlw	0
  3854  0517  07AC               	addwf	(___flmul@temp+1)^(0+128),f
  3855  0518                     l2491:	
  3856  0518  082C               	movf	(___flmul@temp+1)^(0+128),w
  3857  0519  3A80               	xorlw	128
  3858  051A  00FF               	movwf	btemp+1
  3859  051B  3080               	movlw	128
  3860  051C  027F               	subwf	btemp+1,w
  3861  051D  1D03               	skipz
  3862  051E  2D21               	goto	u3085
  3863  051F  30FF               	movlw	255
  3864  0520  022B               	subwf	___flmul@temp^(0+128),w
  3865  0521                     u3085:	
  3866  0521  1C03               	skipc
  3867  0522  2D24               	goto	u3081
  3868  0523  2D25               	goto	u3080
  3869  0524                     u3081:	
  3870  0524  2D30               	goto	l2495
  3871  0525                     u3080:	
  3872  0525                     l2493:	
  3873  0525  307F               	movlw	127
  3874  0526  1683               	bsf	3,5	;RP0=1, select bank1
  3875  0527  1303               	bcf	3,6	;RP1=0, select bank1
  3876  0528  00AA               	movwf	(___flmul@prod+3)^(0+128)
  3877  0529  3080               	movlw	128
  3878  052A  00A9               	movwf	(___flmul@prod+2)^(0+128)
  3879  052B  3000               	movlw	0
  3880  052C  00A8               	movwf	(___flmul@prod+1)^(0+128)
  3881  052D  3000               	movlw	0
  3882  052E  00A7               	movwf	___flmul@prod^(0+128)
  3883  052F  2D6D               	goto	l695
  3884  0530                     l2495:	
  3885  0530  1683               	bsf	3,5	;RP0=1, select bank1
  3886  0531  1303               	bcf	3,6	;RP1=0, select bank1
  3887  0532  082C               	movf	(___flmul@temp+1)^(0+128),w
  3888  0533  3A80               	xorlw	128
  3889  0534  00FF               	movwf	btemp+1
  3890  0535  3080               	movlw	128
  3891  0536  027F               	subwf	btemp+1,w
  3892  0537  1D03               	skipz
  3893  0538  2D3B               	goto	u3095
  3894  0539  3001               	movlw	1
  3895  053A  022B               	subwf	___flmul@temp^(0+128),w
  3896  053B                     u3095:	
  3897  053B  1803               	skipnc
  3898  053C  2D3E               	goto	u3091
  3899  053D  2D3F               	goto	u3090
  3900  053E                     u3091:	
  3901  053E  2D4B               	goto	l2501
  3902  053F                     u3090:	
  3903  053F                     l2497:	
  3904  053F  3000               	movlw	0
  3905  0540  1683               	bsf	3,5	;RP0=1, select bank1
  3906  0541  1303               	bcf	3,6	;RP1=0, select bank1
  3907  0542  00AA               	movwf	(___flmul@prod+3)^(0+128)
  3908  0543  3000               	movlw	0
  3909  0544  00A9               	movwf	(___flmul@prod+2)^(0+128)
  3910  0545  3000               	movlw	0
  3911  0546  00A8               	movwf	(___flmul@prod+1)^(0+128)
  3912  0547  3000               	movlw	0
  3913  0548  00A7               	movwf	___flmul@prod^(0+128)
  3914  0549                     l2499:	
  3915  0549  01A0               	clrf	___flmul@sign^(0+128)
  3916  054A  2D6D               	goto	l695
  3917  054B                     l2501:	
  3918  054B  1683               	bsf	3,5	;RP0=1, select bank1
  3919  054C  1303               	bcf	3,6	;RP1=0, select bank1
  3920  054D  082B               	movf	___flmul@temp^(0+128),w
  3921  054E  1283               	bcf	3,5	;RP0=0, select bank0
  3922  054F  1303               	bcf	3,6	;RP1=0, select bank0
  3923  0550  00D1               	movwf	??___flmul
  3924  0551  0851               	movf	??___flmul,w
  3925  0552  1683               	bsf	3,5	;RP0=1, select bank1
  3926  0553  1303               	bcf	3,6	;RP1=0, select bank1
  3927  0554  00A6               	movwf	___flmul@bexp^(0+128)
  3928  0555  30FF               	movlw	255
  3929  0556  05A7               	andwf	___flmul@prod^(0+128),f
  3930  0557  30FF               	movlw	255
  3931  0558  05A8               	andwf	(___flmul@prod+1)^(0+128),f
  3932  0559  307F               	movlw	127
  3933  055A  05A9               	andwf	(___flmul@prod+2)^(0+128),f
  3934  055B  3000               	movlw	0
  3935  055C  05AA               	andwf	(___flmul@prod+3)^(0+128),f
  3936  055D                     l2503:	
  3937  055D  1C26               	btfss	___flmul@bexp^(0+128),0
  3938  055E  2D60               	goto	u3101
  3939  055F  2D61               	goto	u3100
  3940  0560                     u3101:	
  3941  0560  2D62               	goto	l2507
  3942  0561                     u3100:	
  3943  0561                     l2505:	
  3944  0561  17A9               	bsf	(___flmul@prod^(0+128)+2),7
  3945  0562                     l2507:	
  3946  0562  0826               	movf	___flmul@bexp^(0+128),w
  3947  0563  1283               	bcf	3,5	;RP0=0, select bank0
  3948  0564  1303               	bcf	3,6	;RP1=0, select bank0
  3949  0565  00D1               	movwf	??___flmul
  3950  0566  1003               	clrc
  3951  0567  0C51               	rrf	??___flmul,w
  3952  0568  00D2               	movwf	??___flmul+1
  3953  0569  0852               	movf	??___flmul+1,w
  3954  056A  1683               	bsf	3,5	;RP0=1, select bank1
  3955  056B  1303               	bcf	3,6	;RP1=0, select bank1
  3956  056C  00AA               	movwf	(___flmul@prod^(0+128)+3)
  3957  056D                     l695:	
  3958  056D  0820               	movf	___flmul@sign^(0+128),w
  3959  056E  1283               	bcf	3,5	;RP0=0, select bank0
  3960  056F  1303               	bcf	3,6	;RP1=0, select bank0
  3961  0570  00D1               	movwf	??___flmul
  3962  0571  0851               	movf	??___flmul,w
  3963  0572  1683               	bsf	3,5	;RP0=1, select bank1
  3964  0573  1303               	bcf	3,6	;RP1=0, select bank1
  3965  0574  04AA               	iorwf	(___flmul@prod^(0+128)+3),f
  3966  0575                     l2509:	
  3967  0575  082A               	movf	(___flmul@prod+3)^(0+128),w
  3968  0576  1283               	bcf	3,5	;RP0=0, select bank0
  3969  0577  1303               	bcf	3,6	;RP1=0, select bank0
  3970  0578  00CC               	movwf	?___flmul+3
  3971  0579  1683               	bsf	3,5	;RP0=1, select bank1
  3972  057A  1303               	bcf	3,6	;RP1=0, select bank1
  3973  057B  0829               	movf	(___flmul@prod+2)^(0+128),w
  3974  057C  1283               	bcf	3,5	;RP0=0, select bank0
  3975  057D  1303               	bcf	3,6	;RP1=0, select bank0
  3976  057E  00CB               	movwf	?___flmul+2
  3977  057F  1683               	bsf	3,5	;RP0=1, select bank1
  3978  0580  1303               	bcf	3,6	;RP1=0, select bank1
  3979  0581  0828               	movf	(___flmul@prod+1)^(0+128),w
  3980  0582  1283               	bcf	3,5	;RP0=0, select bank0
  3981  0583  1303               	bcf	3,6	;RP1=0, select bank0
  3982  0584  00CA               	movwf	?___flmul+1
  3983  0585  1683               	bsf	3,5	;RP0=1, select bank1
  3984  0586  1303               	bcf	3,6	;RP1=0, select bank1
  3985  0587  0827               	movf	___flmul@prod^(0+128),w
  3986  0588  1283               	bcf	3,5	;RP0=0, select bank0
  3987  0589  1303               	bcf	3,6	;RP1=0, select bank0
  3988  058A  00C9               	movwf	?___flmul
  3989  058B                     l683:	
  3990  058B  0008               	return
  3991  058C                     __end_of___flmul:	
  3992                           
  3993                           	psect	text11
  3994  0B4A                     __ptext11:	
  3995 ;; *************** function __Umul8_16 *****************
  3996 ;; Defined at:
  3997 ;;		line 4 in file "C:\Program Files (x86)\Microchip\xc8\v2.10\pic\sources\c90\common\Umul8_16.c"
  3998 ;; Parameters:    Size  Location     Type
  3999 ;;  multiplier      1    wreg     unsigned char 
  4000 ;;  multiplicand    1   25[BANK0 ] unsigned char 
  4001 ;; Auto vars:     Size  Location     Type
  4002 ;;  multiplier      1   33[BANK0 ] unsigned char 
  4003 ;;  word_mpld       2   31[BANK0 ] unsigned int 
  4004 ;;  product         2   29[BANK0 ] unsigned int 
  4005 ;; Return value:  Size  Location     Type
  4006 ;;                  2   25[BANK0 ] unsigned int 
  4007 ;; Registers used:
  4008 ;;		wreg, status,2, status,0
  4009 ;; Tracked objects:
  4010 ;;		On entry : 0/0
  4011 ;;		On exit  : 0/0
  4012 ;;		Unchanged: 0/0
  4013 ;; Data sizes:     COMMON   BANK0   BANK1
  4014 ;;      Params:         0       2       0
  4015 ;;      Locals:         0       5       0
  4016 ;;      Temps:          0       2       0
  4017 ;;      Totals:         0       9       0
  4018 ;;Total ram usage:        9 bytes
  4019 ;; Hardware stack levels used:    1
  4020 ;; Hardware stack levels required when called:    6
  4021 ;; This function calls:
  4022 ;;		Nothing
  4023 ;; This function is called by:
  4024 ;;		___flmul
  4025 ;; This function uses a non-reentrant model
  4026 ;;
  4027                           
  4028                           
  4029                           ;psect for function __Umul8_16
  4030  0B4A                     __Umul8_16:	
  4031                           
  4032                           ;incstack = 0
  4033 ;; hardware stack exceeded
  4034                           ; Regs used in __Umul8_16: [wreg+status,2+status,0]
  4035                           ;__Umul8_16@multiplier stored from wreg
  4036  0B4A  1283               	bcf	3,5	;RP0=0, select bank0
  4037  0B4B  1303               	bcf	3,6	;RP1=0, select bank0
  4038  0B4C  00C1               	movwf	__Umul8_16@multiplier
  4039  0B4D                     l2359:	
  4040  0B4D  01BD               	clrf	__Umul8_16@product
  4041  0B4E  01BE               	clrf	__Umul8_16@product+1
  4042  0B4F                     l2361:	
  4043  0B4F  0839               	movf	__Umul8_16@multiplicand,w
  4044  0B50  00BB               	movwf	??__Umul8_16
  4045  0B51  01BC               	clrf	??__Umul8_16+1
  4046  0B52  083B               	movf	??__Umul8_16,w
  4047  0B53  00BF               	movwf	__Umul8_16@word_mpld
  4048  0B54  083C               	movf	??__Umul8_16+1,w
  4049  0B55  00C0               	movwf	__Umul8_16@word_mpld+1
  4050  0B56                     l2363:	
  4051  0B56  1C41               	btfss	__Umul8_16@multiplier,0
  4052  0B57  2B59               	goto	u2711
  4053  0B58  2B5A               	goto	u2710
  4054  0B59                     u2711:	
  4055  0B59  2B60               	goto	l775
  4056  0B5A                     u2710:	
  4057  0B5A                     l2365:	
  4058  0B5A  083F               	movf	__Umul8_16@word_mpld,w
  4059  0B5B  07BD               	addwf	__Umul8_16@product,f
  4060  0B5C  1803               	skipnc
  4061  0B5D  0ABE               	incf	__Umul8_16@product+1,f
  4062  0B5E  0840               	movf	__Umul8_16@word_mpld+1,w
  4063  0B5F  07BE               	addwf	__Umul8_16@product+1,f
  4064  0B60                     l775:	
  4065  0B60  3001               	movlw	1
  4066  0B61                     u2725:	
  4067  0B61  1003               	clrc
  4068  0B62  0DBF               	rlf	__Umul8_16@word_mpld,f
  4069  0B63  0DC0               	rlf	__Umul8_16@word_mpld+1,f
  4070  0B64  3EFF               	addlw	-1
  4071  0B65  1D03               	skipz
  4072  0B66  2B61               	goto	u2725
  4073  0B67  1003               	clrc
  4074  0B68  0CC1               	rrf	__Umul8_16@multiplier,f
  4075  0B69                     l2367:	
  4076  0B69  0841               	movf	__Umul8_16@multiplier,w
  4077  0B6A  1D03               	btfss	3,2
  4078  0B6B  2B6D               	goto	u2731
  4079  0B6C  2B6E               	goto	u2730
  4080  0B6D                     u2731:	
  4081  0B6D  2B56               	goto	l2363
  4082  0B6E                     u2730:	
  4083  0B6E                     l2369:	
  4084  0B6E  083E               	movf	__Umul8_16@product+1,w
  4085  0B6F  00BA               	movwf	?__Umul8_16+1
  4086  0B70  083D               	movf	__Umul8_16@product,w
  4087  0B71  00B9               	movwf	?__Umul8_16
  4088  0B72                     l777:	
  4089  0B72  0008               	return
  4090  0B73                     __end_of__Umul8_16:	
  4091                           
  4092                           	psect	text12
  4093  0C01                     __ptext12:	
  4094 ;; *************** function _configTempMode *****************
  4095 ;; Defined at:
  4096 ;;		line 318 in file "termometroDiferencial.c"
  4097 ;; Parameters:    Size  Location     Type
  4098 ;;		None
  4099 ;; Auto vars:     Size  Location     Type
  4100 ;;		None
  4101 ;; Return value:  Size  Location     Type
  4102 ;;                  1    wreg      void 
  4103 ;; Registers used:
  4104 ;;		wreg, fsr0l, fsr0h, status,2, status,0, btemp+1, pclath, cstack
  4105 ;; Tracked objects:
  4106 ;;		On entry : 0/0
  4107 ;;		On exit  : 0/0
  4108 ;;		Unchanged: 0/0
  4109 ;; Data sizes:     COMMON   BANK0   BANK1
  4110 ;;      Params:         0       0       0
  4111 ;;      Locals:         0       0       0
  4112 ;;      Temps:          0       0       0
  4113 ;;      Totals:         0       0       0
  4114 ;;Total ram usage:        0 bytes
  4115 ;; Hardware stack levels used:    1
  4116 ;; Hardware stack levels required when called:   11
  4117 ;; This function calls:
  4118 ;;		_secuencia
  4119 ;;		_writeOnLCD
  4120 ;; This function is called by:
  4121 ;;		_main
  4122 ;; This function uses a non-reentrant model
  4123 ;;
  4124                           
  4125                           
  4126                           ;psect for function _configTempMode
  4127  0C01                     _configTempMode:	
  4128  0C01                     l2285:	
  4129                           ;incstack = 0
  4130 ;; hardware stack exceeded
  4131                           ; Regs used in _configTempMode: [wreg-fsr0h+status,2+status,0+btemp+1+pclath+cstack]
  4132                           
  4133                           
  4134                           ;termometroDiferencial.c: 320:     writeOnLCD("Ingrese temp MAXIMA");
  4135  0C01  300B               	movlw	(low ((STR_3-__stringbase)| (0+32768)))& (0+255)
  4136  0C02  1683               	bsf	3,5	;RP0=1, select bank1
  4137  0C03  1303               	bcf	3,6	;RP1=0, select bank1
  4138  0C04  00C4               	movwf	writeOnLCD@word^(0+128)
  4139  0C05  3080               	movlw	128
  4140  0C06  00C5               	movwf	(writeOnLCD@word+1)^(0+128)
  4141  0C07  158A  2233  158A   	fcall	_writeOnLCD
  4142                           
  4143                           ;termometroDiferencial.c: 321:     writeOnLCD("Ingrese temp MAXIMA");
  4144  0C0A  300B               	movlw	(low ((STR_3-__stringbase)| (0+32768)))& (0+255)
  4145  0C0B  1683               	bsf	3,5	;RP0=1, select bank1
  4146  0C0C  1303               	bcf	3,6	;RP1=0, select bank1
  4147  0C0D  00C4               	movwf	writeOnLCD@word^(0+128)
  4148  0C0E  3080               	movlw	128
  4149  0C0F  00C5               	movwf	(writeOnLCD@word+1)^(0+128)
  4150  0C10  158A  2233  158A   	fcall	_writeOnLCD
  4151                           
  4152                           ;termometroDiferencial.c: 323:     while (waiting == 1) {
  4153  0C13  2C17               	goto	l2289
  4154  0C14                     l2287:	
  4155                           
  4156                           ;termometroDiferencial.c: 324:         secuencia();
  4157  0C14  158A  21DE  158A   	fcall	_secuencia
  4158  0C17                     l2289:	
  4159                           
  4160                           ;termometroDiferencial.c: 323:     while (waiting == 1) {
  4161  0C17  1283               	bcf	3,5	;RP0=0, select bank0
  4162  0C18  1303               	bcf	3,6	;RP1=0, select bank0
  4163  0C19  035D               	decf	_waiting,w
  4164  0C1A  045E               	iorwf	_waiting+1,w
  4165  0C1B  1903               	btfsc	3,2
  4166  0C1C  2C1E               	goto	u2671
  4167  0C1D  2C1F               	goto	u2670
  4168  0C1E                     u2671:	
  4169  0C1E  2C14               	goto	l2287
  4170  0C1F                     u2670:	
  4171  0C1F                     l2291:	
  4172                           
  4173                           ;termometroDiferencial.c: 327:     if (maxTemp > 150) {
  4174  0C1F  1683               	bsf	3,5	;RP0=1, select bank1
  4175  0C20  1303               	bcf	3,6	;RP1=0, select bank1
  4176  0C21  084B               	movf	(_maxTemp+1)^(0+128),w
  4177  0C22  3A80               	xorlw	128
  4178  0C23  00FF               	movwf	btemp+1
  4179  0C24  3080               	movlw	128
  4180  0C25  027F               	subwf	btemp+1,w
  4181  0C26  1D03               	skipz
  4182  0C27  2C2A               	goto	u2685
  4183  0C28  3097               	movlw	151
  4184  0C29  024A               	subwf	_maxTemp^(0+128),w
  4185  0C2A                     u2685:	
  4186  0C2A  1C03               	skipc
  4187  0C2B  2C2D               	goto	u2681
  4188  0C2C  2C2E               	goto	u2680
  4189  0C2D                     u2681:	
  4190  0C2D  2C34               	goto	l172
  4191  0C2E                     u2680:	
  4192  0C2E                     l2293:	
  4193                           
  4194                           ;termometroDiferencial.c: 328:         maxTemp = 150;
  4195  0C2E  3096               	movlw	150
  4196  0C2F  1683               	bsf	3,5	;RP0=1, select bank1
  4197  0C30  1303               	bcf	3,6	;RP1=0, select bank1
  4198  0C31  00CA               	movwf	_maxTemp^(0+128)
  4199  0C32  3000               	movlw	0
  4200  0C33  00CB               	movwf	(_maxTemp^(0+128)+1)
  4201  0C34                     l172:	
  4202  0C34  0008               	return
  4203  0C35                     __end_of_configTempMode:	
  4204                           
  4205                           	psect	text13
  4206  0A33                     __ptext13:	
  4207 ;; *************** function _writeOnLCD *****************
  4208 ;; Defined at:
  4209 ;;		line 94 in file "termometroDiferencial.c"
  4210 ;; Parameters:    Size  Location     Type
  4211 ;;  word            2   36[BANK1 ] PTR unsigned char 
  4212 ;;		 -> RAM(512), STR_4(20), STR_3(20), 
  4213 ;; Auto vars:     Size  Location     Type
  4214 ;;		None
  4215 ;; Return value:  Size  Location     Type
  4216 ;;                  1    wreg      void 
  4217 ;; Registers used:
  4218 ;;		wreg, fsr0l, fsr0h, status,2, status,0, btemp+1, pclath, cstack
  4219 ;; Tracked objects:
  4220 ;;		On entry : 0/0
  4221 ;;		On exit  : 0/0
  4222 ;;		Unchanged: 0/0
  4223 ;; Data sizes:     COMMON   BANK0   BANK1
  4224 ;;      Params:         0       0       2
  4225 ;;      Locals:         0       0       0
  4226 ;;      Temps:          0       0       0
  4227 ;;      Totals:         0       0       2
  4228 ;;Total ram usage:        2 bytes
  4229 ;; Hardware stack levels used:    1
  4230 ;; Hardware stack levels required when called:   10
  4231 ;; This function calls:
  4232 ;;		_writeWord
  4233 ;; This function is called by:
  4234 ;;		_configTempMode
  4235 ;;		_main
  4236 ;; This function uses a non-reentrant model
  4237 ;;
  4238                           
  4239                           
  4240                           ;psect for function _writeOnLCD
  4241  0A33                     _writeOnLCD:	
  4242  0A33                     l1775:	
  4243                           ;incstack = 0
  4244 ;; hardware stack exceeded
  4245                           ; Regs used in _writeOnLCD: [wreg-fsr0h+status,2+status,0+btemp+1+pclath+cstack]
  4246                           
  4247                           
  4248                           ;termometroDiferencial.c: 95:     writeWord(word);
  4249  0A33  1683               	bsf	3,5	;RP0=1, select bank1
  4250  0A34  1303               	bcf	3,6	;RP1=0, select bank1
  4251  0A35  0844               	movf	writeOnLCD@word^(0+128),w
  4252  0A36  1283               	bcf	3,5	;RP0=0, select bank0
  4253  0A37  1303               	bcf	3,6	;RP1=0, select bank0
  4254  0A38  00C9               	movwf	writeWord@word
  4255  0A39  1683               	bsf	3,5	;RP0=1, select bank1
  4256  0A3A  1303               	bcf	3,6	;RP1=0, select bank1
  4257  0A3B  0845               	movf	(writeOnLCD@word+1)^(0+128),w
  4258  0A3C  1283               	bcf	3,5	;RP0=0, select bank0
  4259  0A3D  1303               	bcf	3,6	;RP1=0, select bank0
  4260  0A3E  00CA               	movwf	writeWord@word+1
  4261  0A3F  158A  23CE  158A   	fcall	_writeWord
  4262  0A42                     l87:	
  4263  0A42  0008               	return
  4264  0A43                     __end_of_writeOnLCD:	
  4265                           
  4266                           	psect	text14
  4267  0BCE                     __ptext14:	
  4268 ;; *************** function _writeWord *****************
  4269 ;; Defined at:
  4270 ;;		line 84 in file "termometroDiferencial.c"
  4271 ;; Parameters:    Size  Location     Type
  4272 ;;  word            2   41[BANK0 ] PTR unsigned char 
  4273 ;;		 -> RAM(512), STR_4(20), STR_3(20), 
  4274 ;; Auto vars:     Size  Location     Type
  4275 ;;  i               2   43[BANK0 ] int 
  4276 ;; Return value:  Size  Location     Type
  4277 ;;                  1    wreg      void 
  4278 ;; Registers used:
  4279 ;;		wreg, fsr0l, fsr0h, status,2, status,0, btemp+1, pclath, cstack
  4280 ;; Tracked objects:
  4281 ;;		On entry : 0/0
  4282 ;;		On exit  : 0/0
  4283 ;;		Unchanged: 0/0
  4284 ;; Data sizes:     COMMON   BANK0   BANK1
  4285 ;;      Params:         0       2       0
  4286 ;;      Locals:         0       2       0
  4287 ;;      Temps:          0       0       0
  4288 ;;      Totals:         0       4       0
  4289 ;;Total ram usage:        4 bytes
  4290 ;; Hardware stack levels used:    1
  4291 ;; Hardware stack levels required when called:    9
  4292 ;; This function calls:
  4293 ;;		_putCharacter
  4294 ;;		_strlen
  4295 ;; This function is called by:
  4296 ;;		_writeOnLCD
  4297 ;; This function uses a non-reentrant model
  4298 ;;
  4299                           
  4300                           
  4301                           ;psect for function _writeWord
  4302  0BCE                     _writeWord:	
  4303  0BCE                     l1663:	
  4304                           ;incstack = 0
  4305 ;; hardware stack exceeded
  4306                           ; Regs used in _writeWord: [wreg-fsr0h+status,2+status,0+btemp+1+pclath+cstack]
  4307                           
  4308                           
  4309                           ;termometroDiferencial.c: 85:     for (int i = 0; i < strlen(word); i++) {
  4310  0BCE  1283               	bcf	3,5	;RP0=0, select bank0
  4311  0BCF  1303               	bcf	3,6	;RP1=0, select bank0
  4312  0BD0  01CB               	clrf	writeWord@i
  4313  0BD1  01CC               	clrf	writeWord@i+1
  4314  0BD2  2BED               	goto	l1669
  4315  0BD3                     l1665:	
  4316                           
  4317                           ;termometroDiferencial.c: 86:         putCharacter(word[i], i);
  4318  0BD3  084C               	movf	writeWord@i+1,w
  4319  0BD4  00C5               	movwf	putCharacter@position+1
  4320  0BD5  084B               	movf	writeWord@i,w
  4321  0BD6  00C4               	movwf	putCharacter@position
  4322  0BD7  084B               	movf	writeWord@i,w
  4323  0BD8  0749               	addwf	writeWord@word,w
  4324  0BD9  0084               	movwf	4
  4325  0BDA  084C               	movf	writeWord@i+1,w
  4326  0BDB  1803               	skipnc
  4327  0BDC  0A4C               	incf	writeWord@i+1,w
  4328  0BDD  074A               	addwf	writeWord@word+1,w
  4329  0BDE  00FF               	movwf	btemp+1
  4330  0BDF  158A  2000  158A   	fcall	stringtab
  4331  0BE2  158A  22FE  158A   	fcall	_putCharacter
  4332  0BE5                     l1667:	
  4333                           
  4334                           ;termometroDiferencial.c: 87:     }
  4335  0BE5  3001               	movlw	1
  4336  0BE6  1283               	bcf	3,5	;RP0=0, select bank0
  4337  0BE7  1303               	bcf	3,6	;RP1=0, select bank0
  4338  0BE8  07CB               	addwf	writeWord@i,f
  4339  0BE9  1803               	skipnc
  4340  0BEA  0ACC               	incf	writeWord@i+1,f
  4341  0BEB  3000               	movlw	0
  4342  0BEC  07CC               	addwf	writeWord@i+1,f
  4343  0BED                     l1669:	
  4344  0BED  0849               	movf	writeWord@word,w
  4345  0BEE  00B9               	movwf	strlen@s
  4346  0BEF  084A               	movf	writeWord@word+1,w
  4347  0BF0  00BA               	movwf	strlen@s+1
  4348  0BF1  158A  2294  158A   	fcall	_strlen
  4349  0BF4  1283               	bcf	3,5	;RP0=0, select bank0
  4350  0BF5  1303               	bcf	3,6	;RP1=0, select bank0
  4351  0BF6  083A               	movf	?_strlen+1,w
  4352  0BF7  024C               	subwf	writeWord@i+1,w
  4353  0BF8  1D03               	skipz
  4354  0BF9  2BFC               	goto	u1455
  4355  0BFA  0839               	movf	?_strlen,w
  4356  0BFB  024B               	subwf	writeWord@i,w
  4357  0BFC                     u1455:	
  4358  0BFC  1C03               	skipc
  4359  0BFD  2BFF               	goto	u1451
  4360  0BFE  2C00               	goto	u1450
  4361  0BFF                     u1451:	
  4362  0BFF  2BD3               	goto	l1665
  4363  0C00                     u1450:	
  4364  0C00                     l84:	
  4365  0C00  0008               	return
  4366  0C01                     __end_of_writeWord:	
  4367                           
  4368                           	psect	text15
  4369  0A94                     __ptext15:	
  4370 ;; *************** function _strlen *****************
  4371 ;; Defined at:
  4372 ;;		line 4 in file "C:\Program Files (x86)\Microchip\xc8\v2.10\pic\sources\c90\common\strlen.c"
  4373 ;; Parameters:    Size  Location     Type
  4374 ;;  s               2   25[BANK0 ] PTR const unsigned char 
  4375 ;;		 -> RAM(512), STR_4(20), STR_3(20), 
  4376 ;; Auto vars:     Size  Location     Type
  4377 ;;  cp              2   27[BANK0 ] PTR const unsigned char 
  4378 ;;		 -> RAM(512), STR_4(20), STR_3(20), 
  4379 ;; Return value:  Size  Location     Type
  4380 ;;                  2   25[BANK0 ] unsigned int 
  4381 ;; Registers used:
  4382 ;;		wreg, fsr0l, fsr0h, status,2, status,0, btemp+1, pclath
  4383 ;; Tracked objects:
  4384 ;;		On entry : 0/0
  4385 ;;		On exit  : 0/0
  4386 ;;		Unchanged: 0/0
  4387 ;; Data sizes:     COMMON   BANK0   BANK1
  4388 ;;      Params:         0       2       0
  4389 ;;      Locals:         0       2       0
  4390 ;;      Temps:          0       0       0
  4391 ;;      Totals:         0       4       0
  4392 ;;Total ram usage:        4 bytes
  4393 ;; Hardware stack levels used:    1
  4394 ;; Hardware stack levels required when called:    6
  4395 ;; This function calls:
  4396 ;;		Nothing
  4397 ;; This function is called by:
  4398 ;;		_writeWord
  4399 ;; This function uses a non-reentrant model
  4400 ;;
  4401                           
  4402                           
  4403                           ;psect for function _strlen
  4404  0A94                     _strlen:	
  4405  0A94                     l1639:	
  4406                           ;incstack = 0
  4407 ;; hardware stack exceeded
  4408                           ; Regs used in _strlen: [wreg-fsr0h+status,2+status,0+btemp+1+pclath]
  4409                           
  4410  0A94  1283               	bcf	3,5	;RP0=0, select bank0
  4411  0A95  1303               	bcf	3,6	;RP1=0, select bank0
  4412  0A96  0839               	movf	strlen@s,w
  4413  0A97  00BB               	movwf	strlen@cp
  4414  0A98  083A               	movf	strlen@s+1,w
  4415  0A99  00BC               	movwf	strlen@cp+1
  4416  0A9A  2AA1               	goto	l1643
  4417  0A9B                     l1641:	
  4418  0A9B  3001               	movlw	1
  4419  0A9C  07BB               	addwf	strlen@cp,f
  4420  0A9D  1803               	skipnc
  4421  0A9E  0ABC               	incf	strlen@cp+1,f
  4422  0A9F  3000               	movlw	0
  4423  0AA0  07BC               	addwf	strlen@cp+1,f
  4424  0AA1                     l1643:	
  4425  0AA1  083C               	movf	strlen@cp+1,w
  4426  0AA2  00FF               	movwf	btemp+1
  4427  0AA3  083B               	movf	strlen@cp,w
  4428  0AA4  0084               	movwf	4
  4429  0AA5  158A  2000  158A   	fcall	stringtab
  4430  0AA8  3A00               	xorlw	0
  4431  0AA9  1D03               	skipz
  4432  0AAA  2AAC               	goto	u1401
  4433  0AAB  2AAD               	goto	u1400
  4434  0AAC                     u1401:	
  4435  0AAC  2A9B               	goto	l1641
  4436  0AAD                     u1400:	
  4437  0AAD                     l1645:	
  4438  0AAD  0839               	movf	strlen@s,w
  4439  0AAE  023B               	subwf	strlen@cp,w
  4440  0AAF  00B9               	movwf	?_strlen
  4441  0AB0  083A               	movf	strlen@s+1,w
  4442  0AB1  1C03               	skipc
  4443  0AB2  0A3A               	incf	strlen@s+1,w
  4444  0AB3  023C               	subwf	strlen@cp+1,w
  4445  0AB4  00BA               	movwf	?_strlen+1
  4446  0AB5                     l771:	
  4447  0AB5  0008               	return
  4448  0AB6                     __end_of_strlen:	
  4449                           
  4450                           	psect	text16
  4451  0AFE                     __ptext16:	
  4452 ;; *************** function _putCharacter *****************
  4453 ;; Defined at:
  4454 ;;		line 71 in file "termometroDiferencial.c"
  4455 ;; Parameters:    Size  Location     Type
  4456 ;;  character       1    wreg     unsigned char 
  4457 ;;  position        2   36[BANK0 ] int 
  4458 ;; Auto vars:     Size  Location     Type
  4459 ;;  character       1   40[BANK0 ] unsigned char 
  4460 ;; Return value:  Size  Location     Type
  4461 ;;                  1    wreg      void 
  4462 ;; Registers used:
  4463 ;;		wreg, status,2, status,0, pclath, cstack
  4464 ;; Tracked objects:
  4465 ;;		On entry : 0/0
  4466 ;;		On exit  : 0/0
  4467 ;;		Unchanged: 0/0
  4468 ;; Data sizes:     COMMON   BANK0   BANK1
  4469 ;;      Params:         0       2       0
  4470 ;;      Locals:         0       1       0
  4471 ;;      Temps:          0       2       0
  4472 ;;      Totals:         0       5       0
  4473 ;;Total ram usage:        5 bytes
  4474 ;; Hardware stack levels used:    1
  4475 ;; Hardware stack levels required when called:    8
  4476 ;; This function calls:
  4477 ;;		_sendNibble
  4478 ;;		_turnOnLCD
  4479 ;; This function is called by:
  4480 ;;		_writeWord
  4481 ;; This function uses a non-reentrant model
  4482 ;;
  4483                           
  4484                           
  4485                           ;psect for function _putCharacter
  4486  0AFE                     _putCharacter:	
  4487                           
  4488                           ;incstack = 0
  4489 ;; hardware stack exceeded
  4490                           ; Regs used in _putCharacter: [wreg+status,2+status,0+pclath+cstack]
  4491                           ;putCharacter@character stored from wreg
  4492  0AFE  1283               	bcf	3,5	;RP0=0, select bank0
  4493  0AFF  1303               	bcf	3,6	;RP1=0, select bank0
  4494  0B00  00C8               	movwf	putCharacter@character
  4495  0B01                     l1637:	
  4496                           
  4497                           ;termometroDiferencial.c: 73:     sendNibble(128 + position, 0);
  4498  0B01  0844               	movf	putCharacter@position,w
  4499  0B02  3E80               	addlw	128
  4500  0B03  00BA               	movwf	sendNibble@n
  4501  0B04  0845               	movf	putCharacter@position+1,w
  4502  0B05  1803               	skipnc
  4503  0B06  3E01               	addlw	1
  4504  0B07  3E00               	addlw	0
  4505  0B08  00BB               	movwf	sendNibble@n+1
  4506  0B09  3000               	movlw	0
  4507  0B0A  00BC               	movwf	sendNibble@rs
  4508  0B0B  00BD               	movwf	sendNibble@rs+1
  4509  0B0C  158A  24B0  158A   	fcall	_sendNibble
  4510                           
  4511                           ;termometroDiferencial.c: 75:     sendNibble(character, 1);
  4512  0B0F  1283               	bcf	3,5	;RP0=0, select bank0
  4513  0B10  1303               	bcf	3,6	;RP1=0, select bank0
  4514  0B11  0848               	movf	putCharacter@character,w
  4515  0B12  00C6               	movwf	??_putCharacter
  4516  0B13  01C7               	clrf	??_putCharacter+1
  4517  0B14  0846               	movf	??_putCharacter,w
  4518  0B15  00BA               	movwf	sendNibble@n
  4519  0B16  0847               	movf	??_putCharacter+1,w
  4520  0B17  00BB               	movwf	sendNibble@n+1
  4521  0B18  3001               	movlw	1
  4522  0B19  00BC               	movwf	sendNibble@rs
  4523  0B1A  3000               	movlw	0
  4524  0B1B  00BD               	movwf	sendNibble@rs+1
  4525  0B1C  158A  24B0  158A   	fcall	_sendNibble
  4526                           
  4527                           ;termometroDiferencial.c: 77:     turnOnLCD();
  4528  0B1F  118A  27EB  158A   	fcall	_turnOnLCD
  4529  0B22                     l78:	
  4530  0B22  0008               	return
  4531  0B23                     __end_of_putCharacter:	
  4532                           
  4533                           	psect	text17
  4534  07EB                     __ptext17:	
  4535 ;; *************** function _turnOnLCD *****************
  4536 ;; Defined at:
  4537 ;;		line 52 in file "termometroDiferencial.c"
  4538 ;; Parameters:    Size  Location     Type
  4539 ;;		None
  4540 ;; Auto vars:     Size  Location     Type
  4541 ;;  turnOn          2    0        int 
  4542 ;;  d2              2    0        int 
  4543 ;;  d1              2   26[BANK0 ] int 
  4544 ;; Return value:  Size  Location     Type
  4545 ;;                  1    wreg      void 
  4546 ;; Registers used:
  4547 ;;		wreg, status,2, status,0, pclath, cstack
  4548 ;; Tracked objects:
  4549 ;;		On entry : 0/0
  4550 ;;		On exit  : 0/0
  4551 ;;		Unchanged: 0/0
  4552 ;; Data sizes:     COMMON   BANK0   BANK1
  4553 ;;      Params:         0       0       0
  4554 ;;      Locals:         0       6       0
  4555 ;;      Temps:          0       0       0
  4556 ;;      Totals:         0       6       0
  4557 ;;Total ram usage:        6 bytes
  4558 ;; Hardware stack levels used:    1
  4559 ;; Hardware stack levels required when called:    7
  4560 ;; This function calls:
  4561 ;;		_flank
  4562 ;; This function is called by:
  4563 ;;		_putCharacter
  4564 ;; This function uses a non-reentrant model
  4565 ;;
  4566                           
  4567                           
  4568                           ;psect for function _turnOnLCD
  4569  07EB                     _turnOnLCD:	
  4570  07EB                     l1617:	
  4571                           ;incstack = 0
  4572 ;; hardware stack exceeded
  4573                           ; Regs used in _turnOnLCD: [wreg+status,2+status,0+pclath+cstack]
  4574                           
  4575                           
  4576                           ;termometroDiferencial.c: 54:     int d1 = turnOn >> 2;
  4577  07EB  3003               	movlw	3
  4578  07EC  1283               	bcf	3,5	;RP0=0, select bank0
  4579  07ED  1303               	bcf	3,6	;RP1=0, select bank0
  4580  07EE  00BA               	movwf	turnOnLCD@d1
  4581  07EF  3000               	movlw	0
  4582  07F0  00BB               	movwf	turnOnLCD@d1+1
  4583                           
  4584                           ;termometroDiferencial.c: 56:     PORTC = d1;
  4585  07F1  3003               	movlw	3
  4586  07F2  0087               	movwf	7	;volatile
  4587  07F3                     l1619:	
  4588                           
  4589                           ;termometroDiferencial.c: 57:     RC0 = 0;
  4590  07F3  1007               	bcf	7,0	;volatile
  4591  07F4                     l1621:	
  4592                           
  4593                           ;termometroDiferencial.c: 58:     flank();
  4594  07F4  158A  2223  118A   	fcall	_flank
  4595  07F7                     l1623:	
  4596  07F7                     l1625:	
  4597                           
  4598                           ;termometroDiferencial.c: 61:     PORTC = d2;
  4599  07F7  3038               	movlw	56
  4600  07F8  1283               	bcf	3,5	;RP0=0, select bank0
  4601  07F9  1303               	bcf	3,6	;RP1=0, select bank0
  4602  07FA  0087               	movwf	7	;volatile
  4603  07FB                     l1627:	
  4604                           
  4605                           ;termometroDiferencial.c: 62:     RC0 = 0;
  4606  07FB  1007               	bcf	7,0	;volatile
  4607  07FC                     l1629:	
  4608                           
  4609                           ;termometroDiferencial.c: 63:     flank();
  4610  07FC  158A  2223  118A   	fcall	_flank
  4611  07FF                     l75:	
  4612  07FF  0008               	return
  4613  0800                     __end_of_turnOnLCD:	
  4614                           
  4615                           	psect	text18
  4616  09DE                     __ptext18:	
  4617 ;; *************** function _secuencia *****************
  4618 ;; Defined at:
  4619 ;;		line 153 in file "termometroDiferencial.c"
  4620 ;; Parameters:    Size  Location     Type
  4621 ;;		None
  4622 ;; Auto vars:     Size  Location     Type
  4623 ;;		None
  4624 ;; Return value:  Size  Location     Type
  4625 ;;                  1    wreg      void 
  4626 ;; Registers used:
  4627 ;;		wreg
  4628 ;; Tracked objects:
  4629 ;;		On entry : 0/0
  4630 ;;		On exit  : 0/0
  4631 ;;		Unchanged: 0/0
  4632 ;; Data sizes:     COMMON   BANK0   BANK1
  4633 ;;      Params:         0       0       0
  4634 ;;      Locals:         0       0       0
  4635 ;;      Temps:          0       0       0
  4636 ;;      Totals:         0       0       0
  4637 ;;Total ram usage:        0 bytes
  4638 ;; Hardware stack levels used:    1
  4639 ;; Hardware stack levels required when called:    6
  4640 ;; This function calls:
  4641 ;;		Nothing
  4642 ;; This function is called by:
  4643 ;;		_configTempMode
  4644 ;;		_main
  4645 ;; This function uses a non-reentrant model
  4646 ;;
  4647                           
  4648                           
  4649                           ;psect for function _secuencia
  4650  09DE                     _secuencia:	
  4651  09DE                     l1855:	
  4652                           ;incstack = 0
  4653                           ; Regs used in _secuencia: [wreg]
  4654                           
  4655                           
  4656                           ;termometroDiferencial.c: 154:     PORTB = 254;
  4657  09DE  30FE               	movlw	254
  4658  09DF  1283               	bcf	3,5	;RP0=0, select bank0
  4659  09E0  1303               	bcf	3,6	;RP1=0, select bank0
  4660  09E1  0086               	movwf	6	;volatile
  4661                           
  4662                           ;termometroDiferencial.c: 155:     PORTB = 253;
  4663  09E2  30FD               	movlw	253
  4664  09E3  0086               	movwf	6	;volatile
  4665                           
  4666                           ;termometroDiferencial.c: 156:     PORTB = 251;
  4667  09E4  30FB               	movlw	251
  4668  09E5  0086               	movwf	6	;volatile
  4669                           
  4670                           ;termometroDiferencial.c: 157:     PORTB = 247;
  4671  09E6  30F7               	movlw	247
  4672  09E7  0086               	movwf	6	;volatile
  4673  09E8                     l108:	
  4674  09E8  0008               	return
  4675  09E9                     __end_of_secuencia:	
  4676                           
  4677                           	psect	text19
  4678  09D4                     __ptext19:	
  4679 ;; *************** function _confTeclado *****************
  4680 ;; Defined at:
  4681 ;;		line 117 in file "termometroDiferencial.c"
  4682 ;; Parameters:    Size  Location     Type
  4683 ;;		None
  4684 ;; Auto vars:     Size  Location     Type
  4685 ;;		None
  4686 ;; Return value:  Size  Location     Type
  4687 ;;                  1    wreg      void 
  4688 ;; Registers used:
  4689 ;;		wreg
  4690 ;; Tracked objects:
  4691 ;;		On entry : 0/0
  4692 ;;		On exit  : 0/0
  4693 ;;		Unchanged: 0/0
  4694 ;; Data sizes:     COMMON   BANK0   BANK1
  4695 ;;      Params:         0       0       0
  4696 ;;      Locals:         0       0       0
  4697 ;;      Temps:          0       0       0
  4698 ;;      Totals:         0       0       0
  4699 ;;Total ram usage:        0 bytes
  4700 ;; Hardware stack levels used:    1
  4701 ;; Hardware stack levels required when called:    6
  4702 ;; This function calls:
  4703 ;;		Nothing
  4704 ;; This function is called by:
  4705 ;;		_main
  4706 ;; This function uses a non-reentrant model
  4707 ;;
  4708                           
  4709                           
  4710                           ;psect for function _confTeclado
  4711  09D4                     _confTeclado:	
  4712  09D4                     l2129:	
  4713                           ;incstack = 0
  4714                           ; Regs used in _confTeclado: [wreg]
  4715                           
  4716                           
  4717                           ;termometroDiferencial.c: 118:     OPTION_REG = 7;
  4718  09D4  3007               	movlw	7
  4719  09D5  1683               	bsf	3,5	;RP0=1, select bank1
  4720  09D6  1303               	bcf	3,6	;RP1=0, select bank1
  4721  09D7  0081               	movwf	1	;volatile
  4722                           
  4723                           ;termometroDiferencial.c: 119:     TRISB = 240;
  4724  09D8  30F0               	movlw	240
  4725  09D9  0086               	movwf	6	;volatile
  4726  09DA                     l2131:	
  4727                           
  4728                           ;termometroDiferencial.c: 120:     RBIE = 1;
  4729  09DA  158B               	bsf	11,3	;volatile
  4730  09DB                     l2133:	
  4731                           
  4732                           ;termometroDiferencial.c: 121:     GIE = 1;
  4733  09DB  178B               	bsf	11,7	;volatile
  4734  09DC                     l2135:	
  4735                           
  4736                           ;termometroDiferencial.c: 122:     RBIF = 1;
  4737  09DC  140B               	bsf	11,0	;volatile
  4738  09DD                     l96:	
  4739  09DD  0008               	return
  4740  09DE                     __end_of_confTeclado:	
  4741                           
  4742                           	psect	text20
  4743  0A7C                     __ptext20:	
  4744 ;; *************** function _conf *****************
  4745 ;; Defined at:
  4746 ;;		line 108 in file "termometroDiferencial.c"
  4747 ;; Parameters:    Size  Location     Type
  4748 ;;		None
  4749 ;; Auto vars:     Size  Location     Type
  4750 ;;		None
  4751 ;; Return value:  Size  Location     Type
  4752 ;;                  1    wreg      void 
  4753 ;; Registers used:
  4754 ;;		wreg, status,2, status,0, pclath, cstack
  4755 ;; Tracked objects:
  4756 ;;		On entry : 0/0
  4757 ;;		On exit  : 0/0
  4758 ;;		Unchanged: 0/0
  4759 ;; Data sizes:     COMMON   BANK0   BANK1
  4760 ;;      Params:         0       0       0
  4761 ;;      Locals:         0       0       0
  4762 ;;      Temps:          0       0       0
  4763 ;;      Totals:         0       0       0
  4764 ;;Total ram usage:        0 bytes
  4765 ;; Hardware stack levels used:    1
  4766 ;; Hardware stack levels required when called:    8
  4767 ;; This function calls:
  4768 ;;		_sendNibble
  4769 ;; This function is called by:
  4770 ;;		_main
  4771 ;; This function uses a non-reentrant model
  4772 ;;
  4773                           
  4774                           
  4775                           ;psect for function _conf
  4776  0A7C                     _conf:	
  4777  0A7C                     l2123:	
  4778                           ;incstack = 0
  4779 ;; hardware stack exceeded
  4780                           ; Regs used in _conf: [wreg+status,2+status,0+pclath+cstack]
  4781                           
  4782                           
  4783                           ;termometroDiferencial.c: 109:     TRISC = 128;
  4784  0A7C  3080               	movlw	128
  4785  0A7D  1683               	bsf	3,5	;RP0=1, select bank1
  4786  0A7E  1303               	bcf	3,6	;RP1=0, select bank1
  4787  0A7F  0087               	movwf	7	;volatile
  4788                           
  4789                           ;termometroDiferencial.c: 110:     TRISA = 1;
  4790  0A80  3001               	movlw	1
  4791  0A81  0085               	movwf	5	;volatile
  4792                           
  4793                           ;termometroDiferencial.c: 111:     ADCON1 = 128;
  4794  0A82  3080               	movlw	128
  4795  0A83  009F               	movwf	31	;volatile
  4796                           
  4797                           ;termometroDiferencial.c: 112:     ADCON0 = 1;
  4798  0A84  3001               	movlw	1
  4799  0A85  1283               	bcf	3,5	;RP0=0, select bank0
  4800  0A86  1303               	bcf	3,6	;RP1=0, select bank0
  4801  0A87  009F               	movwf	31	;volatile
  4802  0A88                     l2125:	
  4803                           
  4804                           ;termometroDiferencial.c: 113:     ADCS0 = 1;
  4805  0A88  171F               	bsf	31,6	;volatile
  4806  0A89                     l2127:	
  4807                           
  4808                           ;termometroDiferencial.c: 114:     sendNibble(8, 0);
  4809  0A89  3008               	movlw	8
  4810  0A8A  00BA               	movwf	sendNibble@n
  4811  0A8B  3000               	movlw	0
  4812  0A8C  00BB               	movwf	sendNibble@n+1
  4813  0A8D  3000               	movlw	0
  4814  0A8E  00BC               	movwf	sendNibble@rs
  4815  0A8F  00BD               	movwf	sendNibble@rs+1
  4816  0A90  158A  24B0  158A   	fcall	_sendNibble
  4817  0A93                     l93:	
  4818  0A93  0008               	return
  4819  0A94                     __end_of_conf:	
  4820                           
  4821                           	psect	text21
  4822  0CB0                     __ptext21:	
  4823 ;; *************** function _sendNibble *****************
  4824 ;; Defined at:
  4825 ;;		line 36 in file "termometroDiferencial.c"
  4826 ;; Parameters:    Size  Location     Type
  4827 ;;  n               2   26[BANK0 ] int 
  4828 ;;  rs              2   28[BANK0 ] int 
  4829 ;; Auto vars:     Size  Location     Type
  4830 ;;  d2              2   34[BANK0 ] int 
  4831 ;;  d1              2   32[BANK0 ] int 
  4832 ;; Return value:  Size  Location     Type
  4833 ;;                  1    wreg      void 
  4834 ;; Registers used:
  4835 ;;		wreg, status,2, status,0, pclath, cstack
  4836 ;; Tracked objects:
  4837 ;;		On entry : 0/0
  4838 ;;		On exit  : 0/0
  4839 ;;		Unchanged: 0/0
  4840 ;; Data sizes:     COMMON   BANK0   BANK1
  4841 ;;      Params:         0       4       0
  4842 ;;      Locals:         0       4       0
  4843 ;;      Temps:          0       2       0
  4844 ;;      Totals:         0      10       0
  4845 ;;Total ram usage:       10 bytes
  4846 ;; Hardware stack levels used:    1
  4847 ;; Hardware stack levels required when called:    7
  4848 ;; This function calls:
  4849 ;;		_flank
  4850 ;; This function is called by:
  4851 ;;		_putCharacter
  4852 ;;		_conf
  4853 ;; This function uses a non-reentrant model
  4854 ;;
  4855                           
  4856                           
  4857                           ;psect for function _sendNibble
  4858  0CB0                     _sendNibble:	
  4859  0CB0                     l1603:	
  4860                           ;incstack = 0
  4861 ;; hardware stack exceeded
  4862                           ; Regs used in _sendNibble: [wreg+status,2+status,0+pclath+cstack]
  4863                           
  4864                           
  4865                           ;termometroDiferencial.c: 37:     int d1 = n >> 2;
  4866  0CB0  1283               	bcf	3,5	;RP0=0, select bank0
  4867  0CB1  1303               	bcf	3,6	;RP1=0, select bank0
  4868  0CB2  083B               	movf	sendNibble@n+1,w
  4869  0CB3  00BF               	movwf	??_sendNibble+1
  4870  0CB4  083A               	movf	sendNibble@n,w
  4871  0CB5  00BE               	movwf	??_sendNibble
  4872  0CB6  0D3F               	rlf	??_sendNibble+1,w
  4873  0CB7  0CBF               	rrf	??_sendNibble+1,f
  4874  0CB8  0CBE               	rrf	??_sendNibble,f
  4875  0CB9  0D3F               	rlf	??_sendNibble+1,w
  4876  0CBA  0CBF               	rrf	??_sendNibble+1,f
  4877  0CBB  0CBE               	rrf	??_sendNibble,f
  4878  0CBC  083E               	movf	??_sendNibble,w
  4879  0CBD  00C0               	movwf	sendNibble@d1
  4880  0CBE  083F               	movf	??_sendNibble+1,w
  4881  0CBF  00C1               	movwf	sendNibble@d1+1
  4882                           
  4883                           ;termometroDiferencial.c: 39:     PORTC = d1;
  4884  0CC0  0840               	movf	sendNibble@d1,w
  4885  0CC1  0087               	movwf	7	;volatile
  4886  0CC2                     l1605:	
  4887                           
  4888                           ;termometroDiferencial.c: 40:     RC0 = rs;
  4889  0CC2  183C               	btfsc	sendNibble@rs,0
  4890  0CC3  2CC5               	goto	u1361
  4891  0CC4  2CC9               	goto	u1360
  4892  0CC5                     u1361:	
  4893  0CC5  1283               	bcf	3,5	;RP0=0, select bank0
  4894  0CC6  1303               	bcf	3,6	;RP1=0, select bank0
  4895  0CC7  1407               	bsf	7,0	;volatile
  4896  0CC8  2CCC               	goto	u1374
  4897  0CC9                     u1360:	
  4898  0CC9  1283               	bcf	3,5	;RP0=0, select bank0
  4899  0CCA  1303               	bcf	3,6	;RP1=0, select bank0
  4900  0CCB  1007               	bcf	7,0	;volatile
  4901  0CCC                     u1374:	
  4902  0CCC                     l1607:	
  4903                           
  4904                           ;termometroDiferencial.c: 41:     flank();
  4905  0CCC  158A  2223  158A   	fcall	_flank
  4906  0CCF                     l1609:	
  4907                           
  4908                           ;termometroDiferencial.c: 42:     int d2 = n << 2;
  4909  0CCF  1283               	bcf	3,5	;RP0=0, select bank0
  4910  0CD0  1303               	bcf	3,6	;RP1=0, select bank0
  4911  0CD1  083B               	movf	sendNibble@n+1,w
  4912  0CD2  00BF               	movwf	??_sendNibble+1
  4913  0CD3  083A               	movf	sendNibble@n,w
  4914  0CD4  00BE               	movwf	??_sendNibble
  4915  0CD5  1003               	clrc
  4916  0CD6  0DBE               	rlf	??_sendNibble,f
  4917  0CD7  0DBF               	rlf	??_sendNibble+1,f
  4918  0CD8  1003               	clrc
  4919  0CD9  0DBE               	rlf	??_sendNibble,f
  4920  0CDA  0DBF               	rlf	??_sendNibble+1,f
  4921  0CDB  083E               	movf	??_sendNibble,w
  4922  0CDC  00C2               	movwf	sendNibble@d2
  4923  0CDD  083F               	movf	??_sendNibble+1,w
  4924  0CDE  00C3               	movwf	sendNibble@d2+1
  4925  0CDF                     l1611:	
  4926                           
  4927                           ;termometroDiferencial.c: 44:     PORTC = d2;
  4928  0CDF  0842               	movf	sendNibble@d2,w
  4929  0CE0  0087               	movwf	7	;volatile
  4930  0CE1                     l1613:	
  4931                           
  4932                           ;termometroDiferencial.c: 45:     RC0 = rs;
  4933  0CE1  183C               	btfsc	sendNibble@rs,0
  4934  0CE2  2CE4               	goto	u1381
  4935  0CE3  2CE8               	goto	u1380
  4936  0CE4                     u1381:	
  4937  0CE4  1283               	bcf	3,5	;RP0=0, select bank0
  4938  0CE5  1303               	bcf	3,6	;RP1=0, select bank0
  4939  0CE6  1407               	bsf	7,0	;volatile
  4940  0CE7  2CEB               	goto	u1394
  4941  0CE8                     u1380:	
  4942  0CE8  1283               	bcf	3,5	;RP0=0, select bank0
  4943  0CE9  1303               	bcf	3,6	;RP1=0, select bank0
  4944  0CEA  1007               	bcf	7,0	;volatile
  4945  0CEB                     u1394:	
  4946  0CEB                     l1615:	
  4947                           
  4948                           ;termometroDiferencial.c: 46:     flank();
  4949  0CEB  158A  2223  158A   	fcall	_flank
  4950  0CEE                     l72:	
  4951  0CEE  0008               	return
  4952  0CEF                     __end_of_sendNibble:	
  4953                           
  4954                           	psect	text22
  4955  0A23                     __ptext22:	
  4956 ;; *************** function _flank *****************
  4957 ;; Defined at:
  4958 ;;		line 25 in file "termometroDiferencial.c"
  4959 ;; Parameters:    Size  Location     Type
  4960 ;;		None
  4961 ;; Auto vars:     Size  Location     Type
  4962 ;;		None
  4963 ;; Return value:  Size  Location     Type
  4964 ;;                  1    wreg      void 
  4965 ;; Registers used:
  4966 ;;		wreg
  4967 ;; Tracked objects:
  4968 ;;		On entry : 0/0
  4969 ;;		On exit  : 0/0
  4970 ;;		Unchanged: 0/0
  4971 ;; Data sizes:     COMMON   BANK0   BANK1
  4972 ;;      Params:         0       0       0
  4973 ;;      Locals:         0       0       0
  4974 ;;      Temps:          0       1       0
  4975 ;;      Totals:         0       1       0
  4976 ;;Total ram usage:        1 bytes
  4977 ;; Hardware stack levels used:    1
  4978 ;; Hardware stack levels required when called:    6
  4979 ;; This function calls:
  4980 ;;		Nothing
  4981 ;; This function is called by:
  4982 ;;		_sendNibble
  4983 ;;		_turnOnLCD
  4984 ;; This function uses a non-reentrant model
  4985 ;;
  4986                           
  4987                           
  4988                           ;psect for function _flank
  4989  0A23                     _flank:	
  4990  0A23                     l1597:	
  4991                           ;incstack = 0
  4992 ;; hardware stack exceeded
  4993                           ; Regs used in _flank: [wreg]
  4994                           
  4995                           
  4996                           ;termometroDiferencial.c: 26:     RC1 = 1;
  4997  0A23  1283               	bcf	3,5	;RP0=0, select bank0
  4998  0A24  1303               	bcf	3,6	;RP1=0, select bank0
  4999  0A25  1487               	bsf	7,1	;volatile
  5000  0A26                     l1599:	
  5001                           
  5002                           ;termometroDiferencial.c: 27:     _delay((unsigned long)((1)*(4000000/4000.0)));
  5003  0A26  30C7               	movlw	199
  5004  0A27  1283               	bcf	3,5	;RP0=0, select bank0
  5005  0A28  1303               	bcf	3,6	;RP1=0, select bank0
  5006  0A29  00B9               	movwf	??_flank
  5007  0A2A                     u3127:	
  5008  0A2A  2A2B               	nop2
  5009  0A2B  0BB9               	decfsz	??_flank,f
  5010  0A2C  2A2A               	goto	u3127
  5011  0A2D  2A2E               	nop2
  5012  0A2E  0000               	nop
  5013  0A2F                     l1601:	
  5014                           
  5015                           ;termometroDiferencial.c: 28:     RC1 = 0;
  5016  0A2F  1283               	bcf	3,5	;RP0=0, select bank0
  5017  0A30  1303               	bcf	3,6	;RP1=0, select bank0
  5018  0A31  1087               	bcf	7,1	;volatile
  5019  0A32                     l69:	
  5020  0A32  0008               	return
  5021  0A33                     __end_of_flank:	
  5022                           
  5023                           	psect	text23
  5024  0AB6                     __ptext23:	
  5025 ;; *************** function _accion *****************
  5026 ;; Defined at:
  5027 ;;		line 305 in file "termometroDiferencial.c"
  5028 ;; Parameters:    Size  Location     Type
  5029 ;;		None
  5030 ;; Auto vars:     Size  Location     Type
  5031 ;;		None
  5032 ;; Return value:  Size  Location     Type
  5033 ;;                  1    wreg      void 
  5034 ;; Registers used:
  5035 ;;		wreg, fsr0l, fsr0h, status,2, status,0, btemp+1, pclath, cstack
  5036 ;; Tracked objects:
  5037 ;;		On entry : 0/0
  5038 ;;		On exit  : 0/0
  5039 ;;		Unchanged: 0/0
  5040 ;; Data sizes:     COMMON   BANK0   BANK1
  5041 ;;      Params:         0       0       0
  5042 ;;      Locals:         0       0       0
  5043 ;;      Temps:          0       7       0
  5044 ;;      Totals:         0       7       0
  5045 ;;Total ram usage:        7 bytes
  5046 ;; Hardware stack levels used:    1
  5047 ;; Hardware stack levels required when called:    5
  5048 ;; This function calls:
  5049 ;;		_tecla
  5050 ;; This function is called by:
  5051 ;;		Interrupt level 1
  5052 ;; This function uses a non-reentrant model
  5053 ;;
  5054                           
  5055                           
  5056                           ;psect for function _accion
  5057  0AB6                     _accion:	
  5058  0AB6                     i1l2295:	
  5059                           
  5060                           ;termometroDiferencial.c: 307:     if (INTCONbits.RBIF) {
  5061  0AB6  1C0B               	btfss	11,0	;volatile
  5062  0AB7  2AB9               	goto	u269_21
  5063  0AB8  2ABA               	goto	u269_20
  5064  0AB9                     u269_21:	
  5065  0AB9  2ACC               	goto	i1l165
  5066  0ABA                     u269_20:	
  5067  0ABA                     i1l2297:	
  5068                           
  5069                           ;termometroDiferencial.c: 309:         tecla();
  5070  0ABA  118A  258C  158A   	fcall	_tecla
  5071  0ABD                     i1l2299:	
  5072                           
  5073                           ;termometroDiferencial.c: 310:         _delay((unsigned long)((200)*(4000000/4000.0)));
  5074  0ABD  3002               	movlw	2
  5075  0ABE  1283               	bcf	3,5	;RP0=0, select bank0
  5076  0ABF  1303               	bcf	3,6	;RP1=0, select bank0
  5077  0AC0  00B4               	movwf	??_accion+2
  5078  0AC1  3004               	movlw	4
  5079  0AC2  00B3               	movwf	??_accion+1
  5080  0AC3  30BA               	movlw	186
  5081  0AC4  00B2               	movwf	??_accion
  5082  0AC5                     u313_27:	
  5083  0AC5  0BB2               	decfsz	??_accion,f
  5084  0AC6  2AC5               	goto	u313_27
  5085  0AC7  0BB3               	decfsz	??_accion+1,f
  5086  0AC8  2AC5               	goto	u313_27
  5087  0AC9  0BB4               	decfsz	??_accion+2,f
  5088  0ACA  2AC5               	goto	u313_27
  5089  0ACB                     i1l2301:	
  5090                           
  5091                           ;termometroDiferencial.c: 312:         INTCONbits.RBIF = 0;
  5092  0ACB  100B               	bcf	11,0	;volatile
  5093  0ACC                     i1l165:	
  5094  0ACC  1283               	bcf	3,5	;RP0=0, select bank0
  5095  0ACD  1303               	bcf	3,6	;RP1=0, select bank0
  5096  0ACE  0838               	movf	??_accion+6,w
  5097  0ACF  00FF               	movwf	btemp+1
  5098  0AD0  0837               	movf	??_accion+5,w
  5099  0AD1  008A               	movwf	10
  5100  0AD2  0836               	movf	??_accion+4,w
  5101  0AD3  0084               	movwf	4
  5102  0AD4  0E35               	swapf	(??_accion+3)^0,w
  5103  0AD5  0083               	movwf	3
  5104  0AD6  0EFE               	swapf	btemp,f
  5105  0AD7  0E7E               	swapf	btemp,w
  5106  0AD8  0009               	retfie
  5107  0AD9                     __end_of_accion:	
  5108                           
  5109                           	psect	intentry
  5110  0004                     __pintentry:	
  5111                           ;incstack = 0
  5112 ;; hardware stack exceeded
  5113                           ; Regs used in _accion: [wreg-fsr0h+status,2+status,0+btemp+1+pclath+cstack]
  5114                           
  5115  0004                     interrupt_function:	
  5116  007E                     saved_w	set	btemp
  5117  0004  00FE               	movwf	btemp
  5118  0005  0E03               	swapf	3,w
  5119  0006  1283               	bcf	3,5	;RP0=0, select bank0
  5120  0007  1303               	bcf	3,6	;RP1=0, select bank0
  5121  0008  00B5               	movwf	??_accion+3
  5122  0009  0804               	movf	4,w
  5123  000A  00B6               	movwf	??_accion+4
  5124  000B  080A               	movf	10,w
  5125  000C  00B7               	movwf	??_accion+5
  5126  000D  087F               	movf	btemp+1,w
  5127  000E  00B8               	movwf	??_accion+6
  5128  000F  158A  2AB6         	ljmp	_accion
  5129                           
  5130                           	psect	text24
  5131  058C                     __ptext24:	
  5132 ;; *************** function _tecla *****************
  5133 ;; Defined at:
  5134 ;;		line 178 in file "termometroDiferencial.c"
  5135 ;; Parameters:    Size  Location     Type
  5136 ;;		None
  5137 ;; Auto vars:     Size  Location     Type
  5138 ;;		None
  5139 ;; Return value:  Size  Location     Type
  5140 ;;                  1    wreg      void 
  5141 ;; Registers used:
  5142 ;;		wreg, fsr0l, fsr0h, status,2, status,0, btemp+1, pclath, cstack
  5143 ;; Tracked objects:
  5144 ;;		On entry : 0/0
  5145 ;;		On exit  : 0/0
  5146 ;;		Unchanged: 0/0
  5147 ;; Data sizes:     COMMON   BANK0   BANK1
  5148 ;;      Params:         0       0       0
  5149 ;;      Locals:         0       0       0
  5150 ;;      Temps:          0       2       0
  5151 ;;      Totals:         0       2       0
  5152 ;;Total ram usage:        2 bytes
  5153 ;; Hardware stack levels used:    1
  5154 ;; Hardware stack levels required when called:    4
  5155 ;; This function calls:
  5156 ;;		_atoi
  5157 ;;		_changeThermometerChannel
  5158 ;;		_clearIfFirst
  5159 ;;		i1_putCharacter
  5160 ;; This function is called by:
  5161 ;;		_accion
  5162 ;; This function uses a non-reentrant model
  5163 ;;
  5164                           
  5165                           
  5166                           ;psect for function _tecla
  5167  058C                     _tecla:	
  5168  058C                     i1l2147:	
  5169                           ;incstack = 0
  5170 ;; hardware stack exceeded
  5171                           ; Regs used in _tecla: [wreg-fsr0h+status,2+status,0+btemp+1+pclath+cstack]
  5172                           
  5173                           
  5174                           ;termometroDiferencial.c: 180:     switch (PORTB) {
  5175  058C  2F68               	goto	i1l2279
  5176  058D                     i1l2149:	
  5177                           
  5178                           ;termometroDiferencial.c: 182:             if (waiting) {
  5179  058D  085D               	movf	_waiting,w
  5180  058E  045E               	iorwf	_waiting+1,w
  5181  058F  1903               	btfsc	3,2
  5182  0590  2D92               	goto	u247_21
  5183  0591  2D93               	goto	u247_20
  5184  0592                     u247_21:	
  5185  0592  2FA4               	goto	i1l159
  5186  0593                     u247_20:	
  5187  0593                     i1l2151:	
  5188                           
  5189                           ;termometroDiferencial.c: 183:                 clearIfFirst();
  5190  0593  158A  2213  118A   	fcall	_clearIfFirst
  5191  0596                     i1l2153:	
  5192                           
  5193                           ;termometroDiferencial.c: 184:                 if (cont < 3) {
  5194  0596  1283               	bcf	3,5	;RP0=0, select bank0
  5195  0597  1303               	bcf	3,6	;RP1=0, select bank0
  5196  0598  0860               	movf	_cont+1,w
  5197  0599  3A80               	xorlw	128
  5198  059A  00FF               	movwf	btemp+1
  5199  059B  3080               	movlw	128
  5200  059C  027F               	subwf	btemp+1,w
  5201  059D  1D03               	skipz
  5202  059E  2DA1               	goto	u248_25
  5203  059F  3003               	movlw	3
  5204  05A0  025F               	subwf	_cont,w
  5205  05A1                     u248_25:	
  5206  05A1  1803               	skipnc
  5207  05A2  2DA4               	goto	u248_21
  5208  05A3  2DA5               	goto	u248_20
  5209  05A4                     u248_21:	
  5210  05A4  2FA4               	goto	i1l159
  5211  05A5                     u248_20:	
  5212  05A5                     i1l2155:	
  5213                           
  5214                           ;termometroDiferencial.c: 185:                     maxTempString[cont] = '7';
  5215  05A5  3037               	movlw	55
  5216  05A6  1283               	bcf	3,5	;RP0=0, select bank0
  5217  05A7  1303               	bcf	3,6	;RP1=0, select bank0
  5218  05A8  00B0               	movwf	??_tecla
  5219  05A9  085F               	movf	_cont,w
  5220  05AA  3E61               	addlw	(low (_maxTempString| 0))& (0+255)
  5221  05AB  0084               	movwf	4
  5222  05AC  0830               	movf	??_tecla,w
  5223  05AD  1383               	bcf	3,7	;select IRP bank0
  5224  05AE  0080               	movwf	0
  5225  05AF                     i1l2157:	
  5226                           
  5227                           ;termometroDiferencial.c: 186:                     putCharacter('7', cont);
  5228  05AF  0860               	movf	_cont+1,w
  5229  05B0  00AC               	movwf	i1putCharacter@position+1
  5230  05B1  085F               	movf	_cont,w
  5231  05B2  00AB               	movwf	i1putCharacter@position
  5232  05B3  3037               	movlw	55
  5233  05B4  158A  22D9  118A   	fcall	i1_putCharacter
  5234  05B7                     i1l2159:	
  5235                           
  5236                           ;termometroDiferencial.c: 187:                     cont++;
  5237  05B7  3001               	movlw	1
  5238  05B8  1283               	bcf	3,5	;RP0=0, select bank0
  5239  05B9  1303               	bcf	3,6	;RP1=0, select bank0
  5240  05BA  07DF               	addwf	_cont,f
  5241  05BB  1803               	skipnc
  5242  05BC  0AE0               	incf	_cont+1,f
  5243  05BD  3000               	movlw	0
  5244  05BE  07E0               	addwf	_cont+1,f
  5245  05BF  2FA4               	goto	i1l159
  5246  05C0                     i1l2161:	
  5247                           
  5248                           ;termometroDiferencial.c: 192:             if (waiting) {
  5249  05C0  085D               	movf	_waiting,w
  5250  05C1  045E               	iorwf	_waiting+1,w
  5251  05C2  1903               	btfsc	3,2
  5252  05C3  2DC5               	goto	u249_21
  5253  05C4  2DC6               	goto	u249_20
  5254  05C5                     u249_21:	
  5255  05C5  2FA4               	goto	i1l159
  5256  05C6                     u249_20:	
  5257  05C6                     i1l2163:	
  5258                           
  5259                           ;termometroDiferencial.c: 193:                 clearIfFirst();
  5260  05C6  158A  2213  118A   	fcall	_clearIfFirst
  5261  05C9                     i1l2165:	
  5262                           
  5263                           ;termometroDiferencial.c: 194:                 if (cont < 3) {
  5264  05C9  1283               	bcf	3,5	;RP0=0, select bank0
  5265  05CA  1303               	bcf	3,6	;RP1=0, select bank0
  5266  05CB  0860               	movf	_cont+1,w
  5267  05CC  3A80               	xorlw	128
  5268  05CD  00FF               	movwf	btemp+1
  5269  05CE  3080               	movlw	128
  5270  05CF  027F               	subwf	btemp+1,w
  5271  05D0  1D03               	skipz
  5272  05D1  2DD4               	goto	u250_25
  5273  05D2  3003               	movlw	3
  5274  05D3  025F               	subwf	_cont,w
  5275  05D4                     u250_25:	
  5276  05D4  1803               	skipnc
  5277  05D5  2DD7               	goto	u250_21
  5278  05D6  2DD8               	goto	u250_20
  5279  05D7                     u250_21:	
  5280  05D7  2FA4               	goto	i1l159
  5281  05D8                     u250_20:	
  5282  05D8                     i1l2167:	
  5283                           
  5284                           ;termometroDiferencial.c: 195:                     maxTempString[cont] = '8';
  5285  05D8  3038               	movlw	56
  5286  05D9  1283               	bcf	3,5	;RP0=0, select bank0
  5287  05DA  1303               	bcf	3,6	;RP1=0, select bank0
  5288  05DB  00B0               	movwf	??_tecla
  5289  05DC  085F               	movf	_cont,w
  5290  05DD  3E61               	addlw	(low (_maxTempString| 0))& (0+255)
  5291  05DE  0084               	movwf	4
  5292  05DF  0830               	movf	??_tecla,w
  5293  05E0  1383               	bcf	3,7	;select IRP bank0
  5294  05E1  0080               	movwf	0
  5295  05E2                     i1l2169:	
  5296                           
  5297                           ;termometroDiferencial.c: 196:                     putCharacter('8', cont);
  5298  05E2  0860               	movf	_cont+1,w
  5299  05E3  00AC               	movwf	i1putCharacter@position+1
  5300  05E4  085F               	movf	_cont,w
  5301  05E5  00AB               	movwf	i1putCharacter@position
  5302  05E6  3038               	movlw	56
  5303  05E7  158A  22D9  118A   	fcall	i1_putCharacter
  5304  05EA  2DB7               	goto	i1l2159
  5305  05EB                     i1l2173:	
  5306                           
  5307                           ;termometroDiferencial.c: 202:             if (waiting) {
  5308  05EB  085D               	movf	_waiting,w
  5309  05EC  045E               	iorwf	_waiting+1,w
  5310  05ED  1903               	btfsc	3,2
  5311  05EE  2DF0               	goto	u251_21
  5312  05EF  2DF1               	goto	u251_20
  5313  05F0                     u251_21:	
  5314  05F0  2FA4               	goto	i1l159
  5315  05F1                     u251_20:	
  5316  05F1                     i1l2175:	
  5317                           
  5318                           ;termometroDiferencial.c: 203:                 clearIfFirst();
  5319  05F1  158A  2213  118A   	fcall	_clearIfFirst
  5320  05F4                     i1l2177:	
  5321                           
  5322                           ;termometroDiferencial.c: 204:                 if (cont < 3) {
  5323  05F4  1283               	bcf	3,5	;RP0=0, select bank0
  5324  05F5  1303               	bcf	3,6	;RP1=0, select bank0
  5325  05F6  0860               	movf	_cont+1,w
  5326  05F7  3A80               	xorlw	128
  5327  05F8  00FF               	movwf	btemp+1
  5328  05F9  3080               	movlw	128
  5329  05FA  027F               	subwf	btemp+1,w
  5330  05FB  1D03               	skipz
  5331  05FC  2DFF               	goto	u252_25
  5332  05FD  3003               	movlw	3
  5333  05FE  025F               	subwf	_cont,w
  5334  05FF                     u252_25:	
  5335  05FF  1803               	skipnc
  5336  0600  2E02               	goto	u252_21
  5337  0601  2E03               	goto	u252_20
  5338  0602                     u252_21:	
  5339  0602  2FA4               	goto	i1l159
  5340  0603                     u252_20:	
  5341  0603                     i1l2179:	
  5342                           
  5343                           ;termometroDiferencial.c: 205:                     maxTempString[cont] = '9';
  5344  0603  3039               	movlw	57
  5345  0604  1283               	bcf	3,5	;RP0=0, select bank0
  5346  0605  1303               	bcf	3,6	;RP1=0, select bank0
  5347  0606  00B0               	movwf	??_tecla
  5348  0607  085F               	movf	_cont,w
  5349  0608  3E61               	addlw	(low (_maxTempString| 0))& (0+255)
  5350  0609  0084               	movwf	4
  5351  060A  0830               	movf	??_tecla,w
  5352  060B  1383               	bcf	3,7	;select IRP bank0
  5353  060C  0080               	movwf	0
  5354  060D                     i1l2181:	
  5355                           
  5356                           ;termometroDiferencial.c: 206:                     putCharacter('9', cont);
  5357  060D  0860               	movf	_cont+1,w
  5358  060E  00AC               	movwf	i1putCharacter@position+1
  5359  060F  085F               	movf	_cont,w
  5360  0610  00AB               	movwf	i1putCharacter@position
  5361  0611  3039               	movlw	57
  5362  0612  158A  22D9  118A   	fcall	i1_putCharacter
  5363  0615  2DB7               	goto	i1l2159
  5364  0616                     i1l2185:	
  5365                           
  5366                           ;termometroDiferencial.c: 215:             if (waiting) {
  5367  0616  085D               	movf	_waiting,w
  5368  0617  045E               	iorwf	_waiting+1,w
  5369  0618  1903               	btfsc	3,2
  5370  0619  2E1B               	goto	u253_21
  5371  061A  2E1C               	goto	u253_20
  5372  061B                     u253_21:	
  5373  061B  2FA4               	goto	i1l159
  5374  061C                     u253_20:	
  5375  061C                     i1l2187:	
  5376                           
  5377                           ;termometroDiferencial.c: 216:                 clearIfFirst();
  5378  061C  158A  2213  118A   	fcall	_clearIfFirst
  5379  061F                     i1l2189:	
  5380                           
  5381                           ;termometroDiferencial.c: 217:                 if (cont < 3) {
  5382  061F  1283               	bcf	3,5	;RP0=0, select bank0
  5383  0620  1303               	bcf	3,6	;RP1=0, select bank0
  5384  0621  0860               	movf	_cont+1,w
  5385  0622  3A80               	xorlw	128
  5386  0623  00FF               	movwf	btemp+1
  5387  0624  3080               	movlw	128
  5388  0625  027F               	subwf	btemp+1,w
  5389  0626  1D03               	skipz
  5390  0627  2E2A               	goto	u254_25
  5391  0628  3003               	movlw	3
  5392  0629  025F               	subwf	_cont,w
  5393  062A                     u254_25:	
  5394  062A  1803               	skipnc
  5395  062B  2E2D               	goto	u254_21
  5396  062C  2E2E               	goto	u254_20
  5397  062D                     u254_21:	
  5398  062D  2FA4               	goto	i1l159
  5399  062E                     u254_20:	
  5400  062E                     i1l2191:	
  5401                           
  5402                           ;termometroDiferencial.c: 218:                     maxTempString[cont] = '4';
  5403  062E  3034               	movlw	52
  5404  062F  1283               	bcf	3,5	;RP0=0, select bank0
  5405  0630  1303               	bcf	3,6	;RP1=0, select bank0
  5406  0631  00B0               	movwf	??_tecla
  5407  0632  085F               	movf	_cont,w
  5408  0633  3E61               	addlw	(low (_maxTempString| 0))& (0+255)
  5409  0634  0084               	movwf	4
  5410  0635  0830               	movf	??_tecla,w
  5411  0636  1383               	bcf	3,7	;select IRP bank0
  5412  0637  0080               	movwf	0
  5413  0638                     i1l2193:	
  5414                           
  5415                           ;termometroDiferencial.c: 219:                     putCharacter('4', cont);
  5416  0638  0860               	movf	_cont+1,w
  5417  0639  00AC               	movwf	i1putCharacter@position+1
  5418  063A  085F               	movf	_cont,w
  5419  063B  00AB               	movwf	i1putCharacter@position
  5420  063C  3034               	movlw	52
  5421  063D  158A  22D9  118A   	fcall	i1_putCharacter
  5422  0640  2DB7               	goto	i1l2159
  5423  0641                     i1l2197:	
  5424                           
  5425                           ;termometroDiferencial.c: 225:             if (waiting) {
  5426  0641  085D               	movf	_waiting,w
  5427  0642  045E               	iorwf	_waiting+1,w
  5428  0643  1903               	btfsc	3,2
  5429  0644  2E46               	goto	u255_21
  5430  0645  2E47               	goto	u255_20
  5431  0646                     u255_21:	
  5432  0646  2FA4               	goto	i1l159
  5433  0647                     u255_20:	
  5434  0647                     i1l2199:	
  5435                           
  5436                           ;termometroDiferencial.c: 226:                 clearIfFirst();
  5437  0647  158A  2213  118A   	fcall	_clearIfFirst
  5438  064A                     i1l2201:	
  5439                           
  5440                           ;termometroDiferencial.c: 227:                 if (cont < 3) {
  5441  064A  1283               	bcf	3,5	;RP0=0, select bank0
  5442  064B  1303               	bcf	3,6	;RP1=0, select bank0
  5443  064C  0860               	movf	_cont+1,w
  5444  064D  3A80               	xorlw	128
  5445  064E  00FF               	movwf	btemp+1
  5446  064F  3080               	movlw	128
  5447  0650  027F               	subwf	btemp+1,w
  5448  0651  1D03               	skipz
  5449  0652  2E55               	goto	u256_25
  5450  0653  3003               	movlw	3
  5451  0654  025F               	subwf	_cont,w
  5452  0655                     u256_25:	
  5453  0655  1803               	skipnc
  5454  0656  2E58               	goto	u256_21
  5455  0657  2E59               	goto	u256_20
  5456  0658                     u256_21:	
  5457  0658  2FA4               	goto	i1l159
  5458  0659                     u256_20:	
  5459  0659                     i1l2203:	
  5460                           
  5461                           ;termometroDiferencial.c: 228:                     maxTempString[cont] = '5';
  5462  0659  3035               	movlw	53
  5463  065A  1283               	bcf	3,5	;RP0=0, select bank0
  5464  065B  1303               	bcf	3,6	;RP1=0, select bank0
  5465  065C  00B0               	movwf	??_tecla
  5466  065D  085F               	movf	_cont,w
  5467  065E  3E61               	addlw	(low (_maxTempString| 0))& (0+255)
  5468  065F  0084               	movwf	4
  5469  0660  0830               	movf	??_tecla,w
  5470  0661  1383               	bcf	3,7	;select IRP bank0
  5471  0662  0080               	movwf	0
  5472  0663                     i1l2205:	
  5473                           
  5474                           ;termometroDiferencial.c: 229:                     putCharacter('5', cont);
  5475  0663  0860               	movf	_cont+1,w
  5476  0664  00AC               	movwf	i1putCharacter@position+1
  5477  0665  085F               	movf	_cont,w
  5478  0666  00AB               	movwf	i1putCharacter@position
  5479  0667  3035               	movlw	53
  5480  0668  158A  22D9  118A   	fcall	i1_putCharacter
  5481  066B  2DB7               	goto	i1l2159
  5482  066C                     i1l2209:	
  5483                           
  5484                           ;termometroDiferencial.c: 235:             if (waiting) {
  5485  066C  085D               	movf	_waiting,w
  5486  066D  045E               	iorwf	_waiting+1,w
  5487  066E  1903               	btfsc	3,2
  5488  066F  2E71               	goto	u257_21
  5489  0670  2E72               	goto	u257_20
  5490  0671                     u257_21:	
  5491  0671  2FA4               	goto	i1l159
  5492  0672                     u257_20:	
  5493  0672                     i1l2211:	
  5494                           
  5495                           ;termometroDiferencial.c: 236:                 clearIfFirst();
  5496  0672  158A  2213  118A   	fcall	_clearIfFirst
  5497  0675                     i1l2213:	
  5498                           
  5499                           ;termometroDiferencial.c: 237:                 if (cont < 3) {
  5500  0675  1283               	bcf	3,5	;RP0=0, select bank0
  5501  0676  1303               	bcf	3,6	;RP1=0, select bank0
  5502  0677  0860               	movf	_cont+1,w
  5503  0678  3A80               	xorlw	128
  5504  0679  00FF               	movwf	btemp+1
  5505  067A  3080               	movlw	128
  5506  067B  027F               	subwf	btemp+1,w
  5507  067C  1D03               	skipz
  5508  067D  2E80               	goto	u258_25
  5509  067E  3003               	movlw	3
  5510  067F  025F               	subwf	_cont,w
  5511  0680                     u258_25:	
  5512  0680  1803               	skipnc
  5513  0681  2E83               	goto	u258_21
  5514  0682  2E84               	goto	u258_20
  5515  0683                     u258_21:	
  5516  0683  2FA4               	goto	i1l159
  5517  0684                     u258_20:	
  5518  0684                     i1l2215:	
  5519                           
  5520                           ;termometroDiferencial.c: 238:                     maxTempString[cont] = '6';
  5521  0684  3036               	movlw	54
  5522  0685  1283               	bcf	3,5	;RP0=0, select bank0
  5523  0686  1303               	bcf	3,6	;RP1=0, select bank0
  5524  0687  00B0               	movwf	??_tecla
  5525  0688  085F               	movf	_cont,w
  5526  0689  3E61               	addlw	(low (_maxTempString| 0))& (0+255)
  5527  068A  0084               	movwf	4
  5528  068B  0830               	movf	??_tecla,w
  5529  068C  1383               	bcf	3,7	;select IRP bank0
  5530  068D  0080               	movwf	0
  5531  068E                     i1l2217:	
  5532                           
  5533                           ;termometroDiferencial.c: 239:                     putCharacter('6', cont);
  5534  068E  0860               	movf	_cont+1,w
  5535  068F  00AC               	movwf	i1putCharacter@position+1
  5536  0690  085F               	movf	_cont,w
  5537  0691  00AB               	movwf	i1putCharacter@position
  5538  0692  3036               	movlw	54
  5539  0693  158A  22D9  118A   	fcall	i1_putCharacter
  5540  0696  2DB7               	goto	i1l2159
  5541  0697                     i1l2221:	
  5542                           
  5543                           ;termometroDiferencial.c: 248:             if (waiting) {
  5544  0697  085D               	movf	_waiting,w
  5545  0698  045E               	iorwf	_waiting+1,w
  5546  0699  1903               	btfsc	3,2
  5547  069A  2E9C               	goto	u259_21
  5548  069B  2E9D               	goto	u259_20
  5549  069C                     u259_21:	
  5550  069C  2FA4               	goto	i1l159
  5551  069D                     u259_20:	
  5552  069D                     i1l2223:	
  5553                           
  5554                           ;termometroDiferencial.c: 249:                 clearIfFirst();
  5555  069D  158A  2213  118A   	fcall	_clearIfFirst
  5556  06A0                     i1l2225:	
  5557                           
  5558                           ;termometroDiferencial.c: 250:                 if (cont < 3) {
  5559  06A0  1283               	bcf	3,5	;RP0=0, select bank0
  5560  06A1  1303               	bcf	3,6	;RP1=0, select bank0
  5561  06A2  0860               	movf	_cont+1,w
  5562  06A3  3A80               	xorlw	128
  5563  06A4  00FF               	movwf	btemp+1
  5564  06A5  3080               	movlw	128
  5565  06A6  027F               	subwf	btemp+1,w
  5566  06A7  1D03               	skipz
  5567  06A8  2EAB               	goto	u260_25
  5568  06A9  3003               	movlw	3
  5569  06AA  025F               	subwf	_cont,w
  5570  06AB                     u260_25:	
  5571  06AB  1803               	skipnc
  5572  06AC  2EAE               	goto	u260_21
  5573  06AD  2EAF               	goto	u260_20
  5574  06AE                     u260_21:	
  5575  06AE  2FA4               	goto	i1l159
  5576  06AF                     u260_20:	
  5577  06AF                     i1l2227:	
  5578                           
  5579                           ;termometroDiferencial.c: 251:                     maxTempString[cont] = '1';
  5580  06AF  3031               	movlw	49
  5581  06B0  1283               	bcf	3,5	;RP0=0, select bank0
  5582  06B1  1303               	bcf	3,6	;RP1=0, select bank0
  5583  06B2  00B0               	movwf	??_tecla
  5584  06B3  085F               	movf	_cont,w
  5585  06B4  3E61               	addlw	(low (_maxTempString| 0))& (0+255)
  5586  06B5  0084               	movwf	4
  5587  06B6  0830               	movf	??_tecla,w
  5588  06B7  1383               	bcf	3,7	;select IRP bank0
  5589  06B8  0080               	movwf	0
  5590  06B9                     i1l2229:	
  5591                           
  5592                           ;termometroDiferencial.c: 252:                     putCharacter('1', cont);
  5593  06B9  0860               	movf	_cont+1,w
  5594  06BA  00AC               	movwf	i1putCharacter@position+1
  5595  06BB  085F               	movf	_cont,w
  5596  06BC  00AB               	movwf	i1putCharacter@position
  5597  06BD  3031               	movlw	49
  5598  06BE  158A  22D9  118A   	fcall	i1_putCharacter
  5599  06C1  2DB7               	goto	i1l2159
  5600  06C2                     i1l2233:	
  5601                           
  5602                           ;termometroDiferencial.c: 258:             if (waiting) {
  5603  06C2  085D               	movf	_waiting,w
  5604  06C3  045E               	iorwf	_waiting+1,w
  5605  06C4  1903               	btfsc	3,2
  5606  06C5  2EC7               	goto	u261_21
  5607  06C6  2EC8               	goto	u261_20
  5608  06C7                     u261_21:	
  5609  06C7  2FA4               	goto	i1l159
  5610  06C8                     u261_20:	
  5611  06C8                     i1l2235:	
  5612                           
  5613                           ;termometroDiferencial.c: 259:                 clearIfFirst();
  5614  06C8  158A  2213  118A   	fcall	_clearIfFirst
  5615  06CB                     i1l2237:	
  5616                           
  5617                           ;termometroDiferencial.c: 260:                 if (cont < 3) {
  5618  06CB  1283               	bcf	3,5	;RP0=0, select bank0
  5619  06CC  1303               	bcf	3,6	;RP1=0, select bank0
  5620  06CD  0860               	movf	_cont+1,w
  5621  06CE  3A80               	xorlw	128
  5622  06CF  00FF               	movwf	btemp+1
  5623  06D0  3080               	movlw	128
  5624  06D1  027F               	subwf	btemp+1,w
  5625  06D2  1D03               	skipz
  5626  06D3  2ED6               	goto	u262_25
  5627  06D4  3003               	movlw	3
  5628  06D5  025F               	subwf	_cont,w
  5629  06D6                     u262_25:	
  5630  06D6  1803               	skipnc
  5631  06D7  2ED9               	goto	u262_21
  5632  06D8  2EDA               	goto	u262_20
  5633  06D9                     u262_21:	
  5634  06D9  2FA4               	goto	i1l159
  5635  06DA                     u262_20:	
  5636  06DA                     i1l2239:	
  5637                           
  5638                           ;termometroDiferencial.c: 261:                     maxTempString[cont] = '2';
  5639  06DA  3032               	movlw	50
  5640  06DB  1283               	bcf	3,5	;RP0=0, select bank0
  5641  06DC  1303               	bcf	3,6	;RP1=0, select bank0
  5642  06DD  00B0               	movwf	??_tecla
  5643  06DE  085F               	movf	_cont,w
  5644  06DF  3E61               	addlw	(low (_maxTempString| 0))& (0+255)
  5645  06E0  0084               	movwf	4
  5646  06E1  0830               	movf	??_tecla,w
  5647  06E2  1383               	bcf	3,7	;select IRP bank0
  5648  06E3  0080               	movwf	0
  5649  06E4                     i1l2241:	
  5650                           
  5651                           ;termometroDiferencial.c: 262:                     putCharacter('2', cont);
  5652  06E4  0860               	movf	_cont+1,w
  5653  06E5  00AC               	movwf	i1putCharacter@position+1
  5654  06E6  085F               	movf	_cont,w
  5655  06E7  00AB               	movwf	i1putCharacter@position
  5656  06E8  3032               	movlw	50
  5657  06E9  158A  22D9  118A   	fcall	i1_putCharacter
  5658  06EC  2DB7               	goto	i1l2159
  5659  06ED                     i1l2245:	
  5660                           
  5661                           ;termometroDiferencial.c: 268:             if (waiting) {
  5662  06ED  085D               	movf	_waiting,w
  5663  06EE  045E               	iorwf	_waiting+1,w
  5664  06EF  1903               	btfsc	3,2
  5665  06F0  2EF2               	goto	u263_21
  5666  06F1  2EF3               	goto	u263_20
  5667  06F2                     u263_21:	
  5668  06F2  2FA4               	goto	i1l159
  5669  06F3                     u263_20:	
  5670  06F3                     i1l2247:	
  5671                           
  5672                           ;termometroDiferencial.c: 269:                 clearIfFirst();
  5673  06F3  158A  2213  118A   	fcall	_clearIfFirst
  5674  06F6                     i1l2249:	
  5675                           
  5676                           ;termometroDiferencial.c: 270:                 if (cont < 3) {
  5677  06F6  1283               	bcf	3,5	;RP0=0, select bank0
  5678  06F7  1303               	bcf	3,6	;RP1=0, select bank0
  5679  06F8  0860               	movf	_cont+1,w
  5680  06F9  3A80               	xorlw	128
  5681  06FA  00FF               	movwf	btemp+1
  5682  06FB  3080               	movlw	128
  5683  06FC  027F               	subwf	btemp+1,w
  5684  06FD  1D03               	skipz
  5685  06FE  2F01               	goto	u264_25
  5686  06FF  3003               	movlw	3
  5687  0700  025F               	subwf	_cont,w
  5688  0701                     u264_25:	
  5689  0701  1803               	skipnc
  5690  0702  2F04               	goto	u264_21
  5691  0703  2F05               	goto	u264_20
  5692  0704                     u264_21:	
  5693  0704  2FA4               	goto	i1l159
  5694  0705                     u264_20:	
  5695  0705                     i1l2251:	
  5696                           
  5697                           ;termometroDiferencial.c: 271:                     maxTempString[cont] = '3';
  5698  0705  3033               	movlw	51
  5699  0706  1283               	bcf	3,5	;RP0=0, select bank0
  5700  0707  1303               	bcf	3,6	;RP1=0, select bank0
  5701  0708  00B0               	movwf	??_tecla
  5702  0709  085F               	movf	_cont,w
  5703  070A  3E61               	addlw	(low (_maxTempString| 0))& (0+255)
  5704  070B  0084               	movwf	4
  5705  070C  0830               	movf	??_tecla,w
  5706  070D  1383               	bcf	3,7	;select IRP bank0
  5707  070E  0080               	movwf	0
  5708  070F                     i1l2253:	
  5709                           
  5710                           ;termometroDiferencial.c: 272:                     putCharacter('3', cont);
  5711  070F  0860               	movf	_cont+1,w
  5712  0710  00AC               	movwf	i1putCharacter@position+1
  5713  0711  085F               	movf	_cont,w
  5714  0712  00AB               	movwf	i1putCharacter@position
  5715  0713  3033               	movlw	51
  5716  0714  158A  22D9  118A   	fcall	i1_putCharacter
  5717  0717  2DB7               	goto	i1l2159
  5718  0718                     i1l2257:	
  5719                           
  5720                           ;termometroDiferencial.c: 278:             changeThermometerChannel(1);
  5721  0718  3001               	movlw	1
  5722  0719  00A0               	movwf	changeThermometerChannel@channel
  5723  071A  3000               	movlw	0
  5724  071B  00A1               	movwf	changeThermometerChannel@channel+1
  5725  071C  158A  21E9  118A   	fcall	_changeThermometerChannel
  5726                           
  5727                           ;termometroDiferencial.c: 279:             break;
  5728  071F  2FA4               	goto	i1l159
  5729  0720                     i1l2259:	
  5730                           
  5731                           ;termometroDiferencial.c: 284:             if (waiting) {
  5732  0720  085D               	movf	_waiting,w
  5733  0721  045E               	iorwf	_waiting+1,w
  5734  0722  1903               	btfsc	3,2
  5735  0723  2F25               	goto	u265_21
  5736  0724  2F26               	goto	u265_20
  5737  0725                     u265_21:	
  5738  0725  2FA4               	goto	i1l159
  5739  0726                     u265_20:	
  5740  0726                     i1l2261:	
  5741                           
  5742                           ;termometroDiferencial.c: 285:                 clearIfFirst();
  5743  0726  158A  2213  118A   	fcall	_clearIfFirst
  5744  0729                     i1l2263:	
  5745                           
  5746                           ;termometroDiferencial.c: 286:                 if (cont < 3) {
  5747  0729  1283               	bcf	3,5	;RP0=0, select bank0
  5748  072A  1303               	bcf	3,6	;RP1=0, select bank0
  5749  072B  0860               	movf	_cont+1,w
  5750  072C  3A80               	xorlw	128
  5751  072D  00FF               	movwf	btemp+1
  5752  072E  3080               	movlw	128
  5753  072F  027F               	subwf	btemp+1,w
  5754  0730  1D03               	skipz
  5755  0731  2F34               	goto	u266_25
  5756  0732  3003               	movlw	3
  5757  0733  025F               	subwf	_cont,w
  5758  0734                     u266_25:	
  5759  0734  1803               	skipnc
  5760  0735  2F37               	goto	u266_21
  5761  0736  2F38               	goto	u266_20
  5762  0737                     u266_21:	
  5763  0737  2FA4               	goto	i1l159
  5764  0738                     u266_20:	
  5765  0738                     i1l2265:	
  5766                           
  5767                           ;termometroDiferencial.c: 287:                     maxTempString[cont] = '0';
  5768  0738  3030               	movlw	48
  5769  0739  1283               	bcf	3,5	;RP0=0, select bank0
  5770  073A  1303               	bcf	3,6	;RP1=0, select bank0
  5771  073B  00B0               	movwf	??_tecla
  5772  073C  085F               	movf	_cont,w
  5773  073D  3E61               	addlw	(low (_maxTempString| 0))& (0+255)
  5774  073E  0084               	movwf	4
  5775  073F  0830               	movf	??_tecla,w
  5776  0740  1383               	bcf	3,7	;select IRP bank0
  5777  0741  0080               	movwf	0
  5778  0742                     i1l2267:	
  5779                           
  5780                           ;termometroDiferencial.c: 288:                     putCharacter('0', cont);
  5781  0742  0860               	movf	_cont+1,w
  5782  0743  00AC               	movwf	i1putCharacter@position+1
  5783  0744  085F               	movf	_cont,w
  5784  0745  00AB               	movwf	i1putCharacter@position
  5785  0746  3030               	movlw	48
  5786  0747  158A  22D9  118A   	fcall	i1_putCharacter
  5787  074A  2DB7               	goto	i1l2159
  5788  074B                     i1l2271:	
  5789                           
  5790                           ;termometroDiferencial.c: 294:             maxTemp = atoi(maxTempString);
  5791  074B  3061               	movlw	(low (_maxTempString| 0))& (0+255)
  5792  074C  158A  2559  118A   	fcall	_atoi
  5793  074F  1283               	bcf	3,5	;RP0=0, select bank0
  5794  0750  1303               	bcf	3,6	;RP1=0, select bank0
  5795  0751  0827               	movf	?_atoi+1,w
  5796  0752  1683               	bsf	3,5	;RP0=1, select bank1
  5797  0753  1303               	bcf	3,6	;RP1=0, select bank1
  5798  0754  00CB               	movwf	(_maxTemp+1)^(0+128)
  5799  0755  1283               	bcf	3,5	;RP0=0, select bank0
  5800  0756  1303               	bcf	3,6	;RP1=0, select bank0
  5801  0757  0826               	movf	?_atoi,w
  5802  0758  1683               	bsf	3,5	;RP0=1, select bank1
  5803  0759  1303               	bcf	3,6	;RP1=0, select bank1
  5804  075A  00CA               	movwf	_maxTemp^(0+128)
  5805  075B                     i1l2273:	
  5806                           
  5807                           ;termometroDiferencial.c: 295:             waiting = 0;
  5808  075B  1283               	bcf	3,5	;RP0=0, select bank0
  5809  075C  1303               	bcf	3,6	;RP1=0, select bank0
  5810  075D  01DD               	clrf	_waiting
  5811  075E  01DE               	clrf	_waiting+1
  5812                           
  5813                           ;termometroDiferencial.c: 296:             break;
  5814  075F  2FA4               	goto	i1l159
  5815  0760                     i1l2275:	
  5816                           
  5817                           ;termometroDiferencial.c: 298:             changeThermometerChannel(2);
  5818  0760  3002               	movlw	2
  5819  0761  00A0               	movwf	changeThermometerChannel@channel
  5820  0762  3000               	movlw	0
  5821  0763  00A1               	movwf	changeThermometerChannel@channel+1
  5822  0764  158A  21E9  118A   	fcall	_changeThermometerChannel
  5823                           
  5824                           ;termometroDiferencial.c: 299:             break;
  5825  0767  2FA4               	goto	i1l159
  5826  0768                     i1l2279:	
  5827  0768  1283               	bcf	3,5	;RP0=0, select bank0
  5828  0769  1303               	bcf	3,6	;RP1=0, select bank0
  5829  076A  0806               	movf	6,w	;volatile
  5830  076B  00B0               	movwf	??_tecla
  5831  076C  01B1               	clrf	??_tecla+1
  5832                           
  5833                           ; Switch on 2 bytes has been partitioned into a top level switch of size 1, and 1 sub-sw
      +                          itches
  5834                           ; Switch size 1, requested type "simple"
  5835                           ; Number of cases is 1, Range of values is 0 to 0
  5836                           ; switch strategies available:
  5837                           ; Name         Instructions Cycles
  5838                           ; simple_byte            4     3 (average)
  5839                           ; direct_byte            9     7 (fixed)
  5840                           ; jumptable            260     6 (fixed)
  5841                           ;	Chosen strategy is simple_byte
  5842  076D  0831               	movf	??_tecla+1,w
  5843  076E  3A00               	xorlw	0	; case 0
  5844  076F  1903               	skipnz
  5845  0770  2F72               	goto	i1l2581
  5846  0771  2FA4               	goto	i1l159
  5847  0772                     i1l2581:	
  5848                           
  5849                           ; Switch size 1, requested type "simple"
  5850                           ; Number of cases is 16, Range of values is 119 to 238
  5851                           ; switch strategies available:
  5852                           ; Name         Instructions Cycles
  5853                           ; simple_byte           49    25 (average)
  5854                           ; direct_byte          250    10 (fixed)
  5855                           ; jumptable            263     9 (fixed)
  5856                           ;	Chosen strategy is simple_byte
  5857  0772  0830               	movf	??_tecla,w
  5858  0773  3A77               	xorlw	119	; case 119
  5859  0774  1903               	skipnz
  5860  0775  2F60               	goto	i1l2275
  5861  0776  3A0C               	xorlw	12	; case 123
  5862  0777  1903               	skipnz
  5863  0778  2F18               	goto	i1l2257
  5864  0779  3A06               	xorlw	6	; case 125
  5865  077A  1903               	skipnz
  5866  077B  2FA4               	goto	i1l159
  5867  077C  3A03               	xorlw	3	; case 126
  5868  077D  1903               	skipnz
  5869  077E  2FA4               	goto	i1l159
  5870  077F  3AC9               	xorlw	201	; case 183
  5871  0780  1903               	skipnz
  5872  0781  2F4B               	goto	i1l2271
  5873  0782  3A0C               	xorlw	12	; case 187
  5874  0783  1903               	skipnz
  5875  0784  2EED               	goto	i1l2245
  5876  0785  3A06               	xorlw	6	; case 189
  5877  0786  1903               	skipnz
  5878  0787  2E6C               	goto	i1l2209
  5879  0788  3A03               	xorlw	3	; case 190
  5880  0789  1903               	skipnz
  5881  078A  2DEB               	goto	i1l2173
  5882  078B  3A69               	xorlw	105	; case 215
  5883  078C  1903               	skipnz
  5884  078D  2F20               	goto	i1l2259
  5885  078E  3A0C               	xorlw	12	; case 219
  5886  078F  1903               	skipnz
  5887  0790  2EC2               	goto	i1l2233
  5888  0791  3A06               	xorlw	6	; case 221
  5889  0792  1903               	skipnz
  5890  0793  2E41               	goto	i1l2197
  5891  0794  3A03               	xorlw	3	; case 222
  5892  0795  1903               	skipnz
  5893  0796  2DC0               	goto	i1l2161
  5894  0797  3A39               	xorlw	57	; case 231
  5895  0798  1903               	skipnz
  5896  0799  2FA4               	goto	i1l159
  5897  079A  3A0C               	xorlw	12	; case 235
  5898  079B  1903               	skipnz
  5899  079C  2E97               	goto	i1l2221
  5900  079D  3A06               	xorlw	6	; case 237
  5901  079E  1903               	skipnz
  5902  079F  2E16               	goto	i1l2185
  5903  07A0  3A03               	xorlw	3	; case 238
  5904  07A1  1903               	skipnz
  5905  07A2  2D8D               	goto	i1l2149
  5906  07A3  2FA4               	goto	i1l159
  5907  07A4                     i1l159:	
  5908  07A4  0008               	return
  5909  07A5                     __end_of_tecla:	
  5910                           
  5911                           	psect	text25
  5912  0AD9                     __ptext25:	
  5913 ;; *************** function i1_putCharacter *****************
  5914 ;; Defined at:
  5915 ;;		line 71 in file "termometroDiferencial.c"
  5916 ;; Parameters:    Size  Location     Type
  5917 ;;  character       1    wreg     unsigned char 
  5918 ;;  position        2   11[BANK0 ] int 
  5919 ;; Auto vars:     Size  Location     Type
  5920 ;;  character       1   15[BANK0 ] unsigned char 
  5921 ;; Return value:  Size  Location     Type
  5922 ;;                  1    wreg      void 
  5923 ;; Registers used:
  5924 ;;		wreg, status,2, status,0, pclath, cstack
  5925 ;; Tracked objects:
  5926 ;;		On entry : 0/0
  5927 ;;		On exit  : 0/0
  5928 ;;		Unchanged: 0/0
  5929 ;; Data sizes:     COMMON   BANK0   BANK1
  5930 ;;      Params:         0       2       0
  5931 ;;      Locals:         0       1       0
  5932 ;;      Temps:          0       2       0
  5933 ;;      Totals:         0       5       0
  5934 ;;Total ram usage:        5 bytes
  5935 ;; Hardware stack levels used:    1
  5936 ;; Hardware stack levels required when called:    2
  5937 ;; This function calls:
  5938 ;;		i1_sendNibble
  5939 ;;		i1_turnOnLCD
  5940 ;; This function is called by:
  5941 ;;		_tecla
  5942 ;; This function uses a non-reentrant model
  5943 ;;
  5944                           
  5945                           
  5946                           ;psect for function i1_putCharacter
  5947  0AD9                     i1_putCharacter:	
  5948                           
  5949                           ;incstack = 0
  5950 ;; hardware stack exceeded
  5951                           ; Regs used in i1_putCharacter: [wreg+status,2+status,0+pclath+cstack]
  5952                           ;i1putCharacter@character stored from wreg
  5953  0AD9  1283               	bcf	3,5	;RP0=0, select bank0
  5954  0ADA  1303               	bcf	3,6	;RP1=0, select bank0
  5955  0ADB  00AF               	movwf	i1putCharacter@character
  5956  0ADC                     i1l2121:	
  5957                           
  5958                           ;termometroDiferencial.c: 73:     sendNibble(128 + position, 0);
  5959  0ADC  082B               	movf	i1putCharacter@position,w
  5960  0ADD  3E80               	addlw	128
  5961  0ADE  00A1               	movwf	i1sendNibble@n
  5962  0ADF  082C               	movf	i1putCharacter@position+1,w
  5963  0AE0  1803               	skipnc
  5964  0AE1  3E01               	addlw	1
  5965  0AE2  3E00               	addlw	0
  5966  0AE3  00A2               	movwf	i1sendNibble@n+1
  5967  0AE4  3000               	movlw	0
  5968  0AE5  00A3               	movwf	i1sendNibble@rs
  5969  0AE6  00A4               	movwf	i1sendNibble@rs+1
  5970  0AE7  158A  2471  158A   	fcall	i1_sendNibble
  5971                           
  5972                           ;termometroDiferencial.c: 75:     sendNibble(character, 1);
  5973  0AEA  1283               	bcf	3,5	;RP0=0, select bank0
  5974  0AEB  1303               	bcf	3,6	;RP1=0, select bank0
  5975  0AEC  082F               	movf	i1putCharacter@character,w
  5976  0AED  00AD               	movwf	??i1_putCharacter
  5977  0AEE  01AE               	clrf	??i1_putCharacter+1
  5978  0AEF  082D               	movf	??i1_putCharacter,w
  5979  0AF0  00A1               	movwf	i1sendNibble@n
  5980  0AF1  082E               	movf	??i1_putCharacter+1,w
  5981  0AF2  00A2               	movwf	i1sendNibble@n+1
  5982  0AF3  3001               	movlw	1
  5983  0AF4  00A3               	movwf	i1sendNibble@rs
  5984  0AF5  3000               	movlw	0
  5985  0AF6  00A4               	movwf	i1sendNibble@rs+1
  5986  0AF7  158A  2471  158A   	fcall	i1_sendNibble
  5987                           
  5988                           ;termometroDiferencial.c: 77:     turnOnLCD();
  5989  0AFA  158A  2267  158A   	fcall	i1_turnOnLCD
  5990  0AFD                     i1l78:	
  5991  0AFD  0008               	return
  5992  0AFE                     __end_ofi1_putCharacter:	
  5993                           
  5994                           	psect	text26
  5995  0A67                     __ptext26:	
  5996 ;; *************** function i1_turnOnLCD *****************
  5997 ;; Defined at:
  5998 ;;		line 52 in file "termometroDiferencial.c"
  5999 ;; Parameters:    Size  Location     Type
  6000 ;;		None
  6001 ;; Auto vars:     Size  Location     Type
  6002 ;;  turnOnLCD       2    0        int 
  6003 ;;  turnOnLCD       2    0        int 
  6004 ;;  turnOnLCD       2    1[BANK0 ] int 
  6005 ;; Return value:  Size  Location     Type
  6006 ;;                  1    wreg      void 
  6007 ;; Registers used:
  6008 ;;		wreg, status,2, status,0, pclath, cstack
  6009 ;; Tracked objects:
  6010 ;;		On entry : 0/0
  6011 ;;		On exit  : 0/0
  6012 ;;		Unchanged: 0/0
  6013 ;; Data sizes:     COMMON   BANK0   BANK1
  6014 ;;      Params:         0       0       0
  6015 ;;      Locals:         0       6       0
  6016 ;;      Temps:          0       0       0
  6017 ;;      Totals:         0       6       0
  6018 ;;Total ram usage:        6 bytes
  6019 ;; Hardware stack levels used:    1
  6020 ;; Hardware stack levels required when called:    1
  6021 ;; This function calls:
  6022 ;;		i1_flank
  6023 ;; This function is called by:
  6024 ;;		i1_putCharacter
  6025 ;; This function uses a non-reentrant model
  6026 ;;
  6027                           
  6028                           
  6029                           ;psect for function i1_turnOnLCD
  6030  0A67                     i1_turnOnLCD:	
  6031  0A67                     i1l1761:	
  6032                           ;incstack = 0
  6033 ;; hardware stack exceeded
  6034                           ; Regs used in i1_turnOnLCD: [wreg+status,2+status,0+pclath+cstack]
  6035                           
  6036                           
  6037                           ;termometroDiferencial.c: 54:     int d1 = turnOn >> 2;
  6038  0A67  3003               	movlw	3
  6039  0A68  1283               	bcf	3,5	;RP0=0, select bank0
  6040  0A69  1303               	bcf	3,6	;RP1=0, select bank0
  6041  0A6A  00A1               	movwf	i1turnOnLCD@d1
  6042  0A6B  3000               	movlw	0
  6043  0A6C  00A2               	movwf	i1turnOnLCD@d1+1
  6044                           
  6045                           ;termometroDiferencial.c: 56:     PORTC = d1;
  6046  0A6D  3003               	movlw	3
  6047  0A6E  0087               	movwf	7	;volatile
  6048  0A6F                     i1l1763:	
  6049                           
  6050                           ;termometroDiferencial.c: 57:     RC0 = 0;
  6051  0A6F  1007               	bcf	7,0	;volatile
  6052  0A70                     i1l1765:	
  6053                           
  6054                           ;termometroDiferencial.c: 58:     flank();
  6055  0A70  158A  2203  158A   	fcall	i1_flank
  6056  0A73                     i1l1767:	
  6057  0A73                     i1l1769:	
  6058                           
  6059                           ;termometroDiferencial.c: 61:     PORTC = d2;
  6060  0A73  3038               	movlw	56
  6061  0A74  1283               	bcf	3,5	;RP0=0, select bank0
  6062  0A75  1303               	bcf	3,6	;RP1=0, select bank0
  6063  0A76  0087               	movwf	7	;volatile
  6064  0A77                     i1l1771:	
  6065                           
  6066                           ;termometroDiferencial.c: 62:     RC0 = 0;
  6067  0A77  1007               	bcf	7,0	;volatile
  6068  0A78                     i1l1773:	
  6069                           
  6070                           ;termometroDiferencial.c: 63:     flank();
  6071  0A78  158A  2203  158A   	fcall	i1_flank
  6072  0A7B                     i1l75:	
  6073  0A7B  0008               	return
  6074  0A7C                     __end_ofi1_turnOnLCD:	
  6075                           
  6076                           	psect	text27
  6077  0A13                     __ptext27:	
  6078 ;; *************** function _clearIfFirst *****************
  6079 ;; Defined at:
  6080 ;;		line 163 in file "termometroDiferencial.c"
  6081 ;; Parameters:    Size  Location     Type
  6082 ;;		None
  6083 ;; Auto vars:     Size  Location     Type
  6084 ;;		None
  6085 ;; Return value:  Size  Location     Type
  6086 ;;                  1    wreg      void 
  6087 ;; Registers used:
  6088 ;;		wreg, status,2, status,0, pclath, cstack
  6089 ;; Tracked objects:
  6090 ;;		On entry : 0/0
  6091 ;;		On exit  : 0/0
  6092 ;;		Unchanged: 0/0
  6093 ;; Data sizes:     COMMON   BANK0   BANK1
  6094 ;;      Params:         0       0       0
  6095 ;;      Locals:         0       0       0
  6096 ;;      Temps:          0       0       0
  6097 ;;      Totals:         0       0       0
  6098 ;;Total ram usage:        0 bytes
  6099 ;; Hardware stack levels used:    1
  6100 ;; Hardware stack levels required when called:    3
  6101 ;; This function calls:
  6102 ;;		_clearLCD
  6103 ;; This function is called by:
  6104 ;;		_tecla
  6105 ;; This function uses a non-reentrant model
  6106 ;;
  6107                           
  6108                           
  6109                           ;psect for function _clearIfFirst
  6110  0A13                     _clearIfFirst:	
  6111  0A13                     i1l1857:	
  6112                           ;incstack = 0
  6113 ;; hardware stack exceeded
  6114                           ; Regs used in _clearIfFirst: [wreg+status,2+status,0+pclath+cstack]
  6115                           
  6116                           
  6117                           ;termometroDiferencial.c: 164:     if (clear == 1) {
  6118  0A13  1283               	bcf	3,5	;RP0=0, select bank0
  6119  0A14  1303               	bcf	3,6	;RP1=0, select bank0
  6120  0A15  0359               	decf	_clear,w
  6121  0A16  045A               	iorwf	_clear+1,w
  6122  0A17  1D03               	btfss	3,2
  6123  0A18  2A1A               	goto	u178_21
  6124  0A19  2A1B               	goto	u178_20
  6125  0A1A                     u178_21:	
  6126  0A1A  2A22               	goto	i1l112
  6127  0A1B                     u178_20:	
  6128  0A1B                     i1l1859:	
  6129                           
  6130                           ;termometroDiferencial.c: 165:         clearLCD();
  6131  0A1B  158A  21F6  158A   	fcall	_clearLCD
  6132  0A1E                     i1l1861:	
  6133                           
  6134                           ;termometroDiferencial.c: 166:         clear = 0;
  6135  0A1E  1283               	bcf	3,5	;RP0=0, select bank0
  6136  0A1F  1303               	bcf	3,6	;RP1=0, select bank0
  6137  0A20  01D9               	clrf	_clear
  6138  0A21  01DA               	clrf	_clear+1
  6139  0A22                     i1l112:	
  6140  0A22  0008               	return
  6141  0A23                     __end_of_clearIfFirst:	
  6142                           
  6143                           	psect	text28
  6144  09F6                     __ptext28:	
  6145 ;; *************** function _clearLCD *****************
  6146 ;; Defined at:
  6147 ;;		line 101 in file "termometroDiferencial.c"
  6148 ;; Parameters:    Size  Location     Type
  6149 ;;		None
  6150 ;; Auto vars:     Size  Location     Type
  6151 ;;		None
  6152 ;; Return value:  Size  Location     Type
  6153 ;;                  1    wreg      void 
  6154 ;; Registers used:
  6155 ;;		wreg, status,2, status,0, pclath, cstack
  6156 ;; Tracked objects:
  6157 ;;		On entry : 0/0
  6158 ;;		On exit  : 0/0
  6159 ;;		Unchanged: 0/0
  6160 ;; Data sizes:     COMMON   BANK0   BANK1
  6161 ;;      Params:         0       0       0
  6162 ;;      Locals:         0       0       0
  6163 ;;      Temps:          0       0       0
  6164 ;;      Totals:         0       0       0
  6165 ;;Total ram usage:        0 bytes
  6166 ;; Hardware stack levels used:    1
  6167 ;; Hardware stack levels required when called:    2
  6168 ;; This function calls:
  6169 ;;		i1_sendNibble
  6170 ;; This function is called by:
  6171 ;;		_clearIfFirst
  6172 ;; This function uses a non-reentrant model
  6173 ;;
  6174                           
  6175                           
  6176                           ;psect for function _clearLCD
  6177  09F6                     _clearLCD:	
  6178  09F6                     i1l1671:	
  6179                           ;incstack = 0
  6180 ;; hardware stack exceeded
  6181                           ; Regs used in _clearLCD: [wreg+status,2+status,0+pclath+cstack]
  6182                           
  6183                           
  6184                           ;termometroDiferencial.c: 102:     sendNibble(1, 0);
  6185  09F6  3001               	movlw	1
  6186  09F7  1283               	bcf	3,5	;RP0=0, select bank0
  6187  09F8  1303               	bcf	3,6	;RP1=0, select bank0
  6188  09F9  00A1               	movwf	i1sendNibble@n
  6189  09FA  3000               	movlw	0
  6190  09FB  00A2               	movwf	i1sendNibble@n+1
  6191  09FC  3000               	movlw	0
  6192  09FD  00A3               	movwf	i1sendNibble@rs
  6193  09FE  00A4               	movwf	i1sendNibble@rs+1
  6194  09FF  158A  2471  158A   	fcall	i1_sendNibble
  6195  0A02                     i1l90:	
  6196  0A02  0008               	return
  6197  0A03                     __end_of_clearLCD:	
  6198                           
  6199                           	psect	text29
  6200  0C71                     __ptext29:	
  6201 ;; *************** function i1_sendNibble *****************
  6202 ;; Defined at:
  6203 ;;		line 36 in file "termometroDiferencial.c"
  6204 ;; Parameters:    Size  Location     Type
  6205 ;;  n               2    1[BANK0 ] int 
  6206 ;;  rs              2    3[BANK0 ] int 
  6207 ;; Auto vars:     Size  Location     Type
  6208 ;;  sendNibble      2    9[BANK0 ] int 
  6209 ;;  sendNibble      2    7[BANK0 ] int 
  6210 ;; Return value:  Size  Location     Type
  6211 ;;                  1    wreg      void 
  6212 ;; Registers used:
  6213 ;;		wreg, status,2, status,0, pclath, cstack
  6214 ;; Tracked objects:
  6215 ;;		On entry : 0/0
  6216 ;;		On exit  : 0/0
  6217 ;;		Unchanged: 0/0
  6218 ;; Data sizes:     COMMON   BANK0   BANK1
  6219 ;;      Params:         0       4       0
  6220 ;;      Locals:         0       4       0
  6221 ;;      Temps:          0       2       0
  6222 ;;      Totals:         0      10       0
  6223 ;;Total ram usage:       10 bytes
  6224 ;; Hardware stack levels used:    1
  6225 ;; Hardware stack levels required when called:    1
  6226 ;; This function calls:
  6227 ;;		i1_flank
  6228 ;; This function is called by:
  6229 ;;		_clearLCD
  6230 ;;		i1_putCharacter
  6231 ;; This function uses a non-reentrant model
  6232 ;;
  6233                           
  6234                           
  6235                           ;psect for function i1_sendNibble
  6236  0C71                     i1_sendNibble:	
  6237  0C71                     i1l1649:	
  6238                           ;incstack = 0
  6239 ;; hardware stack exceeded
  6240                           ; Regs used in i1_sendNibble: [wreg+status,2+status,0+pclath+cstack]
  6241                           
  6242                           
  6243                           ;termometroDiferencial.c: 37:     int d1 = n >> 2;
  6244  0C71  1283               	bcf	3,5	;RP0=0, select bank0
  6245  0C72  1303               	bcf	3,6	;RP1=0, select bank0
  6246  0C73  0822               	movf	i1sendNibble@n+1,w
  6247  0C74  00A6               	movwf	??i1_sendNibble+1
  6248  0C75  0821               	movf	i1sendNibble@n,w
  6249  0C76  00A5               	movwf	??i1_sendNibble
  6250  0C77  0D26               	rlf	??i1_sendNibble+1,w
  6251  0C78  0CA6               	rrf	??i1_sendNibble+1,f
  6252  0C79  0CA5               	rrf	??i1_sendNibble,f
  6253  0C7A  0D26               	rlf	??i1_sendNibble+1,w
  6254  0C7B  0CA6               	rrf	??i1_sendNibble+1,f
  6255  0C7C  0CA5               	rrf	??i1_sendNibble,f
  6256  0C7D  0825               	movf	??i1_sendNibble,w
  6257  0C7E  00A7               	movwf	i1sendNibble@d1
  6258  0C7F  0826               	movf	??i1_sendNibble+1,w
  6259  0C80  00A8               	movwf	i1sendNibble@d1+1
  6260                           
  6261                           ;termometroDiferencial.c: 39:     PORTC = d1;
  6262  0C81  0827               	movf	i1sendNibble@d1,w
  6263  0C82  0087               	movwf	7	;volatile
  6264  0C83                     i1l1651:	
  6265                           
  6266                           ;termometroDiferencial.c: 40:     RC0 = rs;
  6267  0C83  1823               	btfsc	i1sendNibble@rs,0
  6268  0C84  2C86               	goto	u141_21
  6269  0C85  2C8A               	goto	u141_20
  6270  0C86                     u141_21:	
  6271  0C86  1283               	bcf	3,5	;RP0=0, select bank0
  6272  0C87  1303               	bcf	3,6	;RP1=0, select bank0
  6273  0C88  1407               	bsf	7,0	;volatile
  6274  0C89  2C8D               	goto	u142_24
  6275  0C8A                     u141_20:	
  6276  0C8A  1283               	bcf	3,5	;RP0=0, select bank0
  6277  0C8B  1303               	bcf	3,6	;RP1=0, select bank0
  6278  0C8C  1007               	bcf	7,0	;volatile
  6279  0C8D                     u142_24:	
  6280  0C8D                     i1l1653:	
  6281                           
  6282                           ;termometroDiferencial.c: 41:     flank();
  6283  0C8D  158A  2203  158A   	fcall	i1_flank
  6284  0C90                     i1l1655:	
  6285                           
  6286                           ;termometroDiferencial.c: 42:     int d2 = n << 2;
  6287  0C90  1283               	bcf	3,5	;RP0=0, select bank0
  6288  0C91  1303               	bcf	3,6	;RP1=0, select bank0
  6289  0C92  0822               	movf	i1sendNibble@n+1,w
  6290  0C93  00A6               	movwf	??i1_sendNibble+1
  6291  0C94  0821               	movf	i1sendNibble@n,w
  6292  0C95  00A5               	movwf	??i1_sendNibble
  6293  0C96  1003               	clrc
  6294  0C97  0DA5               	rlf	??i1_sendNibble,f
  6295  0C98  0DA6               	rlf	??i1_sendNibble+1,f
  6296  0C99  1003               	clrc
  6297  0C9A  0DA5               	rlf	??i1_sendNibble,f
  6298  0C9B  0DA6               	rlf	??i1_sendNibble+1,f
  6299  0C9C  0825               	movf	??i1_sendNibble,w
  6300  0C9D  00A9               	movwf	i1sendNibble@d2
  6301  0C9E  0826               	movf	??i1_sendNibble+1,w
  6302  0C9F  00AA               	movwf	i1sendNibble@d2+1
  6303  0CA0                     i1l1657:	
  6304                           
  6305                           ;termometroDiferencial.c: 44:     PORTC = d2;
  6306  0CA0  0829               	movf	i1sendNibble@d2,w
  6307  0CA1  0087               	movwf	7	;volatile
  6308  0CA2                     i1l1659:	
  6309                           
  6310                           ;termometroDiferencial.c: 45:     RC0 = rs;
  6311  0CA2  1823               	btfsc	i1sendNibble@rs,0
  6312  0CA3  2CA5               	goto	u143_21
  6313  0CA4  2CA9               	goto	u143_20
  6314  0CA5                     u143_21:	
  6315  0CA5  1283               	bcf	3,5	;RP0=0, select bank0
  6316  0CA6  1303               	bcf	3,6	;RP1=0, select bank0
  6317  0CA7  1407               	bsf	7,0	;volatile
  6318  0CA8  2CAC               	goto	u144_24
  6319  0CA9                     u143_20:	
  6320  0CA9  1283               	bcf	3,5	;RP0=0, select bank0
  6321  0CAA  1303               	bcf	3,6	;RP1=0, select bank0
  6322  0CAB  1007               	bcf	7,0	;volatile
  6323  0CAC                     u144_24:	
  6324  0CAC                     i1l1661:	
  6325                           
  6326                           ;termometroDiferencial.c: 46:     flank();
  6327  0CAC  158A  2203  158A   	fcall	i1_flank
  6328  0CAF                     i1l72:	
  6329  0CAF  0008               	return
  6330  0CB0                     __end_ofi1_sendNibble:	
  6331                           
  6332                           	psect	text30
  6333  0A03                     __ptext30:	
  6334 ;; *************** function i1_flank *****************
  6335 ;; Defined at:
  6336 ;;		line 25 in file "termometroDiferencial.c"
  6337 ;; Parameters:    Size  Location     Type
  6338 ;;		None
  6339 ;; Auto vars:     Size  Location     Type
  6340 ;;		None
  6341 ;; Return value:  Size  Location     Type
  6342 ;;                  1    wreg      void 
  6343 ;; Registers used:
  6344 ;;		wreg
  6345 ;; Tracked objects:
  6346 ;;		On entry : 0/0
  6347 ;;		On exit  : 0/0
  6348 ;;		Unchanged: 0/0
  6349 ;; Data sizes:     COMMON   BANK0   BANK1
  6350 ;;      Params:         0       0       0
  6351 ;;      Locals:         0       0       0
  6352 ;;      Temps:          0       1       0
  6353 ;;      Totals:         0       1       0
  6354 ;;Total ram usage:        1 bytes
  6355 ;; Hardware stack levels used:    1
  6356 ;; This function calls:
  6357 ;;		Nothing
  6358 ;; This function is called by:
  6359 ;;		i1_sendNibble
  6360 ;;		i1_turnOnLCD
  6361 ;; This function uses a non-reentrant model
  6362 ;;
  6363                           
  6364                           
  6365                           ;psect for function i1_flank
  6366  0A03                     i1_flank:	
  6367  0A03                     i1l1631:	
  6368                           ;incstack = 0
  6369 ;; hardware stack exceeded
  6370                           ; Regs used in i1_flank: [wreg]
  6371                           
  6372                           
  6373                           ;termometroDiferencial.c: 26:     RC1 = 1;
  6374  0A03  1283               	bcf	3,5	;RP0=0, select bank0
  6375  0A04  1303               	bcf	3,6	;RP1=0, select bank0
  6376  0A05  1487               	bsf	7,1	;volatile
  6377  0A06                     i1l1633:	
  6378                           
  6379                           ;termometroDiferencial.c: 27:     _delay((unsigned long)((1)*(4000000/4000.0)));
  6380  0A06  30C7               	movlw	199
  6381  0A07  1283               	bcf	3,5	;RP0=0, select bank0
  6382  0A08  1303               	bcf	3,6	;RP1=0, select bank0
  6383  0A09  00A0               	movwf	??i1_flank
  6384  0A0A                     u314_27:	
  6385  0A0A  2A0B               	nop2
  6386  0A0B  0BA0               	decfsz	??i1_flank,f
  6387  0A0C  2A0A               	goto	u314_27
  6388  0A0D  2A0E               	nop2
  6389  0A0E  0000               	nop
  6390  0A0F                     i1l1635:	
  6391                           
  6392                           ;termometroDiferencial.c: 28:     RC1 = 0;
  6393  0A0F  1283               	bcf	3,5	;RP0=0, select bank0
  6394  0A10  1303               	bcf	3,6	;RP1=0, select bank0
  6395  0A11  1087               	bcf	7,1	;volatile
  6396  0A12                     i1l69:	
  6397  0A12  0008               	return
  6398  0A13                     __end_ofi1_flank:	
  6399                           
  6400                           	psect	text31
  6401  09E9                     __ptext31:	
  6402 ;; *************** function _changeThermometerChannel *****************
  6403 ;; Defined at:
  6404 ;;		line 170 in file "termometroDiferencial.c"
  6405 ;; Parameters:    Size  Location     Type
  6406 ;;  channel         2    0[BANK0 ] int 
  6407 ;; Auto vars:     Size  Location     Type
  6408 ;;		None
  6409 ;; Return value:  Size  Location     Type
  6410 ;;                  1    wreg      void 
  6411 ;; Registers used:
  6412 ;;		wreg, status,2, status,0
  6413 ;; Tracked objects:
  6414 ;;		On entry : 0/0
  6415 ;;		On exit  : 0/0
  6416 ;;		Unchanged: 0/0
  6417 ;; Data sizes:     COMMON   BANK0   BANK1
  6418 ;;      Params:         0       2       0
  6419 ;;      Locals:         0       0       0
  6420 ;;      Temps:          0       0       0
  6421 ;;      Totals:         0       2       0
  6422 ;;Total ram usage:        2 bytes
  6423 ;; Hardware stack levels used:    1
  6424 ;; This function calls:
  6425 ;;		Nothing
  6426 ;; This function is called by:
  6427 ;;		_tecla
  6428 ;; This function uses a non-reentrant model
  6429 ;;
  6430                           
  6431                           
  6432                           ;psect for function _changeThermometerChannel
  6433  09E9                     _changeThermometerChannel:	
  6434  09E9                     i1l1863:	
  6435                           ;incstack = 0
  6436 ;; hardware stack exceeded
  6437                           ; Regs used in _changeThermometerChannel: [wreg+status,2+status,0]
  6438                           
  6439                           
  6440                           ;termometroDiferencial.c: 171:     if (channel == 2) {
  6441  09E9  3002               	movlw	2
  6442  09EA  1283               	bcf	3,5	;RP0=0, select bank0
  6443  09EB  1303               	bcf	3,6	;RP1=0, select bank0
  6444  09EC  0620               	xorwf	changeThermometerChannel@channel,w
  6445  09ED  0421               	iorwf	changeThermometerChannel@channel+1,w
  6446  09EE  1D03               	btfss	3,2
  6447  09EF  29F1               	goto	u179_21
  6448  09F0  29F2               	goto	u179_20
  6449  09F1                     u179_21:	
  6450  09F1  29F4               	goto	i1l115
  6451  09F2                     u179_20:	
  6452  09F2                     i1l1865:	
  6453                           
  6454                           ;termometroDiferencial.c: 172:         CHS0 = 1;
  6455  09F2  159F               	bsf	31,3	;volatile
  6456                           
  6457                           ;termometroDiferencial.c: 173:     } else {
  6458  09F3  29F5               	goto	i1l117
  6459  09F4                     i1l115:	
  6460                           
  6461                           ;termometroDiferencial.c: 174:         CHS0 = 0;
  6462  09F4  119F               	bcf	31,3	;volatile
  6463  09F5                     i1l117:	
  6464  09F5  0008               	return
  6465  09F6                     __end_of_changeThermometerChannel:	
  6466                           
  6467                           	psect	text32
  6468  0D59                     __ptext32:	
  6469 ;; *************** function _atoi *****************
  6470 ;; Defined at:
  6471 ;;		line 5 in file "C:\Program Files (x86)\Microchip\xc8\v2.10\pic\sources\c90\common\atoi.c"
  6472 ;; Parameters:    Size  Location     Type
  6473 ;;  s               1    wreg     PTR const unsigned char 
  6474 ;;		 -> maxTempString(3), 
  6475 ;; Auto vars:     Size  Location     Type
  6476 ;;  s               1   13[BANK0 ] PTR const unsigned char 
  6477 ;;		 -> maxTempString(3), 
  6478 ;;  a               2   11[BANK0 ] int 
  6479 ;;  sign            1   10[BANK0 ] unsigned char 
  6480 ;; Return value:  Size  Location     Type
  6481 ;;                  2    6[BANK0 ] int 
  6482 ;; Registers used:
  6483 ;;		wreg, fsr0l, fsr0h, status,2, status,0, pclath, cstack
  6484 ;; Tracked objects:
  6485 ;;		On entry : 0/0
  6486 ;;		On exit  : 0/0
  6487 ;;		Unchanged: 0/0
  6488 ;; Data sizes:     COMMON   BANK0   BANK1
  6489 ;;      Params:         0       2       0
  6490 ;;      Locals:         0       4       0
  6491 ;;      Temps:          0       2       0
  6492 ;;      Totals:         0       8       0
  6493 ;;Total ram usage:        8 bytes
  6494 ;; Hardware stack levels used:    1
  6495 ;; Hardware stack levels required when called:    1
  6496 ;; This function calls:
  6497 ;;		___wmul
  6498 ;;		_isdigit
  6499 ;; This function is called by:
  6500 ;;		_tecla
  6501 ;; This function uses a non-reentrant model
  6502 ;;
  6503                           
  6504                           
  6505                           ;psect for function _atoi
  6506  0D59                     _atoi:	
  6507                           
  6508                           ;incstack = 0
  6509 ;; hardware stack exceeded
  6510                           ; Regs used in _atoi: [wreg-fsr0h+status,2+status,0+pclath+cstack]
  6511                           ;atoi@s stored from wreg
  6512  0D59  1283               	bcf	3,5	;RP0=0, select bank0
  6513  0D5A  1303               	bcf	3,6	;RP1=0, select bank0
  6514  0D5B  00AD               	movwf	atoi@s
  6515  0D5C                     i1l1867:	
  6516  0D5C  2D61               	goto	i1l1871
  6517  0D5D                     i1l1869:	
  6518  0D5D  3001               	movlw	1
  6519  0D5E  00A8               	movwf	??_atoi
  6520  0D5F  0828               	movf	??_atoi,w
  6521  0D60  07AD               	addwf	atoi@s,f
  6522  0D61                     i1l1871:	
  6523  0D61  082D               	movf	atoi@s,w
  6524  0D62  0084               	movwf	4
  6525  0D63  3020               	movlw	32
  6526  0D64  1383               	bcf	3,7	;select IRP bank0
  6527  0D65  0600               	xorwf	0,w
  6528  0D66  1903               	btfsc	3,2
  6529  0D67  2D69               	goto	u180_21
  6530  0D68  2D6A               	goto	u180_20
  6531  0D69                     u180_21:	
  6532  0D69  2D5D               	goto	i1l1869
  6533  0D6A                     u180_20:	
  6534  0D6A                     i1l1873:	
  6535  0D6A  082D               	movf	atoi@s,w
  6536  0D6B  0084               	movwf	4
  6537  0D6C  3009               	movlw	9
  6538  0D6D  0600               	xorwf	0,w
  6539  0D6E  1903               	btfsc	3,2
  6540  0D6F  2D71               	goto	u181_21
  6541  0D70  2D72               	goto	u181_20
  6542  0D71                     u181_21:	
  6543  0D71  2D5D               	goto	i1l1869
  6544  0D72                     u181_20:	
  6545  0D72                     i1l1875:	
  6546  0D72  01AB               	clrf	atoi@a
  6547  0D73  01AC               	clrf	atoi@a+1
  6548  0D74  01AA               	clrf	atoi@sign
  6549  0D75                     i1l1877:	
  6550  0D75  082D               	movf	atoi@s,w
  6551  0D76  0084               	movwf	4
  6552  0D77  302D               	movlw	45
  6553  0D78  0600               	xorwf	0,w
  6554  0D79  1D03               	btfss	3,2
  6555  0D7A  2D7C               	goto	u182_21
  6556  0D7B  2D7D               	goto	u182_20
  6557  0D7C                     u182_21:	
  6558  0D7C  2D86               	goto	i1l1881
  6559  0D7D                     u182_20:	
  6560  0D7D                     i1l1879:	
  6561  0D7D  3001               	movlw	1
  6562  0D7E  00A8               	movwf	??_atoi
  6563  0D7F  0828               	movf	??_atoi,w
  6564  0D80  07AA               	addwf	atoi@sign,f
  6565  0D81  3001               	movlw	1
  6566  0D82  00A8               	movwf	??_atoi
  6567  0D83  0828               	movf	??_atoi,w
  6568  0D84  07AD               	addwf	atoi@s,f
  6569  0D85  2DB6               	goto	i1l1889
  6570  0D86                     i1l1881:	
  6571  0D86  082D               	movf	atoi@s,w
  6572  0D87  0084               	movwf	4
  6573  0D88  302B               	movlw	43
  6574  0D89  0600               	xorwf	0,w
  6575  0D8A  1D03               	btfss	3,2
  6576  0D8B  2D8D               	goto	u183_21
  6577  0D8C  2D8E               	goto	u183_20
  6578  0D8D                     u183_21:	
  6579  0D8D  2DB6               	goto	i1l1889
  6580  0D8E                     u183_20:	
  6581  0D8E                     i1l1883:	
  6582  0D8E  3001               	movlw	1
  6583  0D8F  00A8               	movwf	??_atoi
  6584  0D90  0828               	movf	??_atoi,w
  6585  0D91  07AD               	addwf	atoi@s,f
  6586  0D92  2DB6               	goto	i1l1889
  6587  0D93                     i1l1885:	
  6588  0D93  1283               	bcf	3,5	;RP0=0, select bank0
  6589  0D94  1303               	bcf	3,6	;RP1=0, select bank0
  6590  0D95  082D               	movf	atoi@s,w
  6591  0D96  0084               	movwf	4
  6592  0D97  082C               	movf	atoi@a+1,w
  6593  0D98  00A1               	movwf	___wmul@multiplier+1
  6594  0D99  082B               	movf	atoi@a,w
  6595  0D9A  00A0               	movwf	___wmul@multiplier
  6596  0D9B  300A               	movlw	10
  6597  0D9C  00A2               	movwf	___wmul@multiplicand
  6598  0D9D  3000               	movlw	0
  6599  0D9E  00A3               	movwf	___wmul@multiplicand+1
  6600  0D9F  158A  2323  158A   	fcall	___wmul
  6601  0DA2  1383               	bcf	3,7	;select IRP bank0
  6602  0DA3  0800               	movf	0,w
  6603  0DA4  1283               	bcf	3,5	;RP0=0, select bank0
  6604  0DA5  1303               	bcf	3,6	;RP1=0, select bank0
  6605  0DA6  0720               	addwf	?___wmul,w
  6606  0DA7  00A8               	movwf	??_atoi
  6607  0DA8  3000               	movlw	0
  6608  0DA9  1803               	skipnc
  6609  0DAA  3001               	movlw	1
  6610  0DAB  0721               	addwf	?___wmul+1,w
  6611  0DAC  00A9               	movwf	??_atoi+1
  6612  0DAD  0828               	movf	??_atoi,w
  6613  0DAE  3ED0               	addlw	208
  6614  0DAF  00AB               	movwf	atoi@a
  6615  0DB0  0829               	movf	??_atoi+1,w
  6616  0DB1  1803               	skipnc
  6617  0DB2  3E01               	addlw	1
  6618  0DB3  3EFF               	addlw	255
  6619  0DB4  00AC               	movwf	atoi@a+1
  6620  0DB5  2D8E               	goto	i1l1883
  6621  0DB6                     i1l1889:	
  6622  0DB6  082D               	movf	atoi@s,w
  6623  0DB7  0084               	movwf	4
  6624  0DB8  0800               	movf	0,w
  6625  0DB9  158A  2253  158A   	fcall	_isdigit
  6626  0DBC  1803               	btfsc	3,0
  6627  0DBD  2DBF               	goto	u184_21
  6628  0DBE  2DC0               	goto	u184_20
  6629  0DBF                     u184_21:	
  6630  0DBF  2D93               	goto	i1l1885
  6631  0DC0                     u184_20:	
  6632  0DC0                     i1l1891:	
  6633  0DC0  1283               	bcf	3,5	;RP0=0, select bank0
  6634  0DC1  1303               	bcf	3,6	;RP1=0, select bank0
  6635  0DC2  082A               	movf	atoi@sign,w
  6636  0DC3  1903               	btfsc	3,2
  6637  0DC4  2DC6               	goto	u185_21
  6638  0DC5  2DC7               	goto	u185_20
  6639  0DC6                     u185_21:	
  6640  0DC6  2DD3               	goto	i1l1897
  6641  0DC7                     u185_20:	
  6642  0DC7                     i1l1893:	
  6643  0DC7  092B               	comf	atoi@a,w
  6644  0DC8  00A8               	movwf	??_atoi
  6645  0DC9  092C               	comf	atoi@a+1,w
  6646  0DCA  00A9               	movwf	??_atoi+1
  6647  0DCB  0AA8               	incf	??_atoi,f
  6648  0DCC  1903               	skipnz
  6649  0DCD  0AA9               	incf	??_atoi+1,f
  6650  0DCE  0828               	movf	??_atoi,w
  6651  0DCF  00A6               	movwf	?_atoi
  6652  0DD0  0829               	movf	??_atoi+1,w
  6653  0DD1  00A7               	movwf	?_atoi+1
  6654  0DD2  2DD7               	goto	i1l751
  6655  0DD3                     i1l1897:	
  6656  0DD3  082C               	movf	atoi@a+1,w
  6657  0DD4  00A7               	movwf	?_atoi+1
  6658  0DD5  082B               	movf	atoi@a,w
  6659  0DD6  00A6               	movwf	?_atoi
  6660  0DD7                     i1l751:	
  6661  0DD7  0008               	return
  6662  0DD8                     __end_of_atoi:	
  6663                           
  6664                           	psect	text33
  6665  0A53                     __ptext33:	
  6666 ;; *************** function _isdigit *****************
  6667 ;; Defined at:
  6668 ;;		line 8 in file "C:\Program Files (x86)\Microchip\xc8\v2.10\pic\sources\c90\common\isdigit.c"
  6669 ;; Parameters:    Size  Location     Type
  6670 ;;  c               1    wreg     unsigned char 
  6671 ;; Auto vars:     Size  Location     Type
  6672 ;;  c               1    1[BANK0 ] unsigned char 
  6673 ;; Return value:  Size  Location     Type
  6674 ;;		None               void
  6675 ;; Registers used:
  6676 ;;		wreg, status,2, status,0
  6677 ;; Tracked objects:
  6678 ;;		On entry : 0/0
  6679 ;;		On exit  : 0/0
  6680 ;;		Unchanged: 0/0
  6681 ;; Data sizes:     COMMON   BANK0   BANK1
  6682 ;;      Params:         0       0       0
  6683 ;;      Locals:         0       2       0
  6684 ;;      Temps:          0       0       0
  6685 ;;      Totals:         0       2       0
  6686 ;;Total ram usage:        2 bytes
  6687 ;; Hardware stack levels used:    1
  6688 ;; This function calls:
  6689 ;;		Nothing
  6690 ;; This function is called by:
  6691 ;;		_atoi
  6692 ;; This function uses a non-reentrant model
  6693 ;;
  6694                           
  6695                           
  6696                           ;psect for function _isdigit
  6697  0A53                     _isdigit:	
  6698                           
  6699                           ;incstack = 0
  6700 ;; hardware stack exceeded
  6701                           ; Regs used in _isdigit: [wreg+status,2+status,0]
  6702                           ;isdigit@c stored from wreg
  6703  0A53  1283               	bcf	3,5	;RP0=0, select bank0
  6704  0A54  1303               	bcf	3,6	;RP1=0, select bank0
  6705  0A55  00A1               	movwf	isdigit@c
  6706  0A56                     i1l1749:	
  6707  0A56  01A0               	clrf	_isdigit$630
  6708  0A57                     i1l1751:	
  6709  0A57  303A               	movlw	58
  6710  0A58  0221               	subwf	isdigit@c,w
  6711  0A59  1803               	skipnc
  6712  0A5A  2A5C               	goto	u166_21
  6713  0A5B  2A5D               	goto	u166_20
  6714  0A5C                     u166_21:	
  6715  0A5C  2A65               	goto	i1l1757
  6716  0A5D                     u166_20:	
  6717  0A5D                     i1l1753:	
  6718  0A5D  3030               	movlw	48
  6719  0A5E  0221               	subwf	isdigit@c,w
  6720  0A5F  1C03               	skipc
  6721  0A60  2A62               	goto	u167_21
  6722  0A61  2A63               	goto	u167_20
  6723  0A62                     u167_21:	
  6724  0A62  2A65               	goto	i1l1757
  6725  0A63                     u167_20:	
  6726  0A63                     i1l1755:	
  6727  0A63  01A0               	clrf	_isdigit$630
  6728  0A64  0AA0               	incf	_isdigit$630,f
  6729  0A65                     i1l1757:	
  6730  0A65  0C20               	rrf	_isdigit$630,w
  6731  0A66                     i1l756:	
  6732  0A66  0008               	return
  6733  0A67                     __end_of_isdigit:	
  6734                           
  6735                           	psect	text34
  6736  0B23                     __ptext34:	
  6737 ;; *************** function ___wmul *****************
  6738 ;; Defined at:
  6739 ;;		line 15 in file "C:\Program Files (x86)\Microchip\xc8\v2.10\pic\sources\c90\common\Umul16.c"
  6740 ;; Parameters:    Size  Location     Type
  6741 ;;  multiplier      2    0[BANK0 ] unsigned int 
  6742 ;;  multiplicand    2    2[BANK0 ] unsigned int 
  6743 ;; Auto vars:     Size  Location     Type
  6744 ;;  product         2    4[BANK0 ] unsigned int 
  6745 ;; Return value:  Size  Location     Type
  6746 ;;                  2    0[BANK0 ] unsigned int 
  6747 ;; Registers used:
  6748 ;;		wreg, status,2, status,0
  6749 ;; Tracked objects:
  6750 ;;		On entry : 0/0
  6751 ;;		On exit  : 0/0
  6752 ;;		Unchanged: 0/0
  6753 ;; Data sizes:     COMMON   BANK0   BANK1
  6754 ;;      Params:         0       4       0
  6755 ;;      Locals:         0       2       0
  6756 ;;      Temps:          0       0       0
  6757 ;;      Totals:         0       6       0
  6758 ;;Total ram usage:        6 bytes
  6759 ;; Hardware stack levels used:    1
  6760 ;; This function calls:
  6761 ;;		Nothing
  6762 ;; This function is called by:
  6763 ;;		_atoi
  6764 ;; This function uses a non-reentrant model
  6765 ;;
  6766                           
  6767                           
  6768                           ;psect for function ___wmul
  6769  0B23                     ___wmul:	
  6770  0B23                     i1l1673:	
  6771                           ;incstack = 0
  6772 ;; hardware stack exceeded
  6773                           ; Regs used in ___wmul: [wreg+status,2+status,0]
  6774                           
  6775  0B23  1283               	bcf	3,5	;RP0=0, select bank0
  6776  0B24  1303               	bcf	3,6	;RP1=0, select bank0
  6777  0B25  01A4               	clrf	___wmul@product
  6778  0B26  01A5               	clrf	___wmul@product+1
  6779  0B27                     i1l1675:	
  6780  0B27  1C20               	btfss	___wmul@multiplier,0
  6781  0B28  2B2A               	goto	u146_21
  6782  0B29  2B2B               	goto	u146_20
  6783  0B2A                     u146_21:	
  6784  0B2A  2B31               	goto	i1l294
  6785  0B2B                     u146_20:	
  6786  0B2B                     i1l1677:	
  6787  0B2B  0822               	movf	___wmul@multiplicand,w
  6788  0B2C  07A4               	addwf	___wmul@product,f
  6789  0B2D  1803               	skipnc
  6790  0B2E  0AA5               	incf	___wmul@product+1,f
  6791  0B2F  0823               	movf	___wmul@multiplicand+1,w
  6792  0B30  07A5               	addwf	___wmul@product+1,f
  6793  0B31                     i1l294:	
  6794  0B31  3001               	movlw	1
  6795  0B32                     u147_25:	
  6796  0B32  1003               	clrc
  6797  0B33  0DA2               	rlf	___wmul@multiplicand,f
  6798  0B34  0DA3               	rlf	___wmul@multiplicand+1,f
  6799  0B35  3EFF               	addlw	-1
  6800  0B36  1D03               	skipz
  6801  0B37  2B32               	goto	u147_25
  6802  0B38                     i1l1679:	
  6803  0B38  3001               	movlw	1
  6804  0B39                     u148_25:	
  6805  0B39  1003               	clrc
  6806  0B3A  0CA1               	rrf	___wmul@multiplier+1,f
  6807  0B3B  0CA0               	rrf	___wmul@multiplier,f
  6808  0B3C  3EFF               	addlw	-1
  6809  0B3D  1D03               	skipz
  6810  0B3E  2B39               	goto	u148_25
  6811  0B3F                     i1l1681:	
  6812  0B3F  0820               	movf	___wmul@multiplier,w
  6813  0B40  0421               	iorwf	___wmul@multiplier+1,w
  6814  0B41  1D03               	btfss	3,2
  6815  0B42  2B44               	goto	u149_21
  6816  0B43  2B45               	goto	u149_20
  6817  0B44                     u149_21:	
  6818  0B44  2B27               	goto	i1l1675
  6819  0B45                     u149_20:	
  6820  0B45                     i1l1683:	
  6821  0B45  0825               	movf	___wmul@product+1,w
  6822  0B46  00A1               	movwf	?___wmul+1
  6823  0B47  0824               	movf	___wmul@product,w
  6824  0B48  00A0               	movwf	?___wmul
  6825  0B49                     i1l296:	
  6826  0B49  0008               	return
  6827  0B4A                     __end_of___wmul:	
  6828  007E                     btemp	set	126	;btemp
  6829  007E                     wtemp0	set	126


Data Sizes:
    Strings     26
    Constant    10
    Data        8
    BSS         5
    Persistent  0
    Stack       0

Auto Spaces:
    Space          Size  Autos    Used
    COMMON            0      0       0
    BANK0            94     57      68
    BANK1            94     42      44

Pointer List with Targets:

    strlen@s	PTR const unsigned char  size(2) Largest target is 512
		 -> RAM(DATA[512]), STR_4(CODE[20]), STR_3(CODE[20]), 

    strlen@cp	PTR const unsigned char  size(2) Largest target is 512
		 -> RAM(DATA[512]), STR_4(CODE[20]), STR_3(CODE[20]), 

    strcat@from	PTR const unsigned char  size(1) Largest target is 3
		 -> STR_2(CODE[3]), 

    strcat@to	PTR unsigned char  size(1) Largest target is 12
		 -> getTemperature@str(BANK1[12]), 

    strcat@cp	PTR unsigned char  size(1) Largest target is 12
		 -> getTemperature@str(BANK1[12]), 

    atoi@s	PTR const unsigned char  size(1) Largest target is 3
		 -> maxTempString(BANK0[3]), 

    sprintf@f	PTR const unsigned char  size(1) Largest target is 3
		 -> STR_1(CODE[3]), 

    sprintf@sp	PTR unsigned char  size(1) Largest target is 12
		 -> getTemperature@str(BANK1[12]), 

    sprintf@ap	PTR void [1] size(1) Largest target is 2
		 -> ?_sprintf(BANK0[2]), 

    sp__strcat	PTR unsigned char  size(1) Largest target is 12
		 -> getTemperature@str(BANK1[12]), 

    writeOnLCD@word	PTR unsigned char  size(2) Largest target is 512
		 -> RAM(DATA[512]), STR_4(CODE[20]), STR_3(CODE[20]), 

    writeWord@word	PTR unsigned char  size(2) Largest target is 512
		 -> RAM(DATA[512]), STR_4(CODE[20]), STR_3(CODE[20]), 


Critical Paths under _main in COMMON

    None.

Critical Paths under _accion in COMMON

    None.

Critical Paths under _main in BANK0

    _main->_getTemperature
    _getTemperature->___fltol
    _sprintf->___lwmod
    ___lwmod->___lwdiv
    ___xxtofl->_getVoltaje
    ___fltol->___flmul
    ___flmul->___xxtofl
    _writeOnLCD->_getTemperature
    _writeWord->_putCharacter
    _putCharacter->_sendNibble
    _turnOnLCD->_flank
    _conf->_sendNibble
    _sendNibble->_flank

Critical Paths under _accion in BANK0

    _accion->_tecla
    _tecla->i1_putCharacter
    i1_putCharacter->i1_sendNibble
    i1_turnOnLCD->i1_flank
    _clearLCD->i1_sendNibble
    i1_sendNibble->i1_flank
    _atoi->___wmul

Critical Paths under _main in BANK1

    _main->_writeOnLCD
    _getTemperature->___fltol
    ___fltol->___flmul
    _configTempMode->_writeOnLCD
    _writeOnLCD->_getTemperature

Critical Paths under _accion in BANK1

    None.

Call Graph Tables:

 ---------------------------------------------------------------------------------
 (Depth) Function   	        Calls       Base Space   Used Autos Params    Refs
 ---------------------------------------------------------------------------------
 (0) _main                                                 4     4      0   10368
                                             38 BANK1      4     4      0
                               _conf
                        _confTeclado
                     _configTempMode
                     _getTemperature
                          _secuencia
                               _wait
                         _writeOnLCD
 ---------------------------------------------------------------------------------
 (1) _wait                                                 0     0      0       0
 ---------------------------------------------------------------------------------
 (1) _getTemperature                                      15    15      0    5634
                                             56 BANK0      1     1      0
                                             22 BANK1     14    14      0
                            ___flmul
                            ___fltol
                           ___xxtofl
                         _getVoltaje
                            _sprintf
                             _strcat
 ---------------------------------------------------------------------------------
 (2) _strcat                                               4     3      1     207
                                             25 BANK0      4     3      1
 ---------------------------------------------------------------------------------
 (2) _sprintf                                             21    18      3    1211
                                             39 BANK0     13    10      3
                            ___lwdiv
                            ___lwmod
 ---------------------------------------------------------------------------------
 (3) ___lwmod                                              6     2      4     311
                                             33 BANK0      6     2      4
                            ___lwdiv (ARG)
 ---------------------------------------------------------------------------------
 (3) ___lwdiv                                              8     4      4     314
                                             25 BANK0      8     4      4
 ---------------------------------------------------------------------------------
 (2) _getVoltaje                                           2     0      2       0
                                             25 BANK0      2     0      2
 ---------------------------------------------------------------------------------
 (2) ___xxtofl                                            14    10      4     398
                                             27 BANK0     14    10      4
                         _getVoltaje (ARG)
 ---------------------------------------------------------------------------------
 (2) ___fltol                                             11     7      4     305
                                             54 BANK0      2     2      0
                                             13 BANK1      9     5      4
                            ___flmul (ARG)
                           ___xxtofl (ARG)
                         _getVoltaje (ARG)
 ---------------------------------------------------------------------------------
 (2) ___flmul                                             26    18      8    3353
                                             41 BANK0     13     5      8
                                              0 BANK1     13    13      0
                          __Umul8_16
                           ___xxtofl (ARG)
                         _getVoltaje (ARG)
 ---------------------------------------------------------------------------------
 (3) __Umul8_16                                            9     7      2     980
                                             25 BANK0      9     7      2
 ---------------------------------------------------------------------------------
 (1) _configTempMode                                       0     0      0    2005
                          _secuencia
                         _writeOnLCD
 ---------------------------------------------------------------------------------
 (1) _writeOnLCD                                           2     0      2    2005
                                             36 BANK1      2     0      2
                     _getTemperature (ARG)
                          _writeWord
 ---------------------------------------------------------------------------------
 (2) _writeWord                                            4     2      2    1755
                                             41 BANK0      4     2      2
                       _putCharacter
                             _strlen
 ---------------------------------------------------------------------------------
 (3) _strlen                                               4     2      2     166
                                             25 BANK0      4     2      2
 ---------------------------------------------------------------------------------
 (3) _putCharacter                                         5     3      2    1401
                                             36 BANK0      5     3      2
                         _sendNibble
                          _turnOnLCD
 ---------------------------------------------------------------------------------
 (4) _turnOnLCD                                            6     6      0      91
                                             26 BANK0      6     6      0
                              _flank
 ---------------------------------------------------------------------------------
 (1) _secuencia                                            0     0      0       0
 ---------------------------------------------------------------------------------
 (1) _confTeclado                                          0     0      0       0
 ---------------------------------------------------------------------------------
 (1) _conf                                                 0     0      0     690
                         _sendNibble
 ---------------------------------------------------------------------------------
 (4) _sendNibble                                          10     6      4     690
                                             26 BANK0     10     6      4
                              _flank
 ---------------------------------------------------------------------------------
 (5) _flank                                                1     1      0       0
                                             25 BANK0      1     1      0
 ---------------------------------------------------------------------------------
 Estimated maximum stack depth 5
 ---------------------------------------------------------------------------------
 (Depth) Function   	        Calls       Base Space   Used Autos Params    Refs
 ---------------------------------------------------------------------------------
 (7) _accion                                               7     7      0    1722
                                             18 BANK0      7     7      0
                              _tecla
 ---------------------------------------------------------------------------------
 (8) _tecla                                                2     2      0    1722
                                             16 BANK0      2     2      0
                               _atoi
           _changeThermometerChannel
                       _clearIfFirst
                     i1_putCharacter
 ---------------------------------------------------------------------------------
 (9) i1_putCharacter                                       5     3      2     685
                                             11 BANK0      5     3      2
                       i1_sendNibble
                        i1_turnOnLCD
 ---------------------------------------------------------------------------------
 (10) i1_turnOnLCD                                         6     6      0      91
                                              1 BANK0      6     6      0
                            i1_flank
 ---------------------------------------------------------------------------------
 (9) _clearIfFirst                                         0     0      0     290
                           _clearLCD
 ---------------------------------------------------------------------------------
 (10) _clearLCD                                            0     0      0     290
                       i1_sendNibble
 ---------------------------------------------------------------------------------
 (10) i1_sendNibble                                       10     6      4     290
                                              1 BANK0     10     6      4
                            i1_flank
 ---------------------------------------------------------------------------------
 (11) i1_flank                                             1     1      0       0
                                              0 BANK0      1     1      0
 ---------------------------------------------------------------------------------
 (9) _changeThermometerChannel                             2     0      2     174
                                              0 BANK0      2     0      2
 ---------------------------------------------------------------------------------
 (9) _atoi                                                 8     6      2     573
                                              6 BANK0      8     6      2
                             ___wmul
                            _isdigit
 ---------------------------------------------------------------------------------
 (10) _isdigit                                             2     2      0      68
                                              0 BANK0      2     2      0
 ---------------------------------------------------------------------------------
 (10) ___wmul                                              6     2      4     244
                                              0 BANK0      6     2      4
 ---------------------------------------------------------------------------------
 Estimated maximum stack depth 11
 ---------------------------------------------------------------------------------

 Call Graph Graphs:

 _main (ROOT)
   _conf
     _sendNibble
       _flank
   _confTeclado
   _configTempMode
     _secuencia
     _writeOnLCD
       _getTemperature (ARG)
         ___flmul
           __Umul8_16
           ___xxtofl (ARG)
             _getVoltaje (ARG)
           _getVoltaje (ARG)
         ___fltol
           ___flmul (ARG)
             __Umul8_16
             ___xxtofl (ARG)
               _getVoltaje (ARG)
             _getVoltaje (ARG)
           ___xxtofl (ARG)
             _getVoltaje (ARG)
           _getVoltaje (ARG)
         ___xxtofl
           _getVoltaje (ARG)
         _getVoltaje
         _sprintf
           ___lwdiv
           ___lwmod
             ___lwdiv (ARG)
         _strcat
       _writeWord (ARG)
         _putCharacter
           _sendNibble
             _flank
           _turnOnLCD
             _flank
         _strlen
   _getTemperature
     ___flmul
       __Umul8_16
       ___xxtofl (ARG)
         _getVoltaje (ARG)
       _getVoltaje (ARG)
     ___fltol
       ___flmul (ARG)
         __Umul8_16
         ___xxtofl (ARG)
           _getVoltaje (ARG)
         _getVoltaje (ARG)
       ___xxtofl (ARG)
         _getVoltaje (ARG)
       _getVoltaje (ARG)
     ___xxtofl
       _getVoltaje (ARG)
     _getVoltaje
     _sprintf
       ___lwdiv
       ___lwmod
         ___lwdiv (ARG)
     _strcat
   _secuencia
   _wait
   _writeOnLCD
     _getTemperature (ARG)
       ___flmul
         __Umul8_16
         ___xxtofl (ARG)
           _getVoltaje (ARG)
         _getVoltaje (ARG)
       ___fltol
         ___flmul (ARG)
           __Umul8_16
           ___xxtofl (ARG)
             _getVoltaje (ARG)
           _getVoltaje (ARG)
         ___xxtofl (ARG)
           _getVoltaje (ARG)
         _getVoltaje (ARG)
       ___xxtofl
         _getVoltaje (ARG)
       _getVoltaje
       _sprintf
         ___lwdiv
         ___lwmod
           ___lwdiv (ARG)
       _strcat
     _writeWord (ARG)
       _putCharacter
         _sendNibble
           _flank
         _turnOnLCD
           _flank
       _strlen

 _accion (ROOT)
   _tecla
     _atoi
       ___wmul
       _isdigit
     _changeThermometerChannel
     _clearIfFirst
       _clearLCD
         i1_sendNibble
           i1_flank
     i1_putCharacter
       i1_sendNibble
         i1_flank
       i1_turnOnLCD
         i1_flank

 Address spaces:
Name               Size   Autos  Total    Cost      Usage
SFR3                 0      0       0       4        0.0%
BITSFR3              0      0       0       4        0.0%
SFR2                 0      0       0       5        0.0%
BITSFR2              0      0       0       5        0.0%
BANK1               5E     2A      2C       6       46.8%
BITBANK1            5E      0       0       5        0.0%
SFR1                 0      0       0       2        0.0%
BITSFR1              0      0       0       2        0.0%
BANK0               5E     39      44       4       72.3%
BITBANK0            5E      0       0       3        0.0%
SFR0                 0      0       0       1        0.0%
BITSFR0              0      0       0       1        0.0%
COMMON               0      0       0       1        0.0%
BITCOMMON            0      0       0       0        0.0%
CODE                 0      0       0       0        0.0%
DATA                 0      0      70       8        0.0%
ABS                  0      0      70       7        0.0%
NULL                 0      0       0       0        0.0%
STACK                0      0       0       2        0.0%
EEDATA              80      0       0       0        0.0%


Microchip Technology PIC Macro Assembler V2.10 build 88905656 
Symbol Table                                                                                   Tue Mar 10 14:30:55 2020

                                pc 0002                                 l63 09CC  
                               l72 0CEE                                 l64 09CC  
                               l75 07FF                                 l84 0C00  
                               l69 0A32                                 l93 0A93  
                               l78 0B22                                 l87 0A42  
                               l96 09DD                                 _GO 00FA  
                               l99 0A46                                 fsr 0004  
              ___wmul@multiplicand 0022                __Umul8_16@word_mpld 003F  
                 ??_getTemperature 0058                                l102 0A52  
                              l105 0D58                                l108 09E8  
                              l172 0C34                                l180 0BCC  
                              l290 0FFF                                l480 0E69  
                              l721 0E8E                                l490 0E69  
                              l723 0F25                                l734 0EEF  
                              l566 07EA                                l487 0E52  
                              l735 0EFB                                l727 0ED3  
                              l576 0C70                                l771 0AB5  
                              l683 058B                                l765 0B9F  
                              l775 0B60                                l695 056D  
                              l777 0B72                                l689 04BF  
                              _GIE 005F                                _RC0 0038  
                              _RC1 0039                                fsr0 0004  
                              indf 0000                      writeWord@word 0049  
                     ___flmul@aexp 00A1                       ___flmul@bexp 00A6  
              __end_ofi1_turnOnLCD 0A7C                       ___flmul@sign 00A0  
                     ___flmul@temp 00AB                       ___flmul@prod 00A7  
           __end_ofi1_putCharacter 0AFE                       ___fltol@exp1 0057  
                             l2101 0EDA                               l2111 0F13  
                             l2103 0EE5                               l2113 0F18  
                             l2105 0EE9                               l2123 0A7C  
                             l2131 09DA                               l2115 0F1C  
                             l2107 0EF3                               l2125 0A88  
                             l2133 09DB                               l2117 0F1D  
                             l2109 0EFD                               l2127 0A89  
                             l2135 09DC                               l1601 0A2F  
                             l2129 09D4                               l2401 009F  
                             l2081 0E76                               l1611 0CDF  
                             l1603 0CB0                               l2411 00C2  
                             l2403 00A4                               l2091 0EA4  
                             l2083 0E86                               l1613 0CE1  
                             l1605 0CC2                               l1621 07F4  
                             l2501 054B                               l2421 0105  
                             l2413 00C7                               l2405 00AE  
                             l2093 0EB1                               l2085 0E96  
                             l2077 0E6D                               l1701 07D2  
                             l1615 0CEB                               l1607 0CCC  
                             l1623 07F7                               l2503 055D  
                             l2431 020E                               l2423 0138  
                             l2407 00B1                               l2095 0EB8  
                             l2079 0E72                               l1703 07D8  
                             l1609 0CCF                               l1625 07F7  
                             l1617 07EB                               l1641 0A9B  
                             l2361 0B4F                               l2505 0561  
                             l2441 02B1                               l2433 021D  
                             l2425 0168                               l2417 00D2  
                             l2409 00BB                               l2097 0EBC  
                             l2089 0E9F                               l1705 07D9  
                             l1721 0C4B                               l1713 0C35  
                             l1801 0F68                               l2513 0CEF  
                             l1627 07FB                               l1619 07F3  
                             l1643 0AA1                               l2291 0C1F  
                             l2363 0B56                               l2507 0562  
                             l2451 03B5                               l2443 02D4  
                             l2435 0231                               l2427 01AE  
                             l2419 00E8                               l2099 0ECA  
                             l1707 07E0                               l1723 0C4F  
                             l1715 0C3D                               l1731 0C6C  
                             l1803 0F6C                               l2515 0D37  
                             l2531 0BBE                               l2523 0BA0  
                             l1629 07FC                               l1637 0B01  
                             l1645 0AAD                               l2293 0C2E  
                             l2285 0C01                               l2365 0B5A  
                             l2509 0575                               l2461 0471  
                             l2453 03F3                               l2445 0309  
                             l2437 0266                               l2429 01DE  
                             l2381 005B                               l2373 003F  
                             l1901 0DD8                               l1709 07E6  
                             l1725 0C59                               l1717 0C40  
                             l1821 0F9F                               l1813 0F77  
                             l1805 0F70                               l2517 0D4D  
                             l2533 0BC1                               l2525 0BA6  
                             l1639 0A94                               l1663 0BCE  
                             l2287 0C14                               l2367 0B69  
                             l2359 0B4D                               l2471 0493  
                             l2463 0477                               l2455 043B  
                             l2447 0354                               l2439 027C  
                             l2391 007E                               l2383 0062  
                             l2375 0048                               l1911 0E0E  
                             l1903 0DE7                               l1727 0C5F  
                             l1719 0C47                               l1831 0FDE  
                             l1823 0FA6                               l1807 0F75  
                             l2519 0D57                               l2535 0BC9  
                             l2527 0BA9                               l1665 0BD3  
                             l2289 0C17                               l2369 0B6E  
                             l2481 04C6                               l2473 0494  
                             l2465 0478                               l2457 044A  
                             l2449 036A                               l2393 0085  
                             l2385 0067                               l2377 0052  
                             l1913 0E16                               l1729 0C66  
                             l1833 0FE2                               l1825 0FAA  
                             l1817 0F8F                               l2529 0BB0  
                             l1667 0BE5                               l2483 04CB  
                             l2491 0518                               l2475 0498  
                             l2467 0487                               l2459 0462  
                             l2395 008F                               l2387 0071  
                             l2379 0058                               l1931 0E43  
                             l1923 0E26                               l1915 0E1A  
                             l1907 0DF2                               l1691 07AF  
                             l1827 0FAF                               l1819 0F99  
                             l1835 0FEB                               l1851 0B88  
                             l1597 0A23                               l1669 0BED  
                             l2493 0525                               l2485 04D9  
                             l2477 04BA                               l2469 048F  
                             l2397 0095                               l2389 0074  
                             l1933 0E57                               l1917 0E1E  
                             l1925 0E3C                               l1909 0E0B  
                             l1693 07B2                               l1829 0FD7  
                             l1837 0FFB                               l1853 0B90  
                             l1845 0B76                               l1599 0A26  
                             l1855 09DE                               l1775 0A33  
                             l2495 0530                               l2487 04DD  
                             l2399 0098                               l1935 0E5C  
                             l1695 07B9                               l1687 07A5  
                             l1791 0F40                               l1783 0F29  
                             l1847 0B7B                               l2497 053F  
                             l2489 0512                               l1777 0A43  
                             l1697 07BD                               l1689 07A9  
                             l1785 0F2E                               l1849 0B7F  
                             l2499 0549                               l1779 0A4A  
                             l1699 07C1                               l2579 0F51  
                             l1795 0F41                               l1787 0F34  
                             l1797 0F5C                               l1789 0F3B  
                             l1799 0F64                               _CHS0 00FB  
                             STR_1 0831                               STR_2 082E  
                             STR_3 081A                               STR_4 081A  
                             u1400 0AAD                               u1401 0AAC  
                             u3010 0493                               u3011 0492  
                             u3100 0561                               u3020 0498  
                             u1500 07AF                               u3101 0560  
                             u3021 0497                               u3005 047C  
                             u1501 07AE                               u3030 04BA  
                             u3110 0BC9                               u3031 04B9  
                             u3111 0BC8                               u1360 0CC9  
                             u3040 04C5                               u1520 07C1  
                             u1600 0C59                               u1361 0CC5  
                             u3041 04C4                               u1521 07C0  
                             u1601 0C58                               u1450 0C00  
                             u3050 04CB                               u2410 0EE9  
                             u2330 0E72                               u1451 0BFF  
                             u3051 04CA                               u2411 0EE8  
                             u2331 0E71                               u1515 07B3  
                             u1380 0CE8                               u3060 04DD  
                             u2420 0EEF                               u2340 0E76  
                             u1540 07D2                               u1620 0C6C  
                             u1700 0F6C                               u1381 0CE4  
                             u3061 04DC                               u2421 0EEE  
                             u2405 0EDE                               u2341 0E75  
                             u1541 07D1                               u1621 0C6B  
                             u1605 0C55                               u1701 0F6B  
                             u1374 0CCC                               u3070 04FA  
                             u2430 0EF3                               u2350 0E96  
                             u1710 0F8E                               u3127 0A2A  
                             u1455 0BFC                               u2431 0EF2  
                             u2351 0E95                               u1535 07C2  
                             u1615 0C60                               u1711 0F8D  
                             u3080 0525                               u2440 0F08  
                             u1560 07E6                               u1720 0F99  
                             u3081 0524                               u1561 07E5  
                             u1545 07CE                               u1721 0F98  
                             u1394 0CEB                               u3090 053F  
                             u2450 0F18                               u2370 0EB7  
                             u1570 0C3D                               u1730 0F9F  
                             u3091 053E                               u3075 04F5  
                             u2451 0F17                               u2371 0EB6  
                             u1555 07DA                               u1571 0C3C  
                             u1731 0F9E                               u1715 0F8A  
                             u2460 0F1C                               u1740 0FEB  
                             u3085 0521                               u2461 0F1B  
                             u2445 0F03                               u2365 0EA9  
                             u1741 0FEA                               u2710 0B5A  
                             u1910 0E3B                               u2390 0ED9  
                             u1590 0C4F                               u1750 0FFB  
                             u2711 0B59                               u3095 053B  
                             u1911 0E3A                               u2391 0ED8  
                             u1591 0C4E                               u1751 0FFA  
                             u2800 00C2                               u1920 0E42  
                             u1680 0A4A                               u1760 0B87  
                             u2801 00C1                               u1921 0E41  
                             u1905 0E27                               u2385 0ECB  
                             u1681 0A49                               u1585 0C41  
                             u1761 0B86                               u2730 0B6E  
                             u2810 00C7                               u1690 0F34  
                             u1770 0B9F                               u2731 0B6D  
                             u2811 00C6                               u1691 0F33  
                             u1771 0B9E                               u2740 0058  
                             u1940 0E57                               u1860 0DE7  
                             u2725 0B61                               u2901 02EF  
                             u2821 014E                               u2741 0057  
                             u1941 0E56                               u1861 0DE6  
                             u2670 0C1F                               u2902 02FA  
                             u2822 0159                               u2750 0062  
                             u1950 0E5C                               u1870 0E02  
                             u2671 0C1E                               u2911 033A  
                             u2903 0305                               u2831 017E  
                             u2823 0164                               u2751 0061  
                             u1951 0E5B                               u1935 0E47  
                             u2680 0C2E                               u2912 0345  
                             u2832 0189                               u2760 0067  
                             u1880 0E1E                               u2681 0C2D  
                             u2921 0385                               u2913 0350  
                             u2841 01C4                               u2833 0194  
                             u2761 0066                               u1881 0E1D  
                             u2930 03C7                               u2922 0390  
                             u2842 01CF                               u2770 0095  
                             u1890 0E25                               u2923 039B  
                             u2851 01F4                               u2843 01DA  
                             u2771 0094                               u1891 0E24  
                             u1875 0DFD                               u2852 01FF  
                             u2780 009F                               u2685 0C2A  
                             u2941 03D9                               u2853 020A  
                             u2781 009E                               u2950 040F  
                             u2942 03E4                               u2790 00A4  
                             u2943 03EF                               u2935 03C2  
                             u2871 024C                               u2791 00A3  
                             _RBIE 005B                               u2872 0257  
                             _RBIF 0058                               u2961 0421  
                             u2881 0297                               u2873 0262  
                             u2865 0212                               u2962 042C  
                             u2882 02A2                               u2963 0437  
                             u2955 040A                               u2883 02AD  
                             u2990 0477                               u2991 0476  
                             u2975 043F                               u2895 02B5  
                             i1l72 0CAF                               u2985 0466  
                             i1l90 0A02                               i1l75 0A7B  
                             i1l69 0A12                               i1l78 0AFD  
                             _conf 0A7C                               _atoi 0D59  
                             _cont 005F                               _main 0BA0  
                             _wait 09CC                               btemp 007E  
                  __end_ofi1_flank 0A13                               start 0011  
             __end_of_clearIfFirst 0A23                      ___fltol@sign1 0056  
                            ?_conf 0020                              ?_atoi 0026  
                            _ADCS0 00FE                              ?_main 0020  
                            ?_wait 0020                    __end_of___flmul 058C  
                  __end_of___fltol 0E6A                    __end_of___lwdiv 07EB  
                            i1l112 0A22                              i1l115 09F4  
                            i1l117 09F5                              i1l165 0ACC  
                            i1l159 07A4                    __end_of___lwmod 0C71  
                            i1l294 0B31                              i1l296 0B49  
                            i1l751 0DD7                              i1l756 0A66  
                            _PORTB 0006                              _PORTC 0007  
                            _TRISA 0085                              _TRISB 0086  
                            _TRISC 0087                              _clear 0059  
                            _flank 0A23                    __end_of_dpowers 081A  
                  ?i1_putCharacter 002B                    __end_of_isdigit 0A67  
                            _tecla 058C                              atoi@a 002B  
                            atoi@s 002D                              pclath 000A  
                            status 0003                              wtemp0 007E  
                  __end_of_sprintf 1000                    __initialization 0013  
                     __end_of_conf 0A94                       __end_of_atoi 0DD8  
                     __end_of_main 0BCE                       __end_of_wait 09CE  
                      i1_turnOnLCD 0A67                      _maxTempString 0061  
  changeThermometerChannel@channel 0020                             ??_conf 0000  
                           ??_atoi 0028                             ??_main 00C6  
                           ??_wait 0000              __size_ofi1_sendNibble 003F  
                           ?_flank 0020                             _ADCON0 001F  
                           _ADCON1 009F                             _ADRESH 001E  
                           _ADRESL 009E                             ?_tecla 0020  
                        ??i1_flank 0020                             i1l2121 0ADC  
                           i1l2201 064A                             i1l2211 0672  
                           i1l2203 0659                             i1l2221 0697  
                           i1l2213 0675                             i1l2205 0663  
                           i1l2301 0ACB                             i1l2223 069D  
                           i1l2215 0684                             i1l2151 0593  
                           i1l2241 06E4                             i1l2233 06C2  
                           i1l2225 06A0                             i1l2217 068E  
                           i1l2209 066C                             i1l2161 05C0  
                           i1l2153 0596                             i1l2251 0705  
                           i1l2235 06C8                             i1l2227 06AF  
                           i1l2163 05C6                             i1l2155 05A5  
                           i1l2147 058C                             i1l2261 0726  
                           i1l2253 070F                             i1l2245 06ED  
                           i1l2237 06CB                             i1l2229 06B9  
                           i1l2181 060D                             i1l2173 05EB  
                           i1l2165 05C9                             i1l2157 05AF  
                           i1l2149 058D                             i1l1631 0A03  
                           i1l2271 074B                             i1l2263 0729  
                           i1l2247 06F3                             i1l2239 06DA  
                           i1l2191 062E                             i1l2175 05F1  
                           i1l2167 05D8                             i1l2159 05B7  
                           i1l1633 0A06                             i1l2273 075B  
                           i1l2265 0738                             i1l2257 0718  
                           i1l2249 06F6                             i1l2193 0638  
                           i1l2185 0616                             i1l2177 05F4  
                           i1l2169 05E2                             i1l1635 0A0F  
                           i1l1651 0C83                             i1l2275 0760  
                           i1l2267 0742                             i1l2259 0720  
                           i1l2187 061C                             i1l2179 0603  
                           i1l1661 0CAC                             i1l1653 0C8D  
                           i1l2197 0641                             i1l2189 061F  
                           i1l1751 0A57                             i1l1655 0C90  
                           i1l1671 09F6                             i1l2199 0647  
                           i1l2279 0768                             i1l2295 0AB6  
                           i1l1681 0B3F                             i1l1673 0B23  
                           i1l1753 0A5D                             i1l1657 0CA0  
                           i1l1649 0C71                             i1l1761 0A67  
                           i1l2297 0ABA                             i1l1683 0B45  
                           i1l1675 0B27                             i1l1755 0A63  
                           i1l1659 0CA2                             i1l1771 0A77  
                           i1l1763 0A6F                             i1l2299 0ABD  
                           i1l1677 0B2B                             i1l1757 0A65  
                           i1l1749 0A56                             i1l1861 0A1E  
                           i1l1773 0A78                             i1l1765 0A70  
                           i1l2581 0772                             i1l1679 0B38  
                           i1l1871 0D61                             i1l1863 09E9  
                           i1l1767 0A73                             i1l1881 0D86  
                           i1l1873 0D6A                             i1l1865 09F2  
                           i1l1857 0A13                             i1l1769 0A73  
                           i1l1891 0DC0                             i1l1883 0D8E  
                           i1l1875 0D72                             i1l1867 0D5C  
                           i1l1859 0A1B                             i1l1893 0DC7  
                           i1l1885 0D93                             i1l1877 0D75  
                           i1l1869 0D5D                             i1l1879 0D7D  
                           i1l1897 0DD3                             i1l1889 0DB6  
                           u141_20 0C8A                             u141_21 0C86  
                           u142_24 0C8D                             u143_20 0CA9  
                           u143_21 0CA5                             u144_24 0CAC  
                           u313_27 0AC5                             u146_20 0B2B  
                           u250_20 05D8                             u146_21 0B2A  
                           u250_21 05D7                             u250_25 05D4  
                           u314_27 0A0A                             u251_20 05F1  
                           u251_21 05F0                             u147_25 0B32  
                           u180_20 0D6A                             u260_20 06AF  
                           u252_20 0603                             u180_21 0D69  
                           u260_21 06AE                             u252_21 0602  
                           u148_25 0B39                             u260_25 06AB  
                           u252_25 05FF                             u149_20 0B45  
                           u181_20 0D72                             u261_20 06C8  
                           u253_20 061C                             u149_21 0B44  
                           u181_21 0D71                             u261_21 06C7  
                           u253_21 061B                             u166_20 0A5D  
                           u182_20 0D7D                             u262_20 06DA  
                           u254_20 062E                             u166_21 0A5C  
                           u182_21 0D7C                             u262_21 06D9  
                           u254_21 062D                             u262_25 06D6  
                           u254_25 062A                             u167_20 0A63  
                           u183_20 0D8E                             u263_20 06F3  
                           u255_20 0647                             u247_20 0593  
                           u167_21 0A62                             u183_21 0D8D  
                           u263_21 06F2                             u255_21 0646  
                           u247_21 0592                             u184_20 0DC0  
                           u264_20 0705                             u256_20 0659  
                           u248_20 05A5                             u184_21 0DBF  
                           u264_21 0704                             u256_21 0658  
                           u248_21 05A4                             u264_25 0701  
                           u256_25 0655                             u248_25 05A1  
                           u185_20 0DC7                             u265_20 0726  
                           u257_20 0672                             u249_20 05C6  
                           u185_21 0DC6                             u265_21 0725  
                           u257_21 0671                             u249_21 05C5  
                           u178_20 0A1B                             u266_20 0738  
                           u258_20 0684                             u178_21 0A1A  
                           u266_21 0737                             u258_21 0683  
                           u266_25 0734                             u258_25 0680  
                           u179_20 09F2                             u259_20 069D  
                           u179_21 09F1                             u259_21 069C  
                           u269_20 0ABA                             u269_21 0AB9  
             __size_of_confTeclado 000A                 getTemperature@temp 00C2  
                 __end_of___xxtofl 0F26                   __end_of_clearLCD 0A03  
                 ??_configTempMode 0000                             _accion 0AB6  
                           ___wmul 0B23                          ??___flmul 0051  
                        ??___fltol 00B1                main@leerTemperatura 00C8  
                        ??___lwdiv 003D                          ??___lwmod 0045  
                     i1_sendNibble 0C71                             _strcat 0B73  
                           _strlen 0A94                          ??_isdigit 0000  
               __size_of__Umul8_16 0029                             saved_w 007E  
                    i1turnOnLCD@d1 0021                          ??_sprintf 004A  
                     ___xxtofl@arg 0045              __size_of_clearIfFirst 0010  
                     ___xxtofl@exp 0044                       ___xxtofl@val 003B  
          __end_of__initialization 003C                         ___fltol@f1 00AD  
                   __pcstackCOMMON 0000                       __pidataBANK0 09CE  
                     __pidataBANK1 0002                      __end_of_flank 0A33  
                    __end_of_tecla 07A5                       _clearIfFirst 0A13  
                   _inConfTempMode 005B                            ??_flank 0039  
                          ??_tecla 0030                         __pbssBANK0 005F  
                __end_of__Umul8_16 0B73                         __pmaintext 0BA0  
                      sendNibble@n 003A                            ?_accion 0020  
                          ?___wmul 0020                         __pintentry 0004  
         _changeThermometerChannel 09E9                 __size_of_secuencia 000B  
                          ?_strcat 0039                            ?_strlen 0039  
                 ??i1_putCharacter 002D                         _getVoltaje 0A43  
                        ?___xxtofl 003B                          ?_clearLCD 0020  
                       __stringtab 0800                            i1_flank 0A03  
               __size_of_turnOnLCD 0015                 __size_of_writeWord 0033  
                  __size_of_accion 0023                            ___flmul 003F  
                          ___fltol 0DD8                    __size_of___wmul 0027  
                          ___lwdiv 07A5                            ___lwmod 0C35  
                     ?i1_turnOnLCD 0020                            __ptext1 09CC  
                          __ptext2 0CEF                            __ptext3 0B73  
                          __ptext4 0F26                            __ptext5 0C35  
                          __ptext6 07A5                            __ptext7 0A43  
                          __ptext8 0E6A                            __ptext9 0DD8  
                  __size_of_strcat 002D                    __size_of_strlen 0022  
                          _maxTemp 00CA                            _dpowers 0810  
                          _isdigit 0A53                         ??___xxtofl 003F  
                       ??_clearLCD 0000                            _waiting 005D  
                    ?_putCharacter 0044                            _sprintf 0F26  
                       _sendNibble 0CB0               end_of_initialization 003C  
          __size_of_getTemperature 006A                  __end_of_secuencia 09E9  
           i1putCharacter@position 002B                            strlen@s 0039  
                __end_of_turnOnLCD 0800                        ?_getVoltaje 0039  
                __end_of_writeWord 0C01                      ___xxtofl@sign 0043  
                   ??_putCharacter 0046                      ??_confTeclado 0000  
                      ___flmul@grs 00A2                         _writeOnLCD 0A33  
                   __end_of_accion 0AD9               putCharacter@position 0044  
                   __end_of___wmul 0B4A                     __end_of_strcat 0BA0  
                   __end_of_strlen 0AB6                start_initialization 0013  
                      ?_sendNibble 003A         ??_changeThermometerChannel 0000  
              __end_of_confTeclado 09DE                  getTemperature@str 00B6  
              __size_of_getVoltaje 0010                           ??_accion 0032  
                         ??___wmul 0000                          __Umul8_16 0B4A  
                      __pdataBANK0 0059                        __pdataBANK1 00CA  
                         ??_strcat 003A                           ??_strlen 0000  
          __size_of_configTempMode 0034               __size_ofi1_turnOnLCD 0015  
                        ___flmul@a 004D                          ___flmul@b 0049  
                        ___latbits 0001                      __pcstackBANK0 0020  
                    __pcstackBANK1 00A0                  __size_of___xxtofl 00BC  
                __size_of_clearLCD 000D                     _getTemperature 0CEF  
                         ?i1_flank 0020                        sprintf@flag 004E  
                      sprintf@prec 004F                   ___lwdiv@dividend 003B  
             __end_of_putCharacter 0B23                           ?___flmul 0049  
                     sendNibble@d1 0040                       sendNibble@d2 0042  
                      ?_writeOnLCD 00C4                           ?___fltol 00AD  
                     sendNibble@rs 003C                         ?__Umul8_16 0039  
                         ?___lwdiv 0039                           ?___lwmod 0041  
              __size_of_sendNibble 003F                          __pstrings 0800  
                         ?_isdigit 0020                        turnOnLCD@d1 003A  
           __end_of_getTemperature 0D59                   ___lwdiv@quotient 003E  
                   __size_of_flank 0010                           ?_sprintf 0047  
                   __size_of_tecla 0219                        _confTeclado 09D4  
                interrupt_function 0004                     ___wmul@product 0024  
                        _secuencia 09DE                      ?i1_sendNibble 0021  
                   i1sendNibble@d1 0027                     i1sendNibble@d2 0029  
                   i1sendNibble@rs 0023                        __stringbase 080F  
                ___wmul@multiplier 0020                       ??_getVoltaje 0000  
                        _turnOnLCD 07EB                    ?_getTemperature 0020  
                        _writeWord 0BCE                __size_of_writeOnLCD 0010  
          __size_ofi1_putCharacter 0025                   __size_ofi1_flank 0010  
 __end_of_changeThermometerChannel 09F6                         ?_secuencia 0020  
               __end_of_getVoltaje 0A53                     ??i1_sendNibble 0025  
                      ??__Umul8_16 003B                   __size_of___flmul 054D  
                 __size_of___fltol 0092                   __size_of___lwdiv 0046  
                 __size_of___lwmod 003C                 __end_of__stringtab 0810  
                      _isdigit$630 0020                     _configTempMode 0C01  
                       sprintf@val 0050                           ___xxtofl 0E6A  
                    ?_clearIfFirst 0020                         strcat@from 0039  
                         _clearLCD 09F6                   __size_of_isdigit 0014  
                       ?_turnOnLCD 0020                    ___lwdiv@divisor 0039  
                  ___lwdiv@counter 0040                           __ptext10 003F  
                         __ptext11 0B4A                           __ptext20 0A7C  
                         __ptext12 0C01                           __ptext21 0CB0  
                         __ptext13 0A33                           __ptext30 0A03  
                         __ptext22 0A23                           __ptext14 0BCE  
                         __ptext31 09E9                           __ptext23 0AB6  
                         __ptext15 0A94                           __ptext32 0D59  
                         __ptext24 058C                           __ptext16 0AFE  
                         __ptext33 0A53                           __ptext25 0AD9  
                         __ptext17 07EB                           __ptext34 0B23  
                         __ptext26 0A67                           __ptext18 09DE  
                         __ptext27 0A13                           __ptext19 09D4  
                         __ptext28 09F6                           __ptext29 0C71  
                       ?_writeWord 0049                       ??_sendNibble 003E  
                 __size_of_sprintf 00DA                      __size_of_conf 0018  
                    __size_of_atoi 007F                      __size_of_main 002E  
                    __size_of_wait 0002              __size_of_putCharacter 0025  
          i1putCharacter@character 002F                     writeOnLCD@word 00C4  
                    i1sendNibble@n 0021                           atoi@sign 002A  
                       writeWord@i 004B             __end_of_configTempMode 0C35  
               __end_of_sendNibble 0CEF                     ??_clearIfFirst 0000  
                       _INTCONbits 000B                           isdigit@c 0021  
                     _putCharacter 0AFE                           intlevel1 0000  
                        sprintf@ap 004D                          sprintf@sp 0052  
                 ___lwmod@dividend 0043                        ??_secuencia 0000  
                        stringcode 080A                       ??_writeOnLCD 0000  
                    ??i1_turnOnLCD 0000                    ?_configTempMode 0020  
           __Umul8_16@multiplicand 0039  __size_of_changeThermometerChannel 000D  
                       _OPTION_REG 0081                           sprintf@c 0053  
                         sprintf@f 0047          ?_changeThermometerChannel 0020  
                         strcat@cp 003C                           strcat@to 003B  
                  ___lwmod@divisor 0041                           strlen@cp 003B  
                  ___lwmod@counter 0046                           stringdir 080A  
                         stringtab 0800                        ??_turnOnLCD 0000  
                      ??_writeWord 0000                       ?_confTeclado 0020  
             __end_ofi1_sendNibble 0CB0                     i1_putCharacter 0AD9  
               __end_of_writeOnLCD 0A43               __Umul8_16@multiplier 0041  
                __Umul8_16@product 003D              putCharacter@character 0048  
